 Glumer

 Timestamp is 5c62bd6e (Tue Feb 12 12:34:54 2019)

 Preferred load address is 10000000

 Start         Length     Name                   Class
 0001:00000000 00030cc5H .textbss                DATA
 0002:00000000 00007650H .text$di                CODE
 0002:00007650 0005a380H .text$mn                CODE
 0002:000619d0 00009ed0H .text$x                 CODE
 0002:0006b8a0 00001601H .text$yd                CODE
 0003:00000000 00000104H .CRT$XCA                DATA
 0003:00000104 00000160H .CRT$XCU                DATA
 0003:00000264 00000104H .CRT$XCZ                DATA
 0003:00000368 00000104H .CRT$XIA                DATA
 0003:0000046c 00000104H .CRT$XIC                DATA
 0003:00000570 00000104H .CRT$XIZ                DATA
 0003:00000674 00000004H .CRT$XLA                DATA
 0003:00000678 00000004H .CRT$XLZ                DATA
 0003:0000067c 00000104H .CRT$XPA                DATA
 0003:00000780 00000104H .CRT$XPZ                DATA
 0003:00000884 00000104H .CRT$XTA                DATA
 0003:00000988 00000108H .CRT$XTZ                DATA
 0003:00000a90 000082d0H .rdata                  DATA
 0003:00008d60 0000011cH .rdata$T                DATA
 0003:00008e7c 00000a50H .rdata$r                DATA
 0003:000098cc 00000178H .rdata$zzzdbg           DATA
 0003:00009a44 00000104H .rtc$IAA                DATA
 0003:00009b48 00000144H .rtc$IMZ                DATA
 0003:00009c8c 00000104H .rtc$IZZ                DATA
 0003:00009d90 00000104H .rtc$TAA                DATA
 0003:00009e94 00000144H .rtc$TMZ                DATA
 0003:00009fd8 00000108H .rtc$TZZ                DATA
 0003:0000a0e0 00009010H .xdata$x                DATA
 0003:000130f0 000009f0H .edata                  DATA
 0004:00000000 00000160H .data                   DATA
 0004:00000160 000004e8H .data$r                 DATA
 0004:00000648 0000064cH .bss                    DATA
 0005:00000000 00000374H .idata$5                DATA
 0005:00000374 0000008cH .idata$2                DATA
 0005:00000400 00000014H .idata$3                DATA
 0005:00000414 00000374H .idata$4                DATA
 0005:00000788 00000af1H .idata$6                DATA
 0006:00000000 0000055cH .msvcjmc                DATA
 0007:00000000 00000104H .tls                    DATA
 0007:00000104 00000104H .tls$                   DATA
 0007:00000208 00000101H .tls$ZZZ                DATA
 0008:00000000 00000104H .00cfg                  DATA
 0009:00000000 00000170H .rsrc$01                DATA
 0009:00000170 000002ccH .rsrc$02                DATA

  Address         Publics by Value              Rva+Base       Lib:Object

 0000:00000000       ___guard_fids_count        00000000     <absolute>
 0000:00000000       ___guard_longjmp_table     00000000     <absolute>
 0000:00000000       ___safe_se_handler_count   00000000     <absolute>
 0000:00000000       ___guard_iat_table         00000000     <absolute>
 0000:00000000       ___guard_longjmp_count     00000000     <absolute>
 0000:00000000       ___guard_iat_count         00000000     <absolute>
 0000:00000000       ___hybrid_code_map_count   00000000     <absolute>
 0000:00000000       ___safe_se_handler_table   00000000     <absolute>
 0000:00000000       ___guard_fids_table        00000000     <absolute>
 0000:00000000       ___hybrid_auxiliary_iat    00000000     <absolute>
 0000:00000000       ___dynamic_value_reloc_table 00000000     <absolute>
 0000:00000000       ___hybrid_code_map         00000000     <absolute>
 0000:00000000       ___volatile_metadata       00000000     <absolute>
 0000:00000000       ___enclave_config          00000000     <absolute>
 0000:0000002c       __tls_array                0000002c     <absolute>
 0000:00000100       ___guard_flags             00000100     <absolute>
 0000:00000000       ___ImageBase               10000000     <linker-defined>
 0001:00000000       __enc$textbss$begin        10001000     <linker-defined>
 0001:00030cc5       __enc$textbss$end          10031cc5     <linker-defined>
 0002:00007650       ??0cTimerWrapper@TimerWrapper@@QAE@XZ 10039650 f   TimerWrapper.obj
 0002:000076f0       ??1cTimerWrapper@TimerWrapper@@UAE@XZ 100396f0 f   TimerWrapper.obj
 0002:000077b0       ??_GcTimerWrapper@TimerWrapper@@UAEPAXI@Z 100397b0 f i TimerWrapper.obj
 0002:000077b0       ??_EcTimerWrapper@TimerWrapper@@UAEPAXI@Z 100397b0 f i TimerWrapper.obj
 0002:00007820       ?AddThread@cTimerWrapper@TimerWrapper@@SAXPAV12@@Z 10039820 f   TimerWrapper.obj
 0002:000078a0       ?AddTimer@cTimerWrapper@TimerWrapper@@SAXPAV12@@Z 100398a0 f   TimerWrapper.obj
 0002:00007960       ?RemoveTimer@cTimerWrapper@TimerWrapper@@SAXPAV12@@Z 10039960 f   TimerWrapper.obj
 0002:000079e0       ?thread_function@cTimerWrapper@TimerWrapper@@SAHPAX@Z 100399e0 f   TimerWrapper.obj
 0002:00007be0       ?timer_callback@cTimerWrapper@TimerWrapper@@SAIIPAX@Z 10039be0 f   TimerWrapper.obj
 0002:00007d60       ??$?0$$QAI$$Z$$V@?$pair@$$CBIUPTR@cGlumShapeBase@Glumer@@@std@@QAE@Upiecewise_construct_t@1@V?$tuple@$$QAI@1@V?$tuple@$$V@1@@Z 10039d60 f i cGlumShapeFactory.obj
 0002:00007de0       ??$?0$$V@?$_Compressed_pair@V?$allocator@I@std@@V?$_Vector_val@U?$_Simple_types@I@std@@@2@$00@std@@QAE@U_Zero_then_variadic_args_t@1@@Z 10039de0 f i cGlumShapeFactory.obj
 0002:00007e50       ??$?0$$V@?$_Compressed_pair@V?$allocator@PAVcObjectBase@Glumer@@@std@@V?$_Vector_val@U?$_Simple_types@PAVcObjectBase@Glumer@@@std@@@2@$00@std@@QAE@U_Zero_then_variadic_args_t@1@@Z 10039e50 f i cGlumShapeFactory.obj
 0002:00007ec0       ??$?0$$V@?$_Compressed_pair@V?$allocator@U?$_Tree_node@U?$pair@$$CBIUPTR@cGlumShapeBase@Glumer@@@std@@PAX@std@@@std@@V?$_Tree_val@U?$_Tree_simple_types@U?$pair@$$CBIUPTR@cGlumShapeBase@Glumer@@@std@@@std@@@2@$00@std@@QAE@U_Zero_then_variadic_args_t@1@@Z 10039ec0 f i cGlumShapeFactory.obj
 0002:00007f30       ??$?0$$V@?$_Compressed_pair@V?$allocator@UPTR@cGlumShape_Console@Glumer@@@std@@V?$_Vector_val@U?$_Simple_types@UPTR@cGlumShape_Console@Glumer@@@std@@@2@$00@std@@QAE@U_Zero_then_variadic_args_t@1@@Z 10039f30 f i cGlumShapeFactory.obj
 0002:00007fa0       ??$?0$$V@?$_Compressed_pair@V?$allocator@UPTR@cGlumShape_RegularPolyhedron@Glumer@@@std@@V?$_Vector_val@U?$_Simple_types@UPTR@cGlumShape_RegularPolyhedron@Glumer@@@std@@@2@$00@std@@QAE@U_Zero_then_variadic_args_t@1@@Z 10039fa0 f i cGlumShapeFactory.obj
 0002:00008010       ??$?0$$V@?$_Compressed_pair@V?$allocator@UPTR@cGlumShape_SwitchGadget@Glumer@@@std@@V?$_Vector_val@U?$_Simple_types@UPTR@cGlumShape_SwitchGadget@Glumer@@@std@@@2@$00@std@@QAE@U_Zero_then_variadic_args_t@1@@Z 1003a010 f i cGlumShapeFactory.obj
 0002:00008080       ??$?0$$V@?$_Compressed_pair@V?$allocator@UPTR@cMovement_Camera@Glumer@@@std@@V?$_Vector_val@U?$_Simple_types@UPTR@cMovement_Camera@Glumer@@@std@@@2@$00@std@@QAE@U_Zero_then_variadic_args_t@1@@Z 1003a080 f i cGlumShapeFactory.obj
 0002:000080f0       ??$?0$$V@?$_Compressed_pair@V?$allocator@UPTR@cObjectMoveableBase@Glumer@@@std@@V?$_Vector_val@U?$_Simple_types@UPTR@cObjectMoveableBase@Glumer@@@std@@@2@$00@std@@QAE@U_Zero_then_variadic_args_t@1@@Z 1003a0f0 f i cGlumShapeFactory.obj
 0002:00008160       ??$?0AAV?$_Tree_iterator@V?$_Tree_val@U?$_Tree_simple_types@U?$pair@$$CBIUPTR@cGlumShapeBase@Glumer@@@std@@@std@@@std@@@std@@_N$0A@@?$pair@V?$_Tree_iterator@V?$_Tree_val@U?$_Tree_simple_types@U?$pair@$$CBIUPTR@cGlumShapeBase@Glumer@@@std@@@std@@@std@@@std@@_N@std@@QAE@AAV?$_Tree_iterator@V?$_Tree_val@U?$_Tree_simple_types@U?$pair@$$CBIUPTR@cGlumShapeBase@Glumer@@@std@@@std@@@std@@@1@$$QA_N@Z 1003a160 f i cGlumShapeFactory.obj
 0002:00008220       ??$?0ABI$$Z$$V@?$pair@$$CBIUPTR@cGlumShapeBase@Glumer@@@std@@QAE@Upiecewise_construct_t@1@V?$tuple@ABI@1@V?$tuple@$$V@1@@Z 1003a220 f i cGlumShapeFactory.obj
 0002:000082a0       ??$?0ABI$0A@@?$tuple@ABI@std@@QAE@ABI@Z 1003a2a0 f i cGlumShapeFactory.obj
 0002:00008350       ??$?0ABI@?$_Tuple_val@ABI@std@@QAE@ABI@Z 1003a350 f i cGlumShapeFactory.obj
 0002:000083c0       ??$?0ABU?$less@I@std@@U_Zero_then_variadic_args_t@1@@?$_Compressed_pair@U?$less@I@std@@V?$_Compressed_pair@V?$allocator@U?$_Tree_node@U?$pair@$$CBIUPTR@cGlumShapeBase@Glumer@@@std@@PAX@std@@@std@@V?$_Tree_val@U?$_Tree_simple_types@U?$pair@$$CBIUPTR@cGlumShapeBase@Glumer@@@std@@@std@@@2@$00@2@$00@std@@QAE@U_One_then_variadic_args_t@1@ABU?$less@I@1@$$QAU_Zero_then_variadic_args_t@1@@Z 1003a3c0 f i cGlumShapeFactory.obj
 0002:00008450       ??$?0I$$V$0A@@?$tuple@$$QAI@std@@QAE@$$QAI@Z 1003a450 f i cGlumShapeFactory.obj
 0002:00008510       ??$?0I@?$_Tuple_val@$$QAI@std@@QAE@$$QAI@Z 1003a510 f i cGlumShapeFactory.obj
 0002:00008580       ??$?0I@?$allocator@U_Container_proxy@std@@@std@@QAE@ABV?$allocator@I@1@@Z 1003a580 f i cGlumShapeFactory.obj
 0002:00008610       ??$?0PAVcObjectBase@Glumer@@@?$allocator@U_Container_proxy@std@@@std@@QAE@ABV?$allocator@PAVcObjectBase@Glumer@@@1@@Z 1003a610 f i cGlumShapeFactory.obj
 0002:000086a0       ??$?0U?$_Tree_node@U?$pair@$$CBIUPTR@cGlumShapeBase@Glumer@@@std@@PAX@std@@@?$allocator@U_Container_proxy@std@@@std@@QAE@ABV?$allocator@U?$_Tree_node@U?$pair@$$CBIUPTR@cGlumShapeBase@Glumer@@@std@@PAX@std@@@1@@Z 1003a6a0 f i cGlumShapeFactory.obj
 0002:00008730       ??$?0UPTR@cGlumShape_Console@Glumer@@@?$allocator@U_Container_proxy@std@@@std@@QAE@ABV?$allocator@UPTR@cGlumShape_Console@Glumer@@@1@@Z 1003a730 f i cGlumShapeFactory.obj
 0002:000087c0       ??$?0UPTR@cGlumShape_RegularPolyhedron@Glumer@@@?$allocator@U_Container_proxy@std@@@std@@QAE@ABV?$allocator@UPTR@cGlumShape_RegularPolyhedron@Glumer@@@1@@Z 1003a7c0 f i cGlumShapeFactory.obj
 0002:00008850       ??$?0UPTR@cGlumShape_SwitchGadget@Glumer@@@?$allocator@U_Container_proxy@std@@@std@@QAE@ABV?$allocator@UPTR@cGlumShape_SwitchGadget@Glumer@@@1@@Z 1003a850 f i cGlumShapeFactory.obj
 0002:000088e0       ??$?0UPTR@cMovementBase@Glumer@@@?$allocator@U_Container_proxy@std@@@std@@QAE@ABV?$allocator@UPTR@cMovementBase@Glumer@@@1@@Z 1003a8e0 f i cGlumShapeFactory.obj
 0002:00008970       ??$?0UPTR@cMovement_Camera@Glumer@@@?$allocator@U_Container_proxy@std@@@std@@QAE@ABV?$allocator@UPTR@cMovement_Camera@Glumer@@@1@@Z 1003a970 f i cGlumShapeFactory.obj
 0002:00008a00       ??$?0UPTR@cObjectMoveableBase@Glumer@@@?$allocator@U_Container_proxy@std@@@std@@QAE@ABV?$allocator@UPTR@cObjectMoveableBase@Glumer@@@1@@Z 1003aa00 f i cGlumShapeFactory.obj
 0002:00008a90       ??$?0U_Exact_args_t@std@@$0A@@?$tuple@$$V@std@@QAE@U_Exact_args_t@1@@Z 1003aa90 f i cGlumShapeFactory.obj
 0002:00008b20       ??$?0U_Exact_args_t@std@@ABI$$V$0A@@?$tuple@ABI@std@@QAE@U_Exact_args_t@1@ABI@Z 1003ab20 f i cGlumShapeFactory.obj
 0002:00008bb0       ??$?0U_Exact_args_t@std@@I$$V$0A@@?$tuple@$$QAI@std@@QAE@U_Exact_args_t@1@$$QAI@Z 1003abb0 f i cGlumShapeFactory.obj
 0002:00008c40       ??$?0V?$_Tree_iterator@V?$_Tree_val@U?$_Tree_simple_types@U?$pair@$$CBIUPTR@cGlumShapeBase@Glumer@@@std@@@std@@@std@@@std@@_N$0A@@?$pair@V?$_Tree_iterator@V?$_Tree_val@U?$_Tree_simple_types@U?$pair@$$CBIUPTR@cGlumShapeBase@Glumer@@@std@@@std@@@std@@@std@@_N@std@@QAE@$$QAV?$_Tree_iterator@V?$_Tree_val@U?$_Tree_simple_types@U?$pair@$$CBIUPTR@cGlumShapeBase@Glumer@@@std@@@std@@@std@@@1@$$QA_N@Z 1003ac40 f i cGlumShapeFactory.obj
 0002:00008d00       ??$?0V?$tuple@$$QAI@std@@V?$tuple@$$V@1@$0A@$$Z$S@?$pair@$$CBIUPTR@cGlumShapeBase@Glumer@@@std@@QAE@AAV?$tuple@$$QAI@1@AAV?$tuple@$$V@1@U?$integer_sequence@I$0A@@1@U?$integer_sequence@I$S@1@@Z 1003ad00 f i cGlumShapeFactory.obj
 0002:00008d90       ??$?0V?$tuple@ABI@std@@V?$tuple@$$V@1@$0A@$$Z$S@?$pair@$$CBIUPTR@cGlumShapeBase@Glumer@@@std@@QAE@AAV?$tuple@ABI@1@AAV?$tuple@$$V@1@U?$integer_sequence@I$0A@@1@U?$integer_sequence@I$S@1@@Z 1003ad90 f i cGlumShapeFactory.obj
 0002:00008e20       ??$_Adl_verify_range1@V?$_Vector_iterator@V?$_Vector_val@U?$_Simple_types@UPTR@cMovement_Camera@Glumer@@@std@@@std@@@std@@V12@@std@@YAXABV?$_Vector_iterator@V?$_Vector_val@U?$_Simple_types@UPTR@cMovement_Camera@Glumer@@@std@@@std@@@0@0U?$integral_constant@_N$00@0@@Z 1003ae20 f i cGlumShapeFactory.obj
 0002:00008e80       ??$_Adl_verify_range1@V?$_Vector_iterator@V?$_Vector_val@U?$_Simple_types@UPTR@cObjectMoveableBase@Glumer@@@std@@@std@@@std@@V12@@std@@YAXABV?$_Vector_iterator@V?$_Vector_val@U?$_Simple_types@UPTR@cObjectMoveableBase@Glumer@@@std@@@std@@@0@0U?$integral_constant@_N$00@0@@Z 1003ae80 f i cGlumShapeFactory.obj
 0002:00008ee0       ??$_Adl_verify_range@V?$_Vector_iterator@V?$_Vector_val@U?$_Simple_types@UPTR@cMovement_Camera@Glumer@@@std@@@std@@@std@@V12@@std@@YAXABV?$_Vector_iterator@V?$_Vector_val@U?$_Simple_types@UPTR@cMovement_Camera@Glumer@@@std@@@std@@@0@0@Z 1003aee0 f i cGlumShapeFactory.obj
 0002:00008f60       ??$_Adl_verify_range@V?$_Vector_iterator@V?$_Vector_val@U?$_Simple_types@UPTR@cObjectMoveableBase@Glumer@@@std@@@std@@@std@@V12@@std@@YAXABV?$_Vector_iterator@V?$_Vector_val@U?$_Simple_types@UPTR@cObjectMoveableBase@Glumer@@@std@@@std@@@0@0@Z 1003af60 f i cGlumShapeFactory.obj
 0002:00008fe0       ??$_Allocate@$07U_Default_allocate_traits@std@@$0A@@std@@YAPAXI@Z 1003afe0 f i cGlumShapeFactory.obj
 0002:00009070       ??$_Allocate_manually_vector_aligned@U_Default_allocate_traits@std@@@std@@YAPAXI@Z 1003b070 f i cGlumShapeFactory.obj
 0002:000091b0       ??$_Buy_if_not_node@AAU?$pair@$$CBIUPTR@cGlumShapeBase@Glumer@@@std@@@?$_Tree@V?$_Tmap_traits@IUPTR@cGlumShapeBase@Glumer@@U?$less@I@std@@V?$allocator@U?$pair@$$CBIUPTR@cGlumShapeBase@Glumer@@@std@@@5@$0A@@std@@@std@@IAEPAU?$_Tree_node@U?$pair@$$CBIUPTR@cGlumShapeBase@Glumer@@@std@@PAX@1@PAU21@AAU?$pair@$$CBIUPTR@cGlumShapeBase@Glumer@@@1@@Z 1003b1b0 f i cGlumShapeFactory.obj
 0002:00009210       ??$_Buynode@ABUpiecewise_construct_t@std@@V?$tuple@$$QAI@2@V?$tuple@$$V@2@@?$_Tree_comp_alloc@V?$_Tmap_traits@IUPTR@cGlumShapeBase@Glumer@@U?$less@I@std@@V?$allocator@U?$pair@$$CBIUPTR@cGlumShapeBase@Glumer@@@std@@@5@$0A@@std@@@std@@QAEPAU?$_Tree_node@U?$pair@$$CBIUPTR@cGlumShapeBase@Glumer@@@std@@PAX@1@ABUpiecewise_construct_t@1@$$QAV?$tuple@$$QAI@1@$$QAV?$tuple@$$V@1@@Z 1003b210 f i cGlumShapeFactory.obj
 0002:00009360       ??$_Buynode@ABUpiecewise_construct_t@std@@V?$tuple@ABI@2@V?$tuple@$$V@2@@?$_Tree_comp_alloc@V?$_Tmap_traits@IUPTR@cGlumShapeBase@Glumer@@U?$less@I@std@@V?$allocator@U?$pair@$$CBIUPTR@cGlumShapeBase@Glumer@@@std@@@5@$0A@@std@@@std@@QAEPAU?$_Tree_node@U?$pair@$$CBIUPTR@cGlumShapeBase@Glumer@@@std@@PAX@1@ABUpiecewise_construct_t@1@$$QAV?$tuple@ABI@1@$$QAV?$tuple@$$V@1@@Z 1003b360 f i cGlumShapeFactory.obj
 0002:000094b0       ??$_Const_cast@$$CBUPTR@cGlumShape_Console@Glumer@@@std@@YA@PBUPTR@cGlumShape_Console@Glumer@@@Z 1003b4b0 f i cGlumShapeFactory.obj
 0002:00009500       ??$_Const_cast@$$CBUPTR@cGlumShape_RegularPolyhedron@Glumer@@@std@@YA@PBUPTR@cGlumShape_RegularPolyhedron@Glumer@@@Z 1003b500 f i cGlumShapeFactory.obj
 0002:00009550       ??$_Const_cast@$$CBUPTR@cGlumShape_SwitchGadget@Glumer@@@std@@YA@PBUPTR@cGlumShape_SwitchGadget@Glumer@@@Z 1003b550 f i cGlumShapeFactory.obj
 0002:000095a0       ??$_Const_cast@$$CBUPTR@cMovement_Camera@Glumer@@@std@@YA@PBUPTR@cMovement_Camera@Glumer@@@Z 1003b5a0 f i cGlumShapeFactory.obj
 0002:000095f0       ??$_Copy_memmove@PAIPAI@std@@YAPAIPAI00@Z 1003b5f0 f i cGlumShapeFactory.obj
 0002:00009680       ??$_Copy_memmove@PAPAVcObjectBase@Glumer@@PAPAV12@@std@@YAPAPAVcObjectBase@Glumer@@PAPAV12@00@Z 1003b680 f i cGlumShapeFactory.obj
 0002:00009710       ??$_Copy_memmove@PAUPTR@cGlumShape_Console@Glumer@@PAU123@@std@@YAPAUPTR@cGlumShape_Console@Glumer@@PAU123@00@Z 1003b710 f i cGlumShapeFactory.obj
 0002:000097a0       ??$_Copy_memmove@PAUPTR@cGlumShape_RegularPolyhedron@Glumer@@PAU123@@std@@YAPAUPTR@cGlumShape_RegularPolyhedron@Glumer@@PAU123@00@Z 1003b7a0 f i cGlumShapeFactory.obj
 0002:00009830       ??$_Copy_memmove@PAUPTR@cGlumShape_SwitchGadget@Glumer@@PAU123@@std@@YAPAUPTR@cGlumShape_SwitchGadget@Glumer@@PAU123@00@Z 1003b830 f i cGlumShapeFactory.obj
 0002:000098c0       ??$_Copy_memmove@PAUPTR@cMovementBase@Glumer@@PAU123@@std@@YAPAUPTR@cMovementBase@Glumer@@PAU123@00@Z 1003b8c0 f i cGlumShapeFactory.obj
 0002:00009950       ??$_Copy_memmove@PAUPTR@cMovement_Camera@Glumer@@PAU123@@std@@YAPAUPTR@cMovement_Camera@Glumer@@PAU123@00@Z 1003b950 f i cGlumShapeFactory.obj
 0002:000099e0       ??$_Copy_memmove@PAUPTR@cObjectMoveableBase@Glumer@@PAU123@@std@@YAPAUPTR@cObjectMoveableBase@Glumer@@PAU123@00@Z 1003b9e0 f i cGlumShapeFactory.obj
 0002:00009a70       ??$_Deallocate@$07$0A@@std@@YAXPAXI@Z 1003ba70 f i cGlumShapeFactory.obj
 0002:00009af0       ??$_Deallocate_plain@V?$allocator@U_Container_proxy@std@@@std@@$0A@@std@@YAXAAV?$allocator@U_Container_proxy@std@@@0@QAU_Container_proxy@0@@Z 1003baf0 f i cGlumShapeFactory.obj
 0002:00009b60       ??$_Debug_lt_pred@AAU?$less@I@std@@AAIABI@std@@YA_NAAU?$less@I@0@AAIABI@Z 1003bb60 f i cGlumShapeFactory.obj
 0002:00009c70       ??$_Debug_lt_pred@AAU?$less@I@std@@ABIABI@std@@YA_NAAU?$less@I@0@ABI1@Z 1003bc70 f i cGlumShapeFactory.obj
 0002:00009d80       ??$_Debug_lt_pred@ABU?$less@I@std@@ABIABI@std@@YA_NABU?$less@I@0@ABI1@Z 1003bd80 f i cGlumShapeFactory.obj
 0002:00009e90       ??$_Destroy_range1@V?$allocator@I@std@@@std@@YAXPAI0AAV?$allocator@I@0@U?$integral_constant@_N$00@0@@Z 1003be90 f i cGlumShapeFactory.obj
 0002:00009ee0       ??$_Destroy_range1@V?$allocator@PAVcObjectBase@Glumer@@@std@@@std@@YAXPAPAVcObjectBase@Glumer@@0AAV?$allocator@PAVcObjectBase@Glumer@@@0@U?$integral_constant@_N$00@0@@Z 1003bee0 f i cGlumShapeFactory.obj
 0002:00009f30       ??$_Destroy_range1@V?$allocator@UPTR@cGlumShape_Console@Glumer@@@std@@@std@@YAXPAUPTR@cGlumShape_Console@Glumer@@0AAV?$allocator@UPTR@cGlumShape_Console@Glumer@@@0@U?$integral_constant@_N$00@0@@Z 1003bf30 f i cGlumShapeFactory.obj
 0002:00009f80       ??$_Destroy_range1@V?$allocator@UPTR@cGlumShape_RegularPolyhedron@Glumer@@@std@@@std@@YAXPAUPTR@cGlumShape_RegularPolyhedron@Glumer@@0AAV?$allocator@UPTR@cGlumShape_RegularPolyhedron@Glumer@@@0@U?$integral_constant@_N$00@0@@Z 1003bf80 f i cGlumShapeFactory.obj
 0002:00009fd0       ??$_Destroy_range1@V?$allocator@UPTR@cGlumShape_SwitchGadget@Glumer@@@std@@@std@@YAXPAUPTR@cGlumShape_SwitchGadget@Glumer@@0AAV?$allocator@UPTR@cGlumShape_SwitchGadget@Glumer@@@0@U?$integral_constant@_N$00@0@@Z 1003bfd0 f i cGlumShapeFactory.obj
 0002:0000a020       ??$_Destroy_range1@V?$allocator@UPTR@cMovementBase@Glumer@@@std@@@std@@YAXPAUPTR@cMovementBase@Glumer@@0AAV?$allocator@UPTR@cMovementBase@Glumer@@@0@U?$integral_constant@_N$00@0@@Z 1003c020 f i cGlumShapeFactory.obj
 0002:0000a070       ??$_Destroy_range1@V?$allocator@UPTR@cMovement_Camera@Glumer@@@std@@@std@@YAXPAUPTR@cMovement_Camera@Glumer@@0AAV?$allocator@UPTR@cMovement_Camera@Glumer@@@0@U?$integral_constant@_N$00@0@@Z 1003c070 f i cGlumShapeFactory.obj
 0002:0000a0c0       ??$_Destroy_range1@V?$allocator@UPTR@cObjectMoveableBase@Glumer@@@std@@@std@@YAXPAUPTR@cObjectMoveableBase@Glumer@@0AAV?$allocator@UPTR@cObjectMoveableBase@Glumer@@@0@U?$integral_constant@_N$00@0@@Z 1003c0c0 f i cGlumShapeFactory.obj
 0002:0000a110       ??$_Destroy_range@V?$allocator@I@std@@@std@@YAXPAI0AAV?$allocator@I@0@@Z 1003c110 f i cGlumShapeFactory.obj
 0002:0000a190       ??$_Destroy_range@V?$allocator@PAVcObjectBase@Glumer@@@std@@@std@@YAXPAPAVcObjectBase@Glumer@@0AAV?$allocator@PAVcObjectBase@Glumer@@@0@@Z 1003c190 f i cGlumShapeFactory.obj
 0002:0000a210       ??$_Destroy_range@V?$allocator@UPTR@cGlumShape_Console@Glumer@@@std@@@std@@YAXPAUPTR@cGlumShape_Console@Glumer@@0AAV?$allocator@UPTR@cGlumShape_Console@Glumer@@@0@@Z 1003c210 f i cGlumShapeFactory.obj
 0002:0000a290       ??$_Destroy_range@V?$allocator@UPTR@cGlumShape_RegularPolyhedron@Glumer@@@std@@@std@@YAXPAUPTR@cGlumShape_RegularPolyhedron@Glumer@@0AAV?$allocator@UPTR@cGlumShape_RegularPolyhedron@Glumer@@@0@@Z 1003c290 f i cGlumShapeFactory.obj
 0002:0000a310       ??$_Destroy_range@V?$allocator@UPTR@cGlumShape_SwitchGadget@Glumer@@@std@@@std@@YAXPAUPTR@cGlumShape_SwitchGadget@Glumer@@0AAV?$allocator@UPTR@cGlumShape_SwitchGadget@Glumer@@@0@@Z 1003c310 f i cGlumShapeFactory.obj
 0002:0000a390       ??$_Destroy_range@V?$allocator@UPTR@cMovementBase@Glumer@@@std@@@std@@YAXPAUPTR@cMovementBase@Glumer@@0AAV?$allocator@UPTR@cMovementBase@Glumer@@@0@@Z 1003c390 f i cGlumShapeFactory.obj
 0002:0000a410       ??$_Destroy_range@V?$allocator@UPTR@cMovement_Camera@Glumer@@@std@@@std@@YAXPAUPTR@cMovement_Camera@Glumer@@0AAV?$allocator@UPTR@cMovement_Camera@Glumer@@@0@@Z 1003c410 f i cGlumShapeFactory.obj
 0002:0000a490       ??$_Destroy_range@V?$allocator@UPTR@cObjectMoveableBase@Glumer@@@std@@@std@@YAXPAUPTR@cObjectMoveableBase@Glumer@@0AAV?$allocator@UPTR@cObjectMoveableBase@Glumer@@@0@@Z 1003c490 f i cGlumShapeFactory.obj
 0002:0000a510       ??$_Emplace_back_with_unused_capacity@ABI@?$vector@IV?$allocator@I@std@@@std@@AAE@ABI@Z 1003c510 f i cGlumShapeFactory.obj
 0002:0000a610       ??$_Emplace_back_with_unused_capacity@ABQAVcObjectBase@Glumer@@@?$vector@PAVcObjectBase@Glumer@@V?$allocator@PAVcObjectBase@Glumer@@@std@@@std@@AAE@ABQAVcObjectBase@Glumer@@@Z 1003c610 f i cGlumShapeFactory.obj
 0002:0000a710       ??$_Emplace_back_with_unused_capacity@ABUPTR@cGlumShape_Console@Glumer@@@?$vector@UPTR@cGlumShape_Console@Glumer@@V?$allocator@UPTR@cGlumShape_Console@Glumer@@@std@@@std@@AAE@ABUPTR@cGlumShape_Console@Glumer@@@Z 1003c710 f i cGlumShapeFactory.obj
 0002:0000a810       ??$_Emplace_back_with_unused_capacity@ABUPTR@cGlumShape_RegularPolyhedron@Glumer@@@?$vector@UPTR@cGlumShape_RegularPolyhedron@Glumer@@V?$allocator@UPTR@cGlumShape_RegularPolyhedron@Glumer@@@std@@@std@@AAE@ABUPTR@cGlumShape_RegularPolyhedron@Glumer@@@Z 1003c810 f i cGlumShapeFactory.obj
 0002:0000a910       ??$_Emplace_back_with_unused_capacity@ABUPTR@cGlumShape_SwitchGadget@Glumer@@@?$vector@UPTR@cGlumShape_SwitchGadget@Glumer@@V?$allocator@UPTR@cGlumShape_SwitchGadget@Glumer@@@std@@@std@@AAE@ABUPTR@cGlumShape_SwitchGadget@Glumer@@@Z 1003c910 f i cGlumShapeFactory.obj
 0002:0000aa10       ??$_Emplace_back_with_unused_capacity@ABUPTR@cMovementBase@Glumer@@@?$vector@UPTR@cMovementBase@Glumer@@V?$allocator@UPTR@cMovementBase@Glumer@@@std@@@std@@AAE@ABUPTR@cMovementBase@Glumer@@@Z 1003ca10 f i cGlumShapeFactory.obj
 0002:0000ab10       ??$_Emplace_back_with_unused_capacity@ABUPTR@cMovement_Camera@Glumer@@@?$vector@UPTR@cMovement_Camera@Glumer@@V?$allocator@UPTR@cMovement_Camera@Glumer@@@std@@@std@@AAE@ABUPTR@cMovement_Camera@Glumer@@@Z 1003cb10 f i cGlumShapeFactory.obj
 0002:0000ac10       ??$_Emplace_back_with_unused_capacity@ABUPTR@cObjectMoveableBase@Glumer@@@?$vector@UPTR@cObjectMoveableBase@Glumer@@V?$allocator@UPTR@cObjectMoveableBase@Glumer@@@std@@@std@@AAE@ABUPTR@cObjectMoveableBase@Glumer@@@Z 1003cc10 f i cGlumShapeFactory.obj
 0002:0000ad10       ??$_Emplace_back_with_unused_capacity@I@?$vector@IV?$allocator@I@std@@@std@@AAE@$$QAI@Z 1003cd10 f i cGlumShapeFactory.obj
 0002:0000ae10       ??$_Emplace_reallocate@ABI@?$vector@IV?$allocator@I@std@@@std@@QAEPAIQAIABI@Z 1003ce10 f i cGlumShapeFactory.obj
 0002:0000b0a0       ??$_Emplace_reallocate@ABQAVcObjectBase@Glumer@@@?$vector@PAVcObjectBase@Glumer@@V?$allocator@PAVcObjectBase@Glumer@@@std@@@std@@QAEPAPAVcObjectBase@Glumer@@QAPAV23@ABQAV23@@Z 1003d0a0 f i cGlumShapeFactory.obj
 0002:0000b330       ??$_Emplace_reallocate@ABUPTR@cGlumShape_Console@Glumer@@@?$vector@UPTR@cGlumShape_Console@Glumer@@V?$allocator@UPTR@cGlumShape_Console@Glumer@@@std@@@std@@QAEPAUPTR@cGlumShape_Console@Glumer@@QAU234@ABU234@@Z 1003d330 f i cGlumShapeFactory.obj
 0002:0000b5c0       ??$_Emplace_reallocate@ABUPTR@cGlumShape_RegularPolyhedron@Glumer@@@?$vector@UPTR@cGlumShape_RegularPolyhedron@Glumer@@V?$allocator@UPTR@cGlumShape_RegularPolyhedron@Glumer@@@std@@@std@@QAEPAUPTR@cGlumShape_RegularPolyhedron@Glumer@@QAU234@ABU234@@Z 1003d5c0 f i cGlumShapeFactory.obj
 0002:0000b850       ??$_Emplace_reallocate@ABUPTR@cGlumShape_SwitchGadget@Glumer@@@?$vector@UPTR@cGlumShape_SwitchGadget@Glumer@@V?$allocator@UPTR@cGlumShape_SwitchGadget@Glumer@@@std@@@std@@QAEPAUPTR@cGlumShape_SwitchGadget@Glumer@@QAU234@ABU234@@Z 1003d850 f i cGlumShapeFactory.obj
 0002:0000bae0       ??$_Emplace_reallocate@ABUPTR@cMovementBase@Glumer@@@?$vector@UPTR@cMovementBase@Glumer@@V?$allocator@UPTR@cMovementBase@Glumer@@@std@@@std@@QAEPAUPTR@cMovementBase@Glumer@@QAU234@ABU234@@Z 1003dae0 f i cGlumShapeFactory.obj
 0002:0000bd70       ??$_Emplace_reallocate@ABUPTR@cMovement_Camera@Glumer@@@?$vector@UPTR@cMovement_Camera@Glumer@@V?$allocator@UPTR@cMovement_Camera@Glumer@@@std@@@std@@QAEPAUPTR@cMovement_Camera@Glumer@@QAU234@ABU234@@Z 1003dd70 f i cGlumShapeFactory.obj
 0002:0000c000       ??$_Emplace_reallocate@ABUPTR@cObjectMoveableBase@Glumer@@@?$vector@UPTR@cObjectMoveableBase@Glumer@@V?$allocator@UPTR@cObjectMoveableBase@Glumer@@@std@@@std@@QAEPAUPTR@cObjectMoveableBase@Glumer@@QAU234@ABU234@@Z 1003e000 f i cGlumShapeFactory.obj
 0002:0000c290       ??$_Emplace_reallocate@I@?$vector@IV?$allocator@I@std@@@std@@QAEPAIQAI$$QAI@Z 1003e290 f i cGlumShapeFactory.obj
 0002:0000c520       ??$_Find_unchecked1@PAUPTR@cMovement_Camera@Glumer@@I@std@@YAPAUPTR@cMovement_Camera@Glumer@@PAU123@QAU123@ABIU?$integral_constant@_N$0A@@0@@Z 1003e520 f i cGlumShapeFactory.obj
 0002:0000c5b0       ??$_Find_unchecked@PAUPTR@cMovement_Camera@Glumer@@I@std@@YAPAUPTR@cMovement_Camera@Glumer@@QAU123@0ABI@Z 1003e5b0 f i cGlumShapeFactory.obj
 0002:0000c630       ??$_Freenode0@V?$allocator@U?$_Tree_node@U?$pair@$$CBIUPTR@cGlumShapeBase@Glumer@@@std@@PAX@std@@@std@@@?$_Tree_node@U?$pair@$$CBIUPTR@cGlumShapeBase@Glumer@@@std@@PAX@std@@SAXAAV?$allocator@U?$_Tree_node@U?$pair@$$CBIUPTR@cGlumShapeBase@Glumer@@@std@@PAX@std@@@1@PAU01@@Z 1003e630 f i cGlumShapeFactory.obj
 0002:0000c770       ??$_Get_size_of_n@$03@std@@YAII@Z 1003e770 f i cGlumShapeFactory.obj
 0002:0000c7f0       ??$_Get_size_of_n@$07@std@@YAII@Z 1003e7f0 f i cGlumShapeFactory.obj
 0002:0000c870       ??$_Get_size_of_n@$0BI@@std@@YAII@Z 1003e870 f i cGlumShapeFactory.obj
 0002:0000c8f0       ??$_Get_unwrapped@I@std@@YAPAIQAI@Z 1003e8f0 f i cGlumShapeFactory.obj
 0002:0000c940       ??$_Get_unwrapped@PAVcObjectBase@Glumer@@@std@@YAPAPAVcObjectBase@Glumer@@QAPAV12@@Z 1003e940 f i cGlumShapeFactory.obj
 0002:0000c990       ??$_Get_unwrapped@UPTR@cGlumShape_Console@Glumer@@@std@@YAPAUPTR@cGlumShape_Console@Glumer@@QAU123@@Z 1003e990 f i cGlumShapeFactory.obj
 0002:0000c9e0       ??$_Get_unwrapped@UPTR@cGlumShape_RegularPolyhedron@Glumer@@@std@@YAPAUPTR@cGlumShape_RegularPolyhedron@Glumer@@QAU123@@Z 1003e9e0 f i cGlumShapeFactory.obj
 0002:0000ca30       ??$_Get_unwrapped@UPTR@cGlumShape_SwitchGadget@Glumer@@@std@@YAPAUPTR@cGlumShape_SwitchGadget@Glumer@@QAU123@@Z 1003ea30 f i cGlumShapeFactory.obj
 0002:0000ca80       ??$_Get_unwrapped@UPTR@cMovementBase@Glumer@@@std@@YAPAUPTR@cMovementBase@Glumer@@QAU123@@Z 1003ea80 f i cGlumShapeFactory.obj
 0002:0000cad0       ??$_Get_unwrapped@UPTR@cMovement_Camera@Glumer@@@std@@YAPAUPTR@cMovement_Camera@Glumer@@QAU123@@Z 1003ead0 f i cGlumShapeFactory.obj
 0002:0000cb20       ??$_Get_unwrapped@UPTR@cObjectMoveableBase@Glumer@@@std@@YAPAUPTR@cObjectMoveableBase@Glumer@@QAU123@@Z 1003eb20 f i cGlumShapeFactory.obj
 0002:0000cb70       ??$_Get_unwrapped@V?$_Vector_iterator@V?$_Vector_val@U?$_Simple_types@UPTR@cMovement_Camera@Glumer@@@std@@@std@@@std@@$0A@@std@@YA@ABV?$_Vector_iterator@V?$_Vector_val@U?$_Simple_types@UPTR@cMovement_Camera@Glumer@@@std@@@std@@@0@@Z 1003eb70 f i cGlumShapeFactory.obj
 0002:0000cbd0       ??$_Get_unwrapped@V?$_Vector_iterator@V?$_Vector_val@U?$_Simple_types@UPTR@cObjectMoveableBase@Glumer@@@std@@@std@@@std@@$0A@@std@@YA@ABV?$_Vector_iterator@V?$_Vector_val@U?$_Simple_types@UPTR@cObjectMoveableBase@Glumer@@@std@@@std@@@0@@Z 1003ebd0 f i cGlumShapeFactory.obj
 0002:0000cc30       ??$_Get_unwrapped_n@IH$0A@@std@@YAPAIQAIH@Z 1003ec30 f i cGlumShapeFactory.obj
 0002:0000cc80       ??$_Get_unwrapped_n@PAVcObjectBase@Glumer@@H$0A@@std@@YAPAPAVcObjectBase@Glumer@@QAPAV12@H@Z 1003ec80 f i cGlumShapeFactory.obj
 0002:0000ccd0       ??$_Get_unwrapped_n@UPTR@cGlumShape_Console@Glumer@@H$0A@@std@@YAPAUPTR@cGlumShape_Console@Glumer@@QAU123@H@Z 1003ecd0 f i cGlumShapeFactory.obj
 0002:0000cd20       ??$_Get_unwrapped_n@UPTR@cGlumShape_RegularPolyhedron@Glumer@@H$0A@@std@@YAPAUPTR@cGlumShape_RegularPolyhedron@Glumer@@QAU123@H@Z 1003ed20 f i cGlumShapeFactory.obj
 0002:0000cd70       ??$_Get_unwrapped_n@UPTR@cGlumShape_SwitchGadget@Glumer@@H$0A@@std@@YAPAUPTR@cGlumShape_SwitchGadget@Glumer@@QAU123@H@Z 1003ed70 f i cGlumShapeFactory.obj
 0002:0000cdc0       ??$_Get_unwrapped_n@UPTR@cMovementBase@Glumer@@H$0A@@std@@YAPAUPTR@cMovementBase@Glumer@@QAU123@H@Z 1003edc0 f i cGlumShapeFactory.obj
 0002:0000ce10       ??$_Get_unwrapped_n@UPTR@cMovement_Camera@Glumer@@H$0A@@std@@YAPAUPTR@cMovement_Camera@Glumer@@QAU123@H@Z 1003ee10 f i cGlumShapeFactory.obj
 0002:0000ce60       ??$_Get_unwrapped_n@UPTR@cObjectMoveableBase@Glumer@@H$0A@@std@@YAPAUPTR@cObjectMoveableBase@Glumer@@QAU123@H@Z 1003ee60 f i cGlumShapeFactory.obj
 0002:0000ceb0       ??$_Idl_distance1@PAIPAI@std@@YAHABQAI0Urandom_access_iterator_tag@0@@Z 1003eeb0 f i cGlumShapeFactory.obj
 0002:0000cf10       ??$_Idl_distance1@PAPAVcObjectBase@Glumer@@PAPAV12@@std@@YAHABQAPAVcObjectBase@Glumer@@0Urandom_access_iterator_tag@0@@Z 1003ef10 f i cGlumShapeFactory.obj
 0002:0000cf70       ??$_Idl_distance1@PAUPTR@cGlumShape_Console@Glumer@@PAU123@@std@@YAHABQAUPTR@cGlumShape_Console@Glumer@@0Urandom_access_iterator_tag@0@@Z 1003ef70 f i cGlumShapeFactory.obj
 0002:0000cfd0       ??$_Idl_distance1@PAUPTR@cGlumShape_RegularPolyhedron@Glumer@@PAU123@@std@@YAHABQAUPTR@cGlumShape_RegularPolyhedron@Glumer@@0Urandom_access_iterator_tag@0@@Z 1003efd0 f i cGlumShapeFactory.obj
 0002:0000d030       ??$_Idl_distance1@PAUPTR@cGlumShape_SwitchGadget@Glumer@@PAU123@@std@@YAHABQAUPTR@cGlumShape_SwitchGadget@Glumer@@0Urandom_access_iterator_tag@0@@Z 1003f030 f i cGlumShapeFactory.obj
 0002:0000d090       ??$_Idl_distance1@PAUPTR@cMovementBase@Glumer@@PAU123@@std@@YAHABQAUPTR@cMovementBase@Glumer@@0Urandom_access_iterator_tag@0@@Z 1003f090 f i cGlumShapeFactory.obj
 0002:0000d0f0       ??$_Idl_distance1@PAUPTR@cMovement_Camera@Glumer@@PAU123@@std@@YAHABQAUPTR@cMovement_Camera@Glumer@@0Urandom_access_iterator_tag@0@@Z 1003f0f0 f i cGlumShapeFactory.obj
 0002:0000d150       ??$_Idl_distance1@PAUPTR@cObjectMoveableBase@Glumer@@PAU123@@std@@YAHABQAUPTR@cObjectMoveableBase@Glumer@@0Urandom_access_iterator_tag@0@@Z 1003f150 f i cGlumShapeFactory.obj
 0002:0000d1b0       ??$_Idl_distance@PAIPAI@std@@YA@ABQAI0@Z 1003f1b0 f i cGlumShapeFactory.obj
 0002:0000d220       ??$_Idl_distance@PAPAVcObjectBase@Glumer@@PAPAV12@@std@@YA@ABQAPAVcObjectBase@Glumer@@0@Z 1003f220 f i cGlumShapeFactory.obj
 0002:0000d290       ??$_Idl_distance@PAUPTR@cGlumShape_Console@Glumer@@PAU123@@std@@YA@ABQAUPTR@cGlumShape_Console@Glumer@@0@Z 1003f290 f i cGlumShapeFactory.obj
 0002:0000d300       ??$_Idl_distance@PAUPTR@cGlumShape_RegularPolyhedron@Glumer@@PAU123@@std@@YA@ABQAUPTR@cGlumShape_RegularPolyhedron@Glumer@@0@Z 1003f300 f i cGlumShapeFactory.obj
 0002:0000d370       ??$_Idl_distance@PAUPTR@cGlumShape_SwitchGadget@Glumer@@PAU123@@std@@YA@ABQAUPTR@cGlumShape_SwitchGadget@Glumer@@0@Z 1003f370 f i cGlumShapeFactory.obj
 0002:0000d3e0       ??$_Idl_distance@PAUPTR@cMovementBase@Glumer@@PAU123@@std@@YA@ABQAUPTR@cMovementBase@Glumer@@0@Z 1003f3e0 f i cGlumShapeFactory.obj
 0002:0000d450       ??$_Idl_distance@PAUPTR@cMovement_Camera@Glumer@@PAU123@@std@@YA@ABQAUPTR@cMovement_Camera@Glumer@@0@Z 1003f450 f i cGlumShapeFactory.obj
 0002:0000d4c0       ??$_Idl_distance@PAUPTR@cObjectMoveableBase@Glumer@@PAU123@@std@@YA@ABQAUPTR@cObjectMoveableBase@Glumer@@0@Z 1003f4c0 f i cGlumShapeFactory.obj
 0002:0000d530       ??$_Insert_at@AAU?$pair@$$CBIUPTR@cGlumShapeBase@Glumer@@@std@@PAU?$_Tree_node@U?$pair@$$CBIUPTR@cGlumShapeBase@Glumer@@@std@@PAX@2@@?$_Tree@V?$_Tmap_traits@IUPTR@cGlumShapeBase@Glumer@@U?$less@I@std@@V?$allocator@U?$pair@$$CBIUPTR@cGlumShapeBase@Glumer@@@std@@@5@$0A@@std@@@std@@IAE?AV?$_Tree_iterator@V?$_Tree_val@U?$_Tree_simple_types@U?$pair@$$CBIUPTR@cGlumShapeBase@Glumer@@@std@@@std@@@std@@@1@_NPAU?$_Tree_node@U?$pair@$$CBIUPTR@cGlumShapeBase@Glumer@@@std@@PAX@1@AAU?$pair@$$CBIUPTR@cGlumShapeBase@Glumer@@@1@1@Z 1003f530 f i cGlumShapeFactory.obj
 0002:0000d8c0       ??$_Insert_hint@AAU?$pair@$$CBIUPTR@cGlumShapeBase@Glumer@@@std@@PAU?$_Tree_node@U?$pair@$$CBIUPTR@cGlumShapeBase@Glumer@@@std@@PAX@2@@?$_Tree@V?$_Tmap_traits@IUPTR@cGlumShapeBase@Glumer@@U?$less@I@std@@V?$allocator@U?$pair@$$CBIUPTR@cGlumShapeBase@Glumer@@@std@@@5@$0A@@std@@@std@@IAE?AV?$_Tree_iterator@V?$_Tree_val@U?$_Tree_simple_types@U?$pair@$$CBIUPTR@cGlumShapeBase@Glumer@@@std@@@std@@@std@@@1@V?$_Tree_const_iterator@V?$_Tree_val@U?$_Tree_simple_types@U?$pair@$$CBIUPTR@cGlumShapeBase@Glumer@@@std@@@std@@@std@@@1@AAU?$pair@$$CBIUPTR@cGlumShapeBase@Glumer@@@1@PAU?$_Tree_node@U?$pair@$$CBIUPTR@cGlumShapeBase@Glumer@@@std@@PAX@1@@Z 1003f8c0 f i cGlumShapeFactory.obj
 0002:0000ead0       ??$_Insert_nohint@AAU?$pair@$$CBIUPTR@cGlumShapeBase@Glumer@@@std@@PAU?$_Tree_node@U?$pair@$$CBIUPTR@cGlumShapeBase@Glumer@@@std@@PAX@2@@?$_Tree@V?$_Tmap_traits@IUPTR@cGlumShapeBase@Glumer@@U?$less@I@std@@V?$allocator@U?$pair@$$CBIUPTR@cGlumShapeBase@Glumer@@@std@@@5@$0A@@std@@@std@@IAE?AU?$pair@V?$_Tree_iterator@V?$_Tree_val@U?$_Tree_simple_types@U?$pair@$$CBIUPTR@cGlumShapeBase@Glumer@@@std@@@std@@@std@@@std@@_N@1@_NAAU?$pair@$$CBIUPTR@cGlumShapeBase@Glumer@@@1@PAU?$_Tree_node@U?$pair@$$CBIUPTR@cGlumShapeBase@Glumer@@@std@@PAX@1@@Z 10040ad0 f i cGlumShapeFactory.obj
 0002:0000f0c0       ??$_Kfn@$$CBIUPTR@cGlumShapeBase@Glumer@@@?$_Tmap_traits@IUPTR@cGlumShapeBase@Glumer@@U?$less@I@std@@V?$allocator@U?$pair@$$CBIUPTR@cGlumShapeBase@Glumer@@@std@@@5@$0A@@std@@SAABIABU?$pair@$$CBIUPTR@cGlumShapeBase@Glumer@@@1@@Z 100410c0 f i cGlumShapeFactory.obj
 0002:0000f110       ??$_Lbound@I@?$_Tree@V?$_Tmap_traits@IUPTR@cGlumShapeBase@Glumer@@U?$less@I@std@@V?$allocator@U?$pair@$$CBIUPTR@cGlumShapeBase@Glumer@@@std@@@5@$0A@@std@@@std@@IBEPAU?$_Tree_node@U?$pair@$$CBIUPTR@cGlumShapeBase@Glumer@@@std@@PAX@1@ABI@Z 10041110 f i cGlumShapeFactory.obj
 0002:0000f1e0       ??$_Min_value@I@std@@YAABIABI0@Z 100411e0 f i cGlumShapeFactory.obj
 0002:0000f2a0       ??$_Ptr_move_cat@II@std@@YA?AU_Really_trivial_ptr_iterator_tag@0@ABQAI0@Z 100412a0 f i cGlumShapeFactory.obj
 0002:0000f2f0       ??$_Ptr_move_cat@PAVcObjectBase@Glumer@@PAV12@@std@@YA?AU_Really_trivial_ptr_iterator_tag@0@ABQAPAVcObjectBase@Glumer@@0@Z 100412f0 f i cGlumShapeFactory.obj
 0002:0000f340       ??$_Ptr_move_cat@UPTR@cGlumShape_Console@Glumer@@U123@@std@@YA?AU_Really_trivial_ptr_iterator_tag@0@ABQAUPTR@cGlumShape_Console@Glumer@@0@Z 10041340 f i cGlumShapeFactory.obj
 0002:0000f390       ??$_Ptr_move_cat@UPTR@cGlumShape_RegularPolyhedron@Glumer@@U123@@std@@YA?AU_Really_trivial_ptr_iterator_tag@0@ABQAUPTR@cGlumShape_RegularPolyhedron@Glumer@@0@Z 10041390 f i cGlumShapeFactory.obj
 0002:0000f3e0       ??$_Ptr_move_cat@UPTR@cGlumShape_SwitchGadget@Glumer@@U123@@std@@YA?AU_Really_trivial_ptr_iterator_tag@0@ABQAUPTR@cGlumShape_SwitchGadget@Glumer@@0@Z 100413e0 f i cGlumShapeFactory.obj
 0002:0000f430       ??$_Ptr_move_cat@UPTR@cMovementBase@Glumer@@U123@@std@@YA?AU_Really_trivial_ptr_iterator_tag@0@ABQAUPTR@cMovementBase@Glumer@@0@Z 10041430 f i cGlumShapeFactory.obj
 0002:0000f480       ??$_Ptr_move_cat@UPTR@cMovement_Camera@Glumer@@U123@@std@@YA?AU_Really_trivial_ptr_iterator_tag@0@ABQAUPTR@cMovement_Camera@Glumer@@0@Z 10041480 f i cGlumShapeFactory.obj
 0002:0000f4d0       ??$_Ptr_move_cat@UPTR@cObjectMoveableBase@Glumer@@U123@@std@@YA?AU_Really_trivial_ptr_iterator_tag@0@ABQAUPTR@cObjectMoveableBase@Glumer@@0@Z 100414d0 f i cGlumShapeFactory.obj
 0002:0000f520       ??$_Seek_wrapped@I@std@@YAXAAPAIQAI@Z 10041520 f i cGlumShapeFactory.obj
 0002:0000f580       ??$_Seek_wrapped@PAVcObjectBase@Glumer@@@std@@YAXAAPAPAVcObjectBase@Glumer@@QAPAV12@@Z 10041580 f i cGlumShapeFactory.obj
 0002:0000f5e0       ??$_Seek_wrapped@UPTR@cGlumShape_Console@Glumer@@@std@@YAXAAPAUPTR@cGlumShape_Console@Glumer@@QAU123@@Z 100415e0 f i cGlumShapeFactory.obj
 0002:0000f640       ??$_Seek_wrapped@UPTR@cGlumShape_RegularPolyhedron@Glumer@@@std@@YAXAAPAUPTR@cGlumShape_RegularPolyhedron@Glumer@@QAU123@@Z 10041640 f i cGlumShapeFactory.obj
 0002:0000f6a0       ??$_Seek_wrapped@UPTR@cGlumShape_SwitchGadget@Glumer@@@std@@YAXAAPAUPTR@cGlumShape_SwitchGadget@Glumer@@QAU123@@Z 100416a0 f i cGlumShapeFactory.obj
 0002:0000f700       ??$_Seek_wrapped@UPTR@cMovementBase@Glumer@@@std@@YAXAAPAUPTR@cMovementBase@Glumer@@QAU123@@Z 10041700 f i cGlumShapeFactory.obj
 0002:0000f760       ??$_Seek_wrapped@UPTR@cMovement_Camera@Glumer@@@std@@YAXAAPAUPTR@cMovement_Camera@Glumer@@QAU123@@Z 10041760 f i cGlumShapeFactory.obj
 0002:0000f7c0       ??$_Seek_wrapped@UPTR@cObjectMoveableBase@Glumer@@@std@@YAXAAPAUPTR@cObjectMoveableBase@Glumer@@QAU123@@Z 100417c0 f i cGlumShapeFactory.obj
 0002:0000f820       ??$_Seek_wrapped@V?$_Vector_iterator@V?$_Vector_val@U?$_Simple_types@UPTR@cMovement_Camera@Glumer@@@std@@@std@@@std@@PAUPTR@cMovement_Camera@Glumer@@$0A@@std@@YAXAAV?$_Vector_iterator@V?$_Vector_val@U?$_Simple_types@UPTR@cMovement_Camera@Glumer@@@std@@@std@@@0@ABQAUPTR@cMovement_Camera@Glumer@@@Z 10041820 f i cGlumShapeFactory.obj
 0002:0000f880       ??$_Try_emplace@ABI$$V@?$map@IUPTR@cGlumShapeBase@Glumer@@U?$less@I@std@@V?$allocator@U?$pair@$$CBIUPTR@cGlumShapeBase@Glumer@@@std@@@5@@std@@QAE?AU?$pair@V?$_Tree_iterator@V?$_Tree_val@U?$_Tree_simple_types@U?$pair@$$CBIUPTR@cGlumShapeBase@Glumer@@@std@@@std@@@std@@@std@@_N@1@ABI@Z 10041880 f i cGlumShapeFactory.obj
 0002:0000fbb0       ??$_Try_emplace@I$$V@?$map@IUPTR@cGlumShapeBase@Glumer@@U?$less@I@std@@V?$allocator@U?$pair@$$CBIUPTR@cGlumShapeBase@Glumer@@@std@@@5@@std@@QAE?AU?$pair@V?$_Tree_iterator@V?$_Tree_val@U?$_Tree_simple_types@U?$pair@$$CBIUPTR@cGlumShapeBase@Glumer@@@std@@@std@@@std@@@std@@_N@1@$$QAI@Z 10041bb0 f i cGlumShapeFactory.obj
 0002:0000fee0       ??$_Unfancy@I@std@@YAPAIPAI@Z 10041ee0 f i cGlumShapeFactory.obj
 0002:0000ff30       ??$_Unfancy@PAVcObjectBase@Glumer@@@std@@YAPAPAVcObjectBase@Glumer@@PAPAV12@@Z 10041f30 f i cGlumShapeFactory.obj
 0002:0000ff80       ??$_Unfancy@UPTR@cGlumShape_Console@Glumer@@@std@@YAPAUPTR@cGlumShape_Console@Glumer@@PAU123@@Z 10041f80 f i cGlumShapeFactory.obj
 0002:0000ffd0       ??$_Unfancy@UPTR@cGlumShape_RegularPolyhedron@Glumer@@@std@@YAPAUPTR@cGlumShape_RegularPolyhedron@Glumer@@PAU123@@Z 10041fd0 f i cGlumShapeFactory.obj
 0002:00010020       ??$_Unfancy@UPTR@cGlumShape_SwitchGadget@Glumer@@@std@@YAPAUPTR@cGlumShape_SwitchGadget@Glumer@@PAU123@@Z 10042020 f i cGlumShapeFactory.obj
 0002:00010070       ??$_Unfancy@UPTR@cMovementBase@Glumer@@@std@@YAPAUPTR@cMovementBase@Glumer@@PAU123@@Z 10042070 f i cGlumShapeFactory.obj
 0002:000100c0       ??$_Unfancy@UPTR@cMovement_Camera@Glumer@@@std@@YAPAUPTR@cMovement_Camera@Glumer@@PAU123@@Z 100420c0 f i cGlumShapeFactory.obj
 0002:00010110       ??$_Unfancy@UPTR@cObjectMoveableBase@Glumer@@@std@@YAPAUPTR@cObjectMoveableBase@Glumer@@PAU123@@Z 10042110 f i cGlumShapeFactory.obj
 0002:00010160       ??$_Unfancy@U_Container_proxy@std@@@std@@YAPAU_Container_proxy@0@PAU10@@Z 10042160 f i cGlumShapeFactory.obj
 0002:000101b0       ??$_Uninitialized_move@PAIPAIV?$allocator@I@std@@@std@@YAPAIQAI0PAIAAV?$allocator@I@0@@Z 100421b0 f i cGlumShapeFactory.obj
 0002:00010310       ??$_Uninitialized_move@PAPAVcObjectBase@Glumer@@PAPAV12@V?$allocator@PAVcObjectBase@Glumer@@@std@@@std@@YAPAPAVcObjectBase@Glumer@@QAPAV12@0PAPAV12@AAV?$allocator@PAVcObjectBase@Glumer@@@0@@Z 10042310 f i cGlumShapeFactory.obj
 0002:00010470       ??$_Uninitialized_move@PAUPTR@cGlumShape_Console@Glumer@@PAU123@V?$allocator@UPTR@cGlumShape_Console@Glumer@@@std@@@std@@YAPAUPTR@cGlumShape_Console@Glumer@@QAU123@0PAU123@AAV?$allocator@UPTR@cGlumShape_Console@Glumer@@@0@@Z 10042470 f i cGlumShapeFactory.obj
 0002:000105d0       ??$_Uninitialized_move@PAUPTR@cGlumShape_RegularPolyhedron@Glumer@@PAU123@V?$allocator@UPTR@cGlumShape_RegularPolyhedron@Glumer@@@std@@@std@@YAPAUPTR@cGlumShape_RegularPolyhedron@Glumer@@QAU123@0PAU123@AAV?$allocator@UPTR@cGlumShape_RegularPolyhedron@Glumer@@@0@@Z 100425d0 f i cGlumShapeFactory.obj
 0002:00010730       ??$_Uninitialized_move@PAUPTR@cGlumShape_SwitchGadget@Glumer@@PAU123@V?$allocator@UPTR@cGlumShape_SwitchGadget@Glumer@@@std@@@std@@YAPAUPTR@cGlumShape_SwitchGadget@Glumer@@QAU123@0PAU123@AAV?$allocator@UPTR@cGlumShape_SwitchGadget@Glumer@@@0@@Z 10042730 f i cGlumShapeFactory.obj
 0002:00010890       ??$_Uninitialized_move@PAUPTR@cMovementBase@Glumer@@PAU123@V?$allocator@UPTR@cMovementBase@Glumer@@@std@@@std@@YAPAUPTR@cMovementBase@Glumer@@QAU123@0PAU123@AAV?$allocator@UPTR@cMovementBase@Glumer@@@0@@Z 10042890 f i cGlumShapeFactory.obj
 0002:000109f0       ??$_Uninitialized_move@PAUPTR@cMovement_Camera@Glumer@@PAU123@V?$allocator@UPTR@cMovement_Camera@Glumer@@@std@@@std@@YAPAUPTR@cMovement_Camera@Glumer@@QAU123@0PAU123@AAV?$allocator@UPTR@cMovement_Camera@Glumer@@@0@@Z 100429f0 f i cGlumShapeFactory.obj
 0002:00010b50       ??$_Uninitialized_move@PAUPTR@cObjectMoveableBase@Glumer@@PAU123@V?$allocator@UPTR@cObjectMoveableBase@Glumer@@@std@@@std@@YAPAUPTR@cObjectMoveableBase@Glumer@@QAU123@0PAU123@AAV?$allocator@UPTR@cObjectMoveableBase@Glumer@@@0@@Z 10042b50 f i cGlumShapeFactory.obj
 0002:00010cb0       ??$_Uninitialized_move_al_unchecked@IIV?$allocator@I@std@@@std@@YAPAIQAI00AAV?$allocator@I@0@U_Really_trivial_ptr_iterator_tag@0@U?$integral_constant@_N$00@0@@Z 10042cb0 f i cGlumShapeFactory.obj
 0002:00010d20       ??$_Uninitialized_move_al_unchecked@PAVcObjectBase@Glumer@@PAV12@V?$allocator@PAVcObjectBase@Glumer@@@std@@@std@@YAPAPAVcObjectBase@Glumer@@QAPAV12@00AAV?$allocator@PAVcObjectBase@Glumer@@@0@U_Really_trivial_ptr_iterator_tag@0@U?$integral_constant@_N$00@0@@Z 10042d20 f i cGlumShapeFactory.obj
 0002:00010d90       ??$_Uninitialized_move_al_unchecked@UPTR@cGlumShape_Console@Glumer@@U123@V?$allocator@UPTR@cGlumShape_Console@Glumer@@@std@@@std@@YAPAUPTR@cGlumShape_Console@Glumer@@QAU123@00AAV?$allocator@UPTR@cGlumShape_Console@Glumer@@@0@U_Really_trivial_ptr_iterator_tag@0@U?$integral_constant@_N$00@0@@Z 10042d90 f i cGlumShapeFactory.obj
 0002:00010e00       ??$_Uninitialized_move_al_unchecked@UPTR@cGlumShape_RegularPolyhedron@Glumer@@U123@V?$allocator@UPTR@cGlumShape_RegularPolyhedron@Glumer@@@std@@@std@@YAPAUPTR@cGlumShape_RegularPolyhedron@Glumer@@QAU123@00AAV?$allocator@UPTR@cGlumShape_RegularPolyhedron@Glumer@@@0@U_Really_trivial_ptr_iterator_tag@0@U?$integral_constant@_N$00@0@@Z 10042e00 f i cGlumShapeFactory.obj
 0002:00010e70       ??$_Uninitialized_move_al_unchecked@UPTR@cGlumShape_SwitchGadget@Glumer@@U123@V?$allocator@UPTR@cGlumShape_SwitchGadget@Glumer@@@std@@@std@@YAPAUPTR@cGlumShape_SwitchGadget@Glumer@@QAU123@00AAV?$allocator@UPTR@cGlumShape_SwitchGadget@Glumer@@@0@U_Really_trivial_ptr_iterator_tag@0@U?$integral_constant@_N$00@0@@Z 10042e70 f i cGlumShapeFactory.obj
 0002:00010ee0       ??$_Uninitialized_move_al_unchecked@UPTR@cMovementBase@Glumer@@U123@V?$allocator@UPTR@cMovementBase@Glumer@@@std@@@std@@YAPAUPTR@cMovementBase@Glumer@@QAU123@00AAV?$allocator@UPTR@cMovementBase@Glumer@@@0@U_Really_trivial_ptr_iterator_tag@0@U?$integral_constant@_N$00@0@@Z 10042ee0 f i cGlumShapeFactory.obj
 0002:00010f50       ??$_Uninitialized_move_al_unchecked@UPTR@cMovement_Camera@Glumer@@U123@V?$allocator@UPTR@cMovement_Camera@Glumer@@@std@@@std@@YAPAUPTR@cMovement_Camera@Glumer@@QAU123@00AAV?$allocator@UPTR@cMovement_Camera@Glumer@@@0@U_Really_trivial_ptr_iterator_tag@0@U?$integral_constant@_N$00@0@@Z 10042f50 f i cGlumShapeFactory.obj
 0002:00010fc0       ??$_Uninitialized_move_al_unchecked@UPTR@cObjectMoveableBase@Glumer@@U123@V?$allocator@UPTR@cObjectMoveableBase@Glumer@@@std@@@std@@YAPAUPTR@cObjectMoveableBase@Glumer@@QAU123@00AAV?$allocator@UPTR@cObjectMoveableBase@Glumer@@@0@U_Really_trivial_ptr_iterator_tag@0@U?$integral_constant@_N$00@0@@Z 10042fc0 f i cGlumShapeFactory.obj
 0002:00011030       ??$addressof@PAU?$_Tree_node@U?$pair@$$CBIUPTR@cGlumShapeBase@Glumer@@@std@@PAX@std@@@std@@YAPAPAU?$_Tree_node@U?$pair@$$CBIUPTR@cGlumShapeBase@Glumer@@@std@@PAX@0@AAPAU10@@Z 10043030 f i cGlumShapeFactory.obj
 0002:000110c0       ??$addressof@U?$pair@$$CBIUPTR@cGlumShapeBase@Glumer@@@std@@@std@@YAPAU?$pair@$$CBIUPTR@cGlumShapeBase@Glumer@@@0@AAU10@@Z 100430c0 f i cGlumShapeFactory.obj
 0002:00011150       ??$addressof@V?$_Tree_val@U?$_Tree_simple_types@U?$pair@$$CBIUPTR@cGlumShapeBase@Glumer@@@std@@@std@@@std@@@std@@YAPAV?$_Tree_val@U?$_Tree_simple_types@U?$pair@$$CBIUPTR@cGlumShapeBase@Glumer@@@std@@@std@@@0@AAV10@@Z 10043150 f i cGlumShapeFactory.obj
 0002:000111e0       ??$addressof@V?$_Vector_val@U?$_Simple_types@I@std@@@std@@@std@@YAPAV?$_Vector_val@U?$_Simple_types@I@std@@@0@AAV10@@Z 100431e0 f i cGlumShapeFactory.obj
 0002:00011270       ??$addressof@V?$_Vector_val@U?$_Simple_types@PAVcObjectBase@Glumer@@@std@@@std@@@std@@YAPAV?$_Vector_val@U?$_Simple_types@PAVcObjectBase@Glumer@@@std@@@0@AAV10@@Z 10043270 f i cGlumShapeFactory.obj
 0002:00011300       ??$addressof@V?$_Vector_val@U?$_Simple_types@UPTR@cGlumShape_Console@Glumer@@@std@@@std@@@std@@YAPAV?$_Vector_val@U?$_Simple_types@UPTR@cGlumShape_Console@Glumer@@@std@@@0@AAV10@@Z 10043300 f i cGlumShapeFactory.obj
 0002:00011390       ??$addressof@V?$_Vector_val@U?$_Simple_types@UPTR@cGlumShape_RegularPolyhedron@Glumer@@@std@@@std@@@std@@YAPAV?$_Vector_val@U?$_Simple_types@UPTR@cGlumShape_RegularPolyhedron@Glumer@@@std@@@0@AAV10@@Z 10043390 f i cGlumShapeFactory.obj
 0002:00011420       ??$addressof@V?$_Vector_val@U?$_Simple_types@UPTR@cGlumShape_SwitchGadget@Glumer@@@std@@@std@@@std@@YAPAV?$_Vector_val@U?$_Simple_types@UPTR@cGlumShape_SwitchGadget@Glumer@@@std@@@0@AAV10@@Z 10043420 f i cGlumShapeFactory.obj
 0002:000114b0       ??$addressof@V?$_Vector_val@U?$_Simple_types@UPTR@cMovement_Camera@Glumer@@@std@@@std@@@std@@YAPAV?$_Vector_val@U?$_Simple_types@UPTR@cMovement_Camera@Glumer@@@std@@@0@AAV10@@Z 100434b0 f i cGlumShapeFactory.obj
 0002:00011540       ??$addressof@V?$_Vector_val@U?$_Simple_types@UPTR@cObjectMoveableBase@Glumer@@@std@@@std@@@std@@YAPAV?$_Vector_val@U?$_Simple_types@UPTR@cObjectMoveableBase@Glumer@@@std@@@0@AAV10@@Z 10043540 f i cGlumShapeFactory.obj
 0002:000115d0       ??$construct@IABI@?$_Default_allocator_traits@V?$allocator@I@std@@@std@@SAXAAV?$allocator@I@1@QAIABI@Z 100435d0 f i cGlumShapeFactory.obj
 0002:00011650       ??$construct@II@?$_Default_allocator_traits@V?$allocator@I@std@@@std@@SAXAAV?$allocator@I@1@QAI$$QAI@Z 10043650 f i cGlumShapeFactory.obj
 0002:000116d0       ??$construct@PAU?$_Tree_node@U?$pair@$$CBIUPTR@cGlumShapeBase@Glumer@@@std@@PAX@std@@AAPAU12@@?$_Default_allocator_traits@V?$allocator@U?$_Tree_node@U?$pair@$$CBIUPTR@cGlumShapeBase@Glumer@@@std@@PAX@std@@@std@@@std@@SAXAAV?$allocator@U?$_Tree_node@U?$pair@$$CBIUPTR@cGlumShapeBase@Glumer@@@std@@PAX@std@@@1@QAPAU?$_Tree_node@U?$pair@$$CBIUPTR@cGlumShapeBase@Glumer@@@std@@PAX@1@AAPAU31@@Z 100436d0 f i cGlumShapeFactory.obj
 0002:00011750       ??$construct@PAVcObjectBase@Glumer@@ABQAV12@@?$_Default_allocator_traits@V?$allocator@PAVcObjectBase@Glumer@@@std@@@std@@SAXAAV?$allocator@PAVcObjectBase@Glumer@@@1@QAPAVcObjectBase@Glumer@@ABQAV34@@Z 10043750 f i cGlumShapeFactory.obj
 0002:000117d0       ??$construct@U?$pair@$$CBIUPTR@cGlumShapeBase@Glumer@@@std@@ABUpiecewise_construct_t@2@V?$tuple@$$QAI@2@V?$tuple@$$V@2@@?$_Default_allocator_traits@V?$allocator@U?$_Tree_node@U?$pair@$$CBIUPTR@cGlumShapeBase@Glumer@@@std@@PAX@std@@@std@@@std@@SAXAAV?$allocator@U?$_Tree_node@U?$pair@$$CBIUPTR@cGlumShapeBase@Glumer@@@std@@PAX@std@@@1@QAU?$pair@$$CBIUPTR@cGlumShapeBase@Glumer@@@1@ABUpiecewise_construct_t@1@$$QAV?$tuple@$$QAI@1@$$QAV?$tuple@$$V@1@@Z 100437d0 f i cGlumShapeFactory.obj
 0002:000118a0       ??$construct@U?$pair@$$CBIUPTR@cGlumShapeBase@Glumer@@@std@@ABUpiecewise_construct_t@2@V?$tuple@ABI@2@V?$tuple@$$V@2@@?$_Default_allocator_traits@V?$allocator@U?$_Tree_node@U?$pair@$$CBIUPTR@cGlumShapeBase@Glumer@@@std@@PAX@std@@@std@@@std@@SAXAAV?$allocator@U?$_Tree_node@U?$pair@$$CBIUPTR@cGlumShapeBase@Glumer@@@std@@PAX@std@@@1@QAU?$pair@$$CBIUPTR@cGlumShapeBase@Glumer@@@1@ABUpiecewise_construct_t@1@$$QAV?$tuple@ABI@1@$$QAV?$tuple@$$V@1@@Z 100438a0 f i cGlumShapeFactory.obj
 0002:00011970       ??$construct@UPTR@cGlumShape_Console@Glumer@@ABU123@@?$_Default_allocator_traits@V?$allocator@UPTR@cGlumShape_Console@Glumer@@@std@@@std@@SAXAAV?$allocator@UPTR@cGlumShape_Console@Glumer@@@1@QAUPTR@cGlumShape_Console@Glumer@@ABU345@@Z 10043970 f i cGlumShapeFactory.obj
 0002:000119f0       ??$construct@UPTR@cGlumShape_RegularPolyhedron@Glumer@@ABU123@@?$_Default_allocator_traits@V?$allocator@UPTR@cGlumShape_RegularPolyhedron@Glumer@@@std@@@std@@SAXAAV?$allocator@UPTR@cGlumShape_RegularPolyhedron@Glumer@@@1@QAUPTR@cGlumShape_RegularPolyhedron@Glumer@@ABU345@@Z 100439f0 f i cGlumShapeFactory.obj
 0002:00011a70       ??$construct@UPTR@cGlumShape_SwitchGadget@Glumer@@ABU123@@?$_Default_allocator_traits@V?$allocator@UPTR@cGlumShape_SwitchGadget@Glumer@@@std@@@std@@SAXAAV?$allocator@UPTR@cGlumShape_SwitchGadget@Glumer@@@1@QAUPTR@cGlumShape_SwitchGadget@Glumer@@ABU345@@Z 10043a70 f i cGlumShapeFactory.obj
 0002:00011af0       ??$construct@UPTR@cMovementBase@Glumer@@ABU123@@?$_Default_allocator_traits@V?$allocator@UPTR@cMovementBase@Glumer@@@std@@@std@@SAXAAV?$allocator@UPTR@cMovementBase@Glumer@@@1@QAUPTR@cMovementBase@Glumer@@ABU345@@Z 10043af0 f i cGlumShapeFactory.obj
 0002:00011b70       ??$construct@UPTR@cMovement_Camera@Glumer@@ABU123@@?$_Default_allocator_traits@V?$allocator@UPTR@cMovement_Camera@Glumer@@@std@@@std@@SAXAAV?$allocator@UPTR@cMovement_Camera@Glumer@@@1@QAUPTR@cMovement_Camera@Glumer@@ABU345@@Z 10043b70 f i cGlumShapeFactory.obj
 0002:00011bf0       ??$construct@UPTR@cObjectMoveableBase@Glumer@@ABU123@@?$_Default_allocator_traits@V?$allocator@UPTR@cObjectMoveableBase@Glumer@@@std@@@std@@SAXAAV?$allocator@UPTR@cObjectMoveableBase@Glumer@@@1@QAUPTR@cObjectMoveableBase@Glumer@@ABU345@@Z 10043bf0 f i cGlumShapeFactory.obj
 0002:00011c70       ??$construct@U_Container_proxy@std@@U12@@?$_Default_allocator_traits@V?$allocator@U_Container_proxy@std@@@std@@@std@@SAXAAV?$allocator@U_Container_proxy@std@@@1@QAU_Container_proxy@1@$$QAU31@@Z 10043c70 f i cGlumShapeFactory.obj
 0002:00011d00       ??$destroy@PAU?$_Tree_node@U?$pair@$$CBIUPTR@cGlumShapeBase@Glumer@@@std@@PAX@std@@@?$_Default_allocator_traits@V?$allocator@U?$_Tree_node@U?$pair@$$CBIUPTR@cGlumShapeBase@Glumer@@@std@@PAX@std@@@std@@@std@@SAXAAV?$allocator@U?$_Tree_node@U?$pair@$$CBIUPTR@cGlumShapeBase@Glumer@@@std@@PAX@std@@@1@QAPAU?$_Tree_node@U?$pair@$$CBIUPTR@cGlumShapeBase@Glumer@@@std@@PAX@1@@Z 10043d00 f i cGlumShapeFactory.obj
 0002:00011d50       ??$destroy@U?$pair@$$CBIUPTR@cGlumShapeBase@Glumer@@@std@@@?$_Default_allocator_traits@V?$allocator@U?$_Tree_node@U?$pair@$$CBIUPTR@cGlumShapeBase@Glumer@@@std@@PAX@std@@@std@@@std@@SAXAAV?$allocator@U?$_Tree_node@U?$pair@$$CBIUPTR@cGlumShapeBase@Glumer@@@std@@PAX@std@@@1@QAU?$pair@$$CBIUPTR@cGlumShapeBase@Glumer@@@1@@Z 10043d50 f i cGlumShapeFactory.obj
 0002:00011da0       ??$destroy@U_Container_proxy@std@@@?$_Default_allocator_traits@V?$allocator@U_Container_proxy@std@@@std@@@std@@SAXAAV?$allocator@U_Container_proxy@std@@@1@QAU_Container_proxy@1@@Z 10043da0 f i cGlumShapeFactory.obj
 0002:00011df0       ??$emplace_back@ABI@?$vector@IV?$allocator@I@std@@@std@@QAE@ABI@Z 10043df0 f i cGlumShapeFactory.obj
 0002:00011ea0       ??$emplace_back@ABQAVcObjectBase@Glumer@@@?$vector@PAVcObjectBase@Glumer@@V?$allocator@PAVcObjectBase@Glumer@@@std@@@std@@QAE@ABQAVcObjectBase@Glumer@@@Z 10043ea0 f i cGlumShapeFactory.obj
 0002:00011f50       ??$emplace_back@ABUPTR@cGlumShape_Console@Glumer@@@?$vector@UPTR@cGlumShape_Console@Glumer@@V?$allocator@UPTR@cGlumShape_Console@Glumer@@@std@@@std@@QAE@ABUPTR@cGlumShape_Console@Glumer@@@Z 10043f50 f i cGlumShapeFactory.obj
 0002:00012000       ??$emplace_back@ABUPTR@cGlumShape_RegularPolyhedron@Glumer@@@?$vector@UPTR@cGlumShape_RegularPolyhedron@Glumer@@V?$allocator@UPTR@cGlumShape_RegularPolyhedron@Glumer@@@std@@@std@@QAE@ABUPTR@cGlumShape_RegularPolyhedron@Glumer@@@Z 10044000 f i cGlumShapeFactory.obj
 0002:000120b0       ??$emplace_back@ABUPTR@cGlumShape_SwitchGadget@Glumer@@@?$vector@UPTR@cGlumShape_SwitchGadget@Glumer@@V?$allocator@UPTR@cGlumShape_SwitchGadget@Glumer@@@std@@@std@@QAE@ABUPTR@cGlumShape_SwitchGadget@Glumer@@@Z 100440b0 f i cGlumShapeFactory.obj
 0002:00012160       ??$emplace_back@ABUPTR@cMovementBase@Glumer@@@?$vector@UPTR@cMovementBase@Glumer@@V?$allocator@UPTR@cMovementBase@Glumer@@@std@@@std@@QAE@ABUPTR@cMovementBase@Glumer@@@Z 10044160 f i cGlumShapeFactory.obj
 0002:00012210       ??$emplace_back@ABUPTR@cMovement_Camera@Glumer@@@?$vector@UPTR@cMovement_Camera@Glumer@@V?$allocator@UPTR@cMovement_Camera@Glumer@@@std@@@std@@QAE@ABUPTR@cMovement_Camera@Glumer@@@Z 10044210 f i cGlumShapeFactory.obj
 0002:000122c0       ??$emplace_back@ABUPTR@cObjectMoveableBase@Glumer@@@?$vector@UPTR@cObjectMoveableBase@Glumer@@V?$allocator@UPTR@cObjectMoveableBase@Glumer@@@std@@@std@@QAE@ABUPTR@cObjectMoveableBase@Glumer@@@Z 100442c0 f i cGlumShapeFactory.obj
 0002:00012370       ??$emplace_back@I@?$vector@IV?$allocator@I@std@@@std@@QAE@$$QAI@Z 10044370 f i cGlumShapeFactory.obj
 0002:00012420       ??$emplace_hint@ABUpiecewise_construct_t@std@@V?$tuple@$$QAI@2@V?$tuple@$$V@2@@?$_Tree@V?$_Tmap_traits@IUPTR@cGlumShapeBase@Glumer@@U?$less@I@std@@V?$allocator@U?$pair@$$CBIUPTR@cGlumShapeBase@Glumer@@@std@@@5@$0A@@std@@@std@@QAE?AV?$_Tree_iterator@V?$_Tree_val@U?$_Tree_simple_types@U?$pair@$$CBIUPTR@cGlumShapeBase@Glumer@@@std@@@std@@@std@@@1@V?$_Tree_const_iterator@V?$_Tree_val@U?$_Tree_simple_types@U?$pair@$$CBIUPTR@cGlumShapeBase@Glumer@@@std@@@std@@@std@@@1@ABUpiecewise_construct_t@1@$$QAV?$tuple@$$QAI@1@$$QAV?$tuple@$$V@1@@Z 10044420 f i cGlumShapeFactory.obj
 0002:00012570       ??$emplace_hint@ABUpiecewise_construct_t@std@@V?$tuple@ABI@2@V?$tuple@$$V@2@@?$_Tree@V?$_Tmap_traits@IUPTR@cGlumShapeBase@Glumer@@U?$less@I@std@@V?$allocator@U?$pair@$$CBIUPTR@cGlumShapeBase@Glumer@@@std@@@5@$0A@@std@@@std@@QAE?AV?$_Tree_iterator@V?$_Tree_val@U?$_Tree_simple_types@U?$pair@$$CBIUPTR@cGlumShapeBase@Glumer@@@std@@@std@@@std@@@1@V?$_Tree_const_iterator@V?$_Tree_val@U?$_Tree_simple_types@U?$pair@$$CBIUPTR@cGlumShapeBase@Glumer@@@std@@@std@@@std@@@1@ABUpiecewise_construct_t@1@$$QAV?$tuple@ABI@1@$$QAV?$tuple@$$V@1@@Z 10044570 f i cGlumShapeFactory.obj
 0002:000126c0       ??$find@V?$_Vector_iterator@V?$_Vector_val@U?$_Simple_types@UPTR@cMovement_Camera@Glumer@@@std@@@std@@@std@@I@std@@YA?AV?$_Vector_iterator@V?$_Vector_val@U?$_Simple_types@UPTR@cMovement_Camera@Glumer@@@std@@@std@@@0@V10@V10@ABI@Z 100446c0 f i cGlumShapeFactory.obj
 0002:00012800       ??$for_each@V?$_Vector_iterator@V?$_Vector_val@U?$_Simple_types@UPTR@cObjectMoveableBase@Glumer@@@std@@@std@@@std@@P6AXAAUPTR@cObjectMoveableBase@Glumer@@@Z@std@@YAP6AXAAUPTR@cObjectMoveableBase@Glumer@@@ZV?$_Vector_iterator@V?$_Vector_val@U?$_Simple_types@UPTR@cObjectMoveableBase@Glumer@@@std@@@std@@@0@1P6AX0@Z@Z 10044800 f i cGlumShapeFactory.obj
 0002:00012930       ??$forward@$$QAI@std@@YA$$QAIAAI@Z 10044930 f i cGlumShapeFactory.obj
 0002:000129c0       ??$forward@AAPAU?$_Tree_node@U?$pair@$$CBIUPTR@cGlumShapeBase@Glumer@@@std@@PAX@std@@@std@@YAAAPAU?$_Tree_node@U?$pair@$$CBIUPTR@cGlumShapeBase@Glumer@@@std@@PAX@0@AAPAU10@@Z 100449c0 f i cGlumShapeFactory.obj
 0002:00012a50       ??$forward@AAU?$pair@$$CBIUPTR@cGlumShapeBase@Glumer@@@std@@@std@@YAAAU?$pair@$$CBIUPTR@cGlumShapeBase@Glumer@@@0@AAU10@@Z 10044a50 f i cGlumShapeFactory.obj
 0002:00012ae0       ??$forward@AAV?$_Tree_iterator@V?$_Tree_val@U?$_Tree_simple_types@U?$pair@$$CBIUPTR@cGlumShapeBase@Glumer@@@std@@@std@@@std@@@std@@@std@@YAAAV?$_Tree_iterator@V?$_Tree_val@U?$_Tree_simple_types@U?$pair@$$CBIUPTR@cGlumShapeBase@Glumer@@@std@@@std@@@std@@@0@AAV10@@Z 10044ae0 f i cGlumShapeFactory.obj
 0002:00012b70       ??$forward@ABI@std@@YAABIABI@Z 10044b70 f i cGlumShapeFactory.obj
 0002:00012c00       ??$forward@ABQAVcObjectBase@Glumer@@@std@@YAABQAVcObjectBase@Glumer@@ABQAV12@@Z 10044c00 f i cGlumShapeFactory.obj
 0002:00012c90       ??$forward@ABU?$less@I@std@@@std@@YAABU?$less@I@0@ABU10@@Z 10044c90 f i cGlumShapeFactory.obj
 0002:00012d20       ??$forward@ABUPTR@cGlumShape_Console@Glumer@@@std@@YAABUPTR@cGlumShape_Console@Glumer@@ABU123@@Z 10044d20 f i cGlumShapeFactory.obj
 0002:00012db0       ??$forward@ABUPTR@cGlumShape_RegularPolyhedron@Glumer@@@std@@YAABUPTR@cGlumShape_RegularPolyhedron@Glumer@@ABU123@@Z 10044db0 f i cGlumShapeFactory.obj
 0002:00012e40       ??$forward@ABUPTR@cGlumShape_SwitchGadget@Glumer@@@std@@YAABUPTR@cGlumShape_SwitchGadget@Glumer@@ABU123@@Z 10044e40 f i cGlumShapeFactory.obj
 0002:00012ed0       ??$forward@ABUPTR@cMovementBase@Glumer@@@std@@YAABUPTR@cMovementBase@Glumer@@ABU123@@Z 10044ed0 f i cGlumShapeFactory.obj
 0002:00012f60       ??$forward@ABUPTR@cMovement_Camera@Glumer@@@std@@YAABUPTR@cMovement_Camera@Glumer@@ABU123@@Z 10044f60 f i cGlumShapeFactory.obj
 0002:00012ff0       ??$forward@ABUPTR@cObjectMoveableBase@Glumer@@@std@@YAABUPTR@cObjectMoveableBase@Glumer@@ABU123@@Z 10044ff0 f i cGlumShapeFactory.obj
 0002:00013080       ??$forward@ABUpiecewise_construct_t@std@@@std@@YAABUpiecewise_construct_t@0@ABU10@@Z 10045080 f i cGlumShapeFactory.obj
 0002:00013110       ??$forward@I@std@@YA$$QAIAAI@Z 10045110 f i cGlumShapeFactory.obj
 0002:000131a0       ??$forward@U_Container_proxy@std@@@std@@YA$$QAU_Container_proxy@0@AAU10@@Z 100451a0 f i cGlumShapeFactory.obj
 0002:00013230       ??$forward@U_Zero_then_variadic_args_t@std@@@std@@YA$$QAU_Zero_then_variadic_args_t@0@AAU10@@Z 10045230 f i cGlumShapeFactory.obj
 0002:000132c0       ??$forward@V?$_Tree_iterator@V?$_Tree_val@U?$_Tree_simple_types@U?$pair@$$CBIUPTR@cGlumShapeBase@Glumer@@@std@@@std@@@std@@@std@@@std@@YA$$QAV?$_Tree_iterator@V?$_Tree_val@U?$_Tree_simple_types@U?$pair@$$CBIUPTR@cGlumShapeBase@Glumer@@@std@@@std@@@std@@@0@AAV10@@Z 100452c0 f i cGlumShapeFactory.obj
 0002:00013350       ??$forward@V?$tuple@$$QAI@std@@@std@@YA$$QAV?$tuple@$$QAI@0@AAV10@@Z 10045350 f i cGlumShapeFactory.obj
 0002:000133e0       ??$forward@V?$tuple@$$V@std@@@std@@YA$$QAV?$tuple@$$V@0@AAV10@@Z 100453e0 f i cGlumShapeFactory.obj
 0002:00013470       ??$forward@V?$tuple@ABI@std@@@std@@YA$$QAV?$tuple@ABI@0@AAV10@@Z 10045470 f i cGlumShapeFactory.obj
 0002:00013500       ??$forward@_N@std@@YA$$QA_NAA_N@Z 10045500 f i cGlumShapeFactory.obj
 0002:00013590       ??$forward_as_tuple@$$V@std@@YA?AV?$tuple@$$V@0@XZ 10045590 f i cGlumShapeFactory.obj
 0002:00013620       ??$forward_as_tuple@ABI@std@@YA?AV?$tuple@ABI@0@ABI@Z 10045620 f i cGlumShapeFactory.obj
 0002:000136c0       ??$forward_as_tuple@I@std@@YA?AV?$tuple@$$QAI@0@$$QAI@Z 100456c0 f i cGlumShapeFactory.obj
 0002:00013760       ??$get@$0A@$$QAI@std@@YA$$QAI$$QAV?$tuple@$$QAI@0@@Z 10045760 f i cGlumShapeFactory.obj
 0002:00013800       ??$get@$0A@ABI@std@@YAABI$$QAV?$tuple@ABI@0@@Z 10045800 f i cGlumShapeFactory.obj
 0002:000138a0       ??$move@AAD@std@@YA$$QADAAD@Z 100458a0 f i cGlumShapeFactory.obj
 0002:00013930       ??$move@AAI@std@@YA$$QAIAAI@Z 10045930 f i cGlumShapeFactory.obj
 0002:000139c0       ??$move@AAV?$tuple@$$QAI@std@@@std@@YA$$QAV?$tuple@$$QAI@0@AAV10@@Z 100459c0 f i cGlumShapeFactory.obj
 0002:00013a50       ??$move@AAV?$tuple@ABI@std@@@std@@YA$$QAV?$tuple@ABI@0@AAV10@@Z 10045a50 f i cGlumShapeFactory.obj
 0002:00013ae0       ??$swap@DX@std@@YAXAAD0@Z  10045ae0 f i cGlumShapeFactory.obj
 0002:00013be0       ??$try_emplace@$$V@?$map@IUPTR@cGlumShapeBase@Glumer@@U?$less@I@std@@V?$allocator@U?$pair@$$CBIUPTR@cGlumShapeBase@Glumer@@@std@@@5@@std@@QAE?AU?$pair@V?$_Tree_iterator@V?$_Tree_val@U?$_Tree_simple_types@U?$pair@$$CBIUPTR@cGlumShapeBase@Glumer@@@std@@@std@@@std@@@std@@_N@1@$$QAI@Z 10045be0 f i cGlumShapeFactory.obj
 0002:00013c80       ??$try_emplace@$$V@?$map@IUPTR@cGlumShapeBase@Glumer@@U?$less@I@std@@V?$allocator@U?$pair@$$CBIUPTR@cGlumShapeBase@Glumer@@@std@@@5@@std@@QAE?AU?$pair@V?$_Tree_iterator@V?$_Tree_val@U?$_Tree_simple_types@U?$pair@$$CBIUPTR@cGlumShapeBase@Glumer@@@std@@@std@@@std@@@std@@_N@1@ABI@Z 10045c80 f i cGlumShapeFactory.obj
 0002:00013d10       ??0?$_Tree@V?$_Tmap_traits@IUPTR@cGlumShapeBase@Glumer@@U?$less@I@std@@V?$allocator@U?$pair@$$CBIUPTR@cGlumShapeBase@Glumer@@@std@@@5@$0A@@std@@@std@@QAE@ABU?$less@I@1@@Z 10045d10 f i cGlumShapeFactory.obj
 0002:00013d80       ??0?$_Tree_comp_alloc@V?$_Tmap_traits@IUPTR@cGlumShapeBase@Glumer@@U?$less@I@std@@V?$allocator@U?$pair@$$CBIUPTR@cGlumShapeBase@Glumer@@@std@@@5@$0A@@std@@@std@@QAE@ABU?$less@I@1@@Z 10045d80 f i cGlumShapeFactory.obj
 0002:00013e10       ??0?$_Tree_const_iterator@V?$_Tree_val@U?$_Tree_simple_types@U?$pair@$$CBIUPTR@cGlumShapeBase@Glumer@@@std@@@std@@@std@@@std@@QAE@$$QAV01@@Z 10045e10 f i cGlumShapeFactory.obj
 0002:00013e70       ??0?$_Tree_const_iterator@V?$_Tree_val@U?$_Tree_simple_types@U?$pair@$$CBIUPTR@cGlumShapeBase@Glumer@@@std@@@std@@@std@@@std@@QAE@ABV01@@Z 10045e70 f i cGlumShapeFactory.obj
 0002:00013ed0       ??0?$_Tree_const_iterator@V?$_Tree_val@U?$_Tree_simple_types@U?$pair@$$CBIUPTR@cGlumShapeBase@Glumer@@@std@@@std@@@std@@@std@@QAE@PAU?$_Tree_node@U?$pair@$$CBIUPTR@cGlumShapeBase@Glumer@@@std@@PAX@1@PBV?$_Tree_val@U?$_Tree_simple_types@U?$pair@$$CBIUPTR@cGlumShapeBase@Glumer@@@std@@@std@@@1@@Z 10045ed0 f i cGlumShapeFactory.obj
 0002:00013f40       ??0?$_Tree_const_iterator@V?$_Tree_val@U?$_Tree_simple_types@U?$pair@$$CBIUPTR@cGlumShapeBase@Glumer@@@std@@@std@@@std@@@std@@QAE@XZ 10045f40 f i cGlumShapeFactory.obj
 0002:00013fa0       ??0?$_Tree_iterator@V?$_Tree_val@U?$_Tree_simple_types@U?$pair@$$CBIUPTR@cGlumShapeBase@Glumer@@@std@@@std@@@std@@@std@@QAE@$$QAV01@@Z 10045fa0 f i cGlumShapeFactory.obj
 0002:00014000       ??0?$_Tree_iterator@V?$_Tree_val@U?$_Tree_simple_types@U?$pair@$$CBIUPTR@cGlumShapeBase@Glumer@@@std@@@std@@@std@@@std@@QAE@ABV01@@Z 10046000 f i cGlumShapeFactory.obj
 0002:00014060       ??0?$_Tree_iterator@V?$_Tree_val@U?$_Tree_simple_types@U?$pair@$$CBIUPTR@cGlumShapeBase@Glumer@@@std@@@std@@@std@@@std@@QAE@PAU?$_Tree_node@U?$pair@$$CBIUPTR@cGlumShapeBase@Glumer@@@std@@PAX@1@PBV?$_Tree_val@U?$_Tree_simple_types@U?$pair@$$CBIUPTR@cGlumShapeBase@Glumer@@@std@@@std@@@1@@Z 10046060 f i cGlumShapeFactory.obj
 0002:000140d0       ??0?$_Tree_unchecked_const_iterator@V?$_Tree_val@U?$_Tree_simple_types@U?$pair@$$CBIUPTR@cGlumShapeBase@Glumer@@@std@@@std@@@std@@U_Iterator_base12@2@@std@@QAE@$$QAV01@@Z 100460d0 f i cGlumShapeFactory.obj
 0002:00014140       ??0?$_Tree_unchecked_const_iterator@V?$_Tree_val@U?$_Tree_simple_types@U?$pair@$$CBIUPTR@cGlumShapeBase@Glumer@@@std@@@std@@@std@@U_Iterator_base12@2@@std@@QAE@ABV01@@Z 10046140 f i cGlumShapeFactory.obj
 0002:000141b0       ??0?$_Tree_unchecked_const_iterator@V?$_Tree_val@U?$_Tree_simple_types@U?$pair@$$CBIUPTR@cGlumShapeBase@Glumer@@@std@@@std@@@std@@U_Iterator_base12@2@@std@@QAE@PAU?$_Tree_node@U?$pair@$$CBIUPTR@cGlumShapeBase@Glumer@@@std@@PAX@1@PBV?$_Tree_val@U?$_Tree_simple_types@U?$pair@$$CBIUPTR@cGlumShapeBase@Glumer@@@std@@@std@@@1@@Z 100461b0 f i cGlumShapeFactory.obj
 0002:00014230       ??0?$_Tree_unchecked_const_iterator@V?$_Tree_val@U?$_Tree_simple_types@U?$pair@$$CBIUPTR@cGlumShapeBase@Glumer@@@std@@@std@@@std@@U_Iterator_base12@2@@std@@QAE@XZ 10046230 f i cGlumShapeFactory.obj
 0002:000142a0       ??0?$_Tree_val@U?$_Tree_simple_types@U?$pair@$$CBIUPTR@cGlumShapeBase@Glumer@@@std@@@std@@@std@@QAE@XZ 100462a0 f i cGlumShapeFactory.obj
 0002:00014320       ??0?$_Vector_alloc@U?$_Vec_base_types@IV?$allocator@I@std@@@std@@@std@@QAE@XZ 10046320 f i cGlumShapeFactory.obj
 0002:000143a0       ??0?$_Vector_alloc@U?$_Vec_base_types@PAVcObjectBase@Glumer@@V?$allocator@PAVcObjectBase@Glumer@@@std@@@std@@@std@@QAE@XZ 100463a0 f i cGlumShapeFactory.obj
 0002:00014420       ??0?$_Vector_alloc@U?$_Vec_base_types@UPTR@cGlumShape_Console@Glumer@@V?$allocator@UPTR@cGlumShape_Console@Glumer@@@std@@@std@@@std@@QAE@XZ 10046420 f i cGlumShapeFactory.obj
 0002:000144a0       ??0?$_Vector_alloc@U?$_Vec_base_types@UPTR@cGlumShape_RegularPolyhedron@Glumer@@V?$allocator@UPTR@cGlumShape_RegularPolyhedron@Glumer@@@std@@@std@@@std@@QAE@XZ 100464a0 f i cGlumShapeFactory.obj
 0002:00014520       ??0?$_Vector_alloc@U?$_Vec_base_types@UPTR@cGlumShape_SwitchGadget@Glumer@@V?$allocator@UPTR@cGlumShape_SwitchGadget@Glumer@@@std@@@std@@@std@@QAE@XZ 10046520 f i cGlumShapeFactory.obj
 0002:000145a0       ??0?$_Vector_alloc@U?$_Vec_base_types@UPTR@cMovement_Camera@Glumer@@V?$allocator@UPTR@cMovement_Camera@Glumer@@@std@@@std@@@std@@QAE@XZ 100465a0 f i cGlumShapeFactory.obj
 0002:00014620       ??0?$_Vector_alloc@U?$_Vec_base_types@UPTR@cObjectMoveableBase@Glumer@@V?$allocator@UPTR@cObjectMoveableBase@Glumer@@@std@@@std@@@std@@QAE@XZ 10046620 f i cGlumShapeFactory.obj
 0002:000146a0       ??0?$_Vector_const_iterator@V?$_Vector_val@U?$_Simple_types@I@std@@@std@@@std@@QAE@$$QAV01@@Z 100466a0 f i cGlumShapeFactory.obj
 0002:00014710       ??0?$_Vector_const_iterator@V?$_Vector_val@U?$_Simple_types@I@std@@@std@@@std@@QAE@ABV01@@Z 10046710 f i cGlumShapeFactory.obj
 0002:00014780       ??0?$_Vector_const_iterator@V?$_Vector_val@U?$_Simple_types@I@std@@@std@@@std@@QAE@PAIPBU_Container_base12@1@@Z 10046780 f i cGlumShapeFactory.obj
 0002:00014800       ??0?$_Vector_const_iterator@V?$_Vector_val@U?$_Simple_types@UPTR@cGlumShape_Console@Glumer@@@std@@@std@@@std@@QAE@$$QAV01@@Z 10046800 f i cGlumShapeFactory.obj
 0002:00014870       ??0?$_Vector_const_iterator@V?$_Vector_val@U?$_Simple_types@UPTR@cGlumShape_Console@Glumer@@@std@@@std@@@std@@QAE@ABV01@@Z 10046870 f i cGlumShapeFactory.obj
 0002:000148e0       ??0?$_Vector_const_iterator@V?$_Vector_val@U?$_Simple_types@UPTR@cGlumShape_Console@Glumer@@@std@@@std@@@std@@QAE@PAUPTR@cGlumShape_Console@Glumer@@PBU_Container_base12@1@@Z 100468e0 f i cGlumShapeFactory.obj
 0002:00014960       ??0?$_Vector_const_iterator@V?$_Vector_val@U?$_Simple_types@UPTR@cGlumShape_RegularPolyhedron@Glumer@@@std@@@std@@@std@@QAE@$$QAV01@@Z 10046960 f i cGlumShapeFactory.obj
 0002:000149d0       ??0?$_Vector_const_iterator@V?$_Vector_val@U?$_Simple_types@UPTR@cGlumShape_RegularPolyhedron@Glumer@@@std@@@std@@@std@@QAE@ABV01@@Z 100469d0 f i cGlumShapeFactory.obj
 0002:00014a40       ??0?$_Vector_const_iterator@V?$_Vector_val@U?$_Simple_types@UPTR@cGlumShape_RegularPolyhedron@Glumer@@@std@@@std@@@std@@QAE@PAUPTR@cGlumShape_RegularPolyhedron@Glumer@@PBU_Container_base12@1@@Z 10046a40 f i cGlumShapeFactory.obj
 0002:00014ac0       ??0?$_Vector_const_iterator@V?$_Vector_val@U?$_Simple_types@UPTR@cGlumShape_SwitchGadget@Glumer@@@std@@@std@@@std@@QAE@$$QAV01@@Z 10046ac0 f i cGlumShapeFactory.obj
 0002:00014b30       ??0?$_Vector_const_iterator@V?$_Vector_val@U?$_Simple_types@UPTR@cGlumShape_SwitchGadget@Glumer@@@std@@@std@@@std@@QAE@ABV01@@Z 10046b30 f i cGlumShapeFactory.obj
 0002:00014ba0       ??0?$_Vector_const_iterator@V?$_Vector_val@U?$_Simple_types@UPTR@cGlumShape_SwitchGadget@Glumer@@@std@@@std@@@std@@QAE@PAUPTR@cGlumShape_SwitchGadget@Glumer@@PBU_Container_base12@1@@Z 10046ba0 f i cGlumShapeFactory.obj
 0002:00014c20       ??0?$_Vector_const_iterator@V?$_Vector_val@U?$_Simple_types@UPTR@cMovement_Camera@Glumer@@@std@@@std@@@std@@QAE@$$QAV01@@Z 10046c20 f i cGlumShapeFactory.obj
 0002:00014c90       ??0?$_Vector_const_iterator@V?$_Vector_val@U?$_Simple_types@UPTR@cMovement_Camera@Glumer@@@std@@@std@@@std@@QAE@ABV01@@Z 10046c90 f i cGlumShapeFactory.obj
 0002:00014d00       ??0?$_Vector_const_iterator@V?$_Vector_val@U?$_Simple_types@UPTR@cMovement_Camera@Glumer@@@std@@@std@@@std@@QAE@PAUPTR@cMovement_Camera@Glumer@@PBU_Container_base12@1@@Z 10046d00 f i cGlumShapeFactory.obj
 0002:00014d80       ??0?$_Vector_const_iterator@V?$_Vector_val@U?$_Simple_types@UPTR@cMovement_Camera@Glumer@@@std@@@std@@@std@@QAE@XZ 10046d80 f i cGlumShapeFactory.obj
 0002:00014df0       ??0?$_Vector_const_iterator@V?$_Vector_val@U?$_Simple_types@UPTR@cObjectMoveableBase@Glumer@@@std@@@std@@@std@@QAE@PAUPTR@cObjectMoveableBase@Glumer@@PBU_Container_base12@1@@Z 10046df0 f i cGlumShapeFactory.obj
 0002:00014e70       ??0?$_Vector_iterator@V?$_Vector_val@U?$_Simple_types@I@std@@@std@@@std@@QAE@$$QAV01@@Z 10046e70 f i cGlumShapeFactory.obj
 0002:00014ed0       ??0?$_Vector_iterator@V?$_Vector_val@U?$_Simple_types@I@std@@@std@@@std@@QAE@ABV01@@Z 10046ed0 f i cGlumShapeFactory.obj
 0002:00014f30       ??0?$_Vector_iterator@V?$_Vector_val@U?$_Simple_types@I@std@@@std@@@std@@QAE@PAIPBU_Container_base12@1@@Z 10046f30 f i cGlumShapeFactory.obj
 0002:00014fa0       ??0?$_Vector_iterator@V?$_Vector_val@U?$_Simple_types@UPTR@cGlumShape_Console@Glumer@@@std@@@std@@@std@@QAE@$$QAV01@@Z 10046fa0 f i cGlumShapeFactory.obj
 0002:00015000       ??0?$_Vector_iterator@V?$_Vector_val@U?$_Simple_types@UPTR@cGlumShape_Console@Glumer@@@std@@@std@@@std@@QAE@ABV01@@Z 10047000 f i cGlumShapeFactory.obj
 0002:00015060       ??0?$_Vector_iterator@V?$_Vector_val@U?$_Simple_types@UPTR@cGlumShape_Console@Glumer@@@std@@@std@@@std@@QAE@PAUPTR@cGlumShape_Console@Glumer@@PBU_Container_base12@1@@Z 10047060 f i cGlumShapeFactory.obj
 0002:000150d0       ??0?$_Vector_iterator@V?$_Vector_val@U?$_Simple_types@UPTR@cGlumShape_RegularPolyhedron@Glumer@@@std@@@std@@@std@@QAE@$$QAV01@@Z 100470d0 f i cGlumShapeFactory.obj
 0002:00015130       ??0?$_Vector_iterator@V?$_Vector_val@U?$_Simple_types@UPTR@cGlumShape_RegularPolyhedron@Glumer@@@std@@@std@@@std@@QAE@ABV01@@Z 10047130 f i cGlumShapeFactory.obj
 0002:00015190       ??0?$_Vector_iterator@V?$_Vector_val@U?$_Simple_types@UPTR@cGlumShape_RegularPolyhedron@Glumer@@@std@@@std@@@std@@QAE@PAUPTR@cGlumShape_RegularPolyhedron@Glumer@@PBU_Container_base12@1@@Z 10047190 f i cGlumShapeFactory.obj
 0002:00015200       ??0?$_Vector_iterator@V?$_Vector_val@U?$_Simple_types@UPTR@cGlumShape_SwitchGadget@Glumer@@@std@@@std@@@std@@QAE@$$QAV01@@Z 10047200 f i cGlumShapeFactory.obj
 0002:00015260       ??0?$_Vector_iterator@V?$_Vector_val@U?$_Simple_types@UPTR@cGlumShape_SwitchGadget@Glumer@@@std@@@std@@@std@@QAE@ABV01@@Z 10047260 f i cGlumShapeFactory.obj
 0002:000152c0       ??0?$_Vector_iterator@V?$_Vector_val@U?$_Simple_types@UPTR@cGlumShape_SwitchGadget@Glumer@@@std@@@std@@@std@@QAE@PAUPTR@cGlumShape_SwitchGadget@Glumer@@PBU_Container_base12@1@@Z 100472c0 f i cGlumShapeFactory.obj
 0002:00015330       ??0?$_Vector_iterator@V?$_Vector_val@U?$_Simple_types@UPTR@cMovement_Camera@Glumer@@@std@@@std@@@std@@QAE@$$QAV01@@Z 10047330 f i cGlumShapeFactory.obj
 0002:00015390       ??0?$_Vector_iterator@V?$_Vector_val@U?$_Simple_types@UPTR@cMovement_Camera@Glumer@@@std@@@std@@@std@@QAE@ABV01@@Z 10047390 f i cGlumShapeFactory.obj
 0002:000153f0       ??0?$_Vector_iterator@V?$_Vector_val@U?$_Simple_types@UPTR@cMovement_Camera@Glumer@@@std@@@std@@@std@@QAE@PAUPTR@cMovement_Camera@Glumer@@PBU_Container_base12@1@@Z 100473f0 f i cGlumShapeFactory.obj
 0002:00015460       ??0?$_Vector_iterator@V?$_Vector_val@U?$_Simple_types@UPTR@cMovement_Camera@Glumer@@@std@@@std@@@std@@QAE@XZ 10047460 f i cGlumShapeFactory.obj
 0002:000154c0       ??0?$_Vector_iterator@V?$_Vector_val@U?$_Simple_types@UPTR@cObjectMoveableBase@Glumer@@@std@@@std@@@std@@QAE@PAUPTR@cObjectMoveableBase@Glumer@@PBU_Container_base12@1@@Z 100474c0 f i cGlumShapeFactory.obj
 0002:00015530       ??0?$_Vector_val@U?$_Simple_types@I@std@@@std@@QAE@XZ 10047530 f i cGlumShapeFactory.obj
 0002:000155c0       ??0?$_Vector_val@U?$_Simple_types@PAVcObjectBase@Glumer@@@std@@@std@@QAE@XZ 100475c0 f i cGlumShapeFactory.obj
 0002:00015650       ??0?$_Vector_val@U?$_Simple_types@UPTR@cGlumShape_Console@Glumer@@@std@@@std@@QAE@XZ 10047650 f i cGlumShapeFactory.obj
 0002:000156e0       ??0?$_Vector_val@U?$_Simple_types@UPTR@cGlumShape_RegularPolyhedron@Glumer@@@std@@@std@@QAE@XZ 100476e0 f i cGlumShapeFactory.obj
 0002:00015770       ??0?$_Vector_val@U?$_Simple_types@UPTR@cGlumShape_SwitchGadget@Glumer@@@std@@@std@@QAE@XZ 10047770 f i cGlumShapeFactory.obj
 0002:00015800       ??0?$_Vector_val@U?$_Simple_types@UPTR@cMovement_Camera@Glumer@@@std@@@std@@QAE@XZ 10047800 f i cGlumShapeFactory.obj
 0002:00015890       ??0?$_Vector_val@U?$_Simple_types@UPTR@cObjectMoveableBase@Glumer@@@std@@@std@@QAE@XZ 10047890 f i cGlumShapeFactory.obj
 0002:00015920       ??0?$allocator@I@std@@QAE@XZ 10047920 f i cGlumShapeFactory.obj
 0002:000159b0       ??0?$allocator@PAVcObjectBase@Glumer@@@std@@QAE@XZ 100479b0 f i cGlumShapeFactory.obj
 0002:00015a40       ??0?$allocator@U?$_Tree_node@U?$pair@$$CBIUPTR@cGlumShapeBase@Glumer@@@std@@PAX@std@@@std@@QAE@XZ 10047a40 f i cGlumShapeFactory.obj
 0002:00015ad0       ??0?$allocator@UPTR@cGlumShape_Console@Glumer@@@std@@QAE@XZ 10047ad0 f i cGlumShapeFactory.obj
 0002:00015b60       ??0?$allocator@UPTR@cGlumShape_RegularPolyhedron@Glumer@@@std@@QAE@XZ 10047b60 f i cGlumShapeFactory.obj
 0002:00015bf0       ??0?$allocator@UPTR@cGlumShape_SwitchGadget@Glumer@@@std@@QAE@XZ 10047bf0 f i cGlumShapeFactory.obj
 0002:00015c80       ??0?$allocator@UPTR@cMovement_Camera@Glumer@@@std@@QAE@XZ 10047c80 f i cGlumShapeFactory.obj
 0002:00015d10       ??0?$allocator@UPTR@cObjectMoveableBase@Glumer@@@std@@QAE@XZ 10047d10 f i cGlumShapeFactory.obj
 0002:00015da0       ??0?$cGlumShapeFactory_ShapeContainer@VcGlumShape_Console@Glumer@@@Glumer@@QAE@XZ 10047da0 f i cGlumShapeFactory.obj
 0002:00015e00       ??0?$cGlumShapeFactory_ShapeContainer@VcGlumShape_RegularPolyhedron@Glumer@@@Glumer@@QAE@XZ 10047e00 f i cGlumShapeFactory.obj
 0002:00015e60       ??0?$cGlumShapeFactory_ShapeContainer@VcGlumShape_SwitchGadget@Glumer@@@Glumer@@QAE@XZ 10047e60 f i cGlumShapeFactory.obj
 0002:00015ec0       ??0?$cGlumShapeFactory_ShapeContainer@VcMovement_Camera@Glumer@@@Glumer@@QAE@XZ 10047ec0 f i cGlumShapeFactory.obj
 0002:00015f20       ??0?$map@IUPTR@cGlumShapeBase@Glumer@@U?$less@I@std@@V?$allocator@U?$pair@$$CBIUPTR@cGlumShapeBase@Glumer@@@std@@@5@@std@@QAE@XZ 10047f20 f i cGlumShapeFactory.obj
 0002:00015f90       ??0?$tuple@$$QAI@std@@QAE@$$QAV01@@Z 10047f90 f i cGlumShapeFactory.obj
 0002:00016040       ??0?$tuple@$$V@std@@QAE@ABV01@@Z 10048040 f i cGlumShapeFactory.obj
 0002:000160d0       ??0?$tuple@$$V@std@@QAE@XZ 100480d0 f i cGlumShapeFactory.obj
 0002:00016160       ??0?$tuple@ABI@std@@QAE@$$QAV01@@Z 10048160 f i cGlumShapeFactory.obj
 0002:00016210       ??0?$vector@IV?$allocator@I@std@@@std@@QAE@XZ 10048210 f i cGlumShapeFactory.obj
 0002:000162b0       ??0?$vector@PAVcObjectBase@Glumer@@V?$allocator@PAVcObjectBase@Glumer@@@std@@@std@@QAE@XZ 100482b0 f i cGlumShapeFactory.obj
 0002:00016350       ??0?$vector@UPTR@cGlumShape_Console@Glumer@@V?$allocator@UPTR@cGlumShape_Console@Glumer@@@std@@@std@@QAE@XZ 10048350 f i cGlumShapeFactory.obj
 0002:000163f0       ??0?$vector@UPTR@cGlumShape_RegularPolyhedron@Glumer@@V?$allocator@UPTR@cGlumShape_RegularPolyhedron@Glumer@@@std@@@std@@QAE@XZ 100483f0 f i cGlumShapeFactory.obj
 0002:00016490       ??0?$vector@UPTR@cGlumShape_SwitchGadget@Glumer@@V?$allocator@UPTR@cGlumShape_SwitchGadget@Glumer@@@std@@@std@@QAE@XZ 10048490 f i cGlumShapeFactory.obj
 0002:00016530       ??0?$vector@UPTR@cMovement_Camera@Glumer@@V?$allocator@UPTR@cMovement_Camera@Glumer@@@std@@@std@@QAE@XZ 10048530 f i cGlumShapeFactory.obj
 0002:000165d0       ??0?$vector@UPTR@cObjectMoveableBase@Glumer@@V?$allocator@UPTR@cObjectMoveableBase@Glumer@@@std@@@std@@QAE@XZ 100485d0 f i cGlumShapeFactory.obj
 0002:00016670       ??0Lock@cMutexWrapper@TimerWrapper@@QAE@PAV12@@Z 10048670 f i cGlumShapeFactory.obj
 0002:000166f0       ??0_Container_base12@std@@QAE@XZ 100486f0 f i cGlumShapeFactory.obj
 0002:00016750       ??0_Container_proxy@std@@QAE@XZ 10048750 f i cGlumShapeFactory.obj
 0002:00016800       ??0_Iterator_base12@std@@QAE@ABU01@@Z 10048800 f i cGlumShapeFactory.obj
 0002:000168c0       ??0_Iterator_base12@std@@QAE@XZ 100488c0 f i cGlumShapeFactory.obj
 0002:00016970       ??0cGlumGlCommand@Glumer@@QAE@HQAMI@Z 10048970 f i cGlumShapeFactory.obj
 0002:00016a00       ??0cGlumGlCommand@Glumer@@QAE@I@Z 10048a00 f i cGlumShapeFactory.obj
 0002:00016a90       ??0cGlumShapeBase@Glumer@@QAE@I@Z 10048a90 f i cGlumShapeFactory.obj
 0002:00016cc0       ??0cGlumShapeFactory@Glumer@@QAE@XZ 10048cc0 f   cGlumShapeFactory.obj
 0002:00016da0       ??0cGlumShapeFactoryState@Glumer@@QAE@I@Z 10048da0 f i cGlumShapeFactory.obj
 0002:00016ef0       ??0cGlumShape_RegularPolyhedron@Glumer@@QAE@IPAVcHUD_Colour@1@@Z 10048ef0 f i cGlumShapeFactory.obj
 0002:00017150       ??0cGlumShape_SwitchGadget@Glumer@@QAE@IPAVcHUD_Colour@1@@Z 10049150 f i cGlumShapeFactory.obj
 0002:00017500       ??0cGluperCenter@Glumer@@QAE@MMM@Z 10049500 f i cGlumShapeFactory.obj
 0002:000175c0       ??0cGluperDirection@Glumer@@QAE@MMM@Z 100495c0 f i cGlumShapeFactory.obj
 0002:00017660       ??0cGluperOrientation@Glumer@@QAE@MMM@Z 10049660 f i cGlumShapeFactory.obj
 0002:00017720       ??0cGluperScale@Glumer@@QAE@MMM@Z 10049720 f i cGlumShapeFactory.obj
 0002:000177c0       ??0cMovementBase@Glumer@@QAE@XZ 100497c0 f i cGlumShapeFactory.obj
 0002:00017830       ??0cMovement_Camera@Glumer@@QAE@IPAX@Z 10049830 f i cGlumShapeFactory.obj
 0002:00017930       ??0cMutexWrapper@TimerWrapper@@QAE@XZ 10049930 f i cGlumShapeFactory.obj
 0002:000179a0       ??0cTimer_PistonMotion@Glumer@@QAE@PAVcGlumShapeBase@1@P6AXPAV01@0M_N@Z@Z 100499a0 f i cGlumShapeFactory.obj
 0002:00017b00       ??1?$_Tree@V?$_Tmap_traits@IUPTR@cGlumShapeBase@Glumer@@U?$less@I@std@@V?$allocator@U?$pair@$$CBIUPTR@cGlumShapeBase@Glumer@@@std@@@5@$0A@@std@@@std@@QAE@XZ 10049b00 f i cGlumShapeFactory.obj
 0002:00017ba0       ??1?$_Tree_comp_alloc@V?$_Tmap_traits@IUPTR@cGlumShapeBase@Glumer@@U?$less@I@std@@V?$allocator@U?$pair@$$CBIUPTR@cGlumShapeBase@Glumer@@@std@@@5@$0A@@std@@@std@@QAE@XZ 10049ba0 f i cGlumShapeFactory.obj
 0002:00017c50       ??1?$_Tree_const_iterator@V?$_Tree_val@U?$_Tree_simple_types@U?$pair@$$CBIUPTR@cGlumShapeBase@Glumer@@@std@@@std@@@std@@@std@@QAE@XZ 10049c50 f i cGlumShapeFactory.obj
 0002:00017ca0       ??1?$_Tree_iterator@V?$_Tree_val@U?$_Tree_simple_types@U?$pair@$$CBIUPTR@cGlumShapeBase@Glumer@@@std@@@std@@@std@@@std@@QAE@XZ 10049ca0 f i cGlumShapeFactory.obj
 0002:00017cf0       ??1?$_Tree_unchecked_const_iterator@V?$_Tree_val@U?$_Tree_simple_types@U?$pair@$$CBIUPTR@cGlumShapeBase@Glumer@@@std@@@std@@@std@@U_Iterator_base12@2@@std@@QAE@XZ 10049cf0 f i cGlumShapeFactory.obj
 0002:00017d40       ??1?$_Vector_alloc@U?$_Vec_base_types@IV?$allocator@I@std@@@std@@@std@@QAE@XZ 10049d40 f i cGlumShapeFactory.obj
 0002:00017dd0       ??1?$_Vector_alloc@U?$_Vec_base_types@PAVcObjectBase@Glumer@@V?$allocator@PAVcObjectBase@Glumer@@@std@@@std@@@std@@QAE@XZ 10049dd0 f i cGlumShapeFactory.obj
 0002:00017e60       ??1?$_Vector_alloc@U?$_Vec_base_types@UPTR@cGlumShape_Console@Glumer@@V?$allocator@UPTR@cGlumShape_Console@Glumer@@@std@@@std@@@std@@QAE@XZ 10049e60 f i cGlumShapeFactory.obj
 0002:00017ef0       ??1?$_Vector_alloc@U?$_Vec_base_types@UPTR@cGlumShape_RegularPolyhedron@Glumer@@V?$allocator@UPTR@cGlumShape_RegularPolyhedron@Glumer@@@std@@@std@@@std@@QAE@XZ 10049ef0 f i cGlumShapeFactory.obj
 0002:00017f80       ??1?$_Vector_alloc@U?$_Vec_base_types@UPTR@cGlumShape_SwitchGadget@Glumer@@V?$allocator@UPTR@cGlumShape_SwitchGadget@Glumer@@@std@@@std@@@std@@QAE@XZ 10049f80 f i cGlumShapeFactory.obj
 0002:00018010       ??1?$_Vector_alloc@U?$_Vec_base_types@UPTR@cMovementBase@Glumer@@V?$allocator@UPTR@cMovementBase@Glumer@@@std@@@std@@@std@@QAE@XZ 1004a010 f i cGlumShapeFactory.obj
 0002:000180a0       ??1?$_Vector_alloc@U?$_Vec_base_types@UPTR@cMovement_Camera@Glumer@@V?$allocator@UPTR@cMovement_Camera@Glumer@@@std@@@std@@@std@@QAE@XZ 1004a0a0 f i cGlumShapeFactory.obj
 0002:00018130       ??1?$_Vector_alloc@U?$_Vec_base_types@UPTR@cObjectMoveableBase@Glumer@@V?$allocator@UPTR@cObjectMoveableBase@Glumer@@@std@@@std@@@std@@QAE@XZ 1004a130 f i cGlumShapeFactory.obj
 0002:000181c0       ??1?$_Vector_const_iterator@V?$_Vector_val@U?$_Simple_types@I@std@@@std@@@std@@QAE@XZ 1004a1c0 f i cGlumShapeFactory.obj
 0002:00018210       ??1?$_Vector_const_iterator@V?$_Vector_val@U?$_Simple_types@UPTR@cGlumShape_Console@Glumer@@@std@@@std@@@std@@QAE@XZ 1004a210 f i cGlumShapeFactory.obj
 0002:00018260       ??1?$_Vector_const_iterator@V?$_Vector_val@U?$_Simple_types@UPTR@cGlumShape_RegularPolyhedron@Glumer@@@std@@@std@@@std@@QAE@XZ 1004a260 f i cGlumShapeFactory.obj
 0002:000182b0       ??1?$_Vector_const_iterator@V?$_Vector_val@U?$_Simple_types@UPTR@cGlumShape_SwitchGadget@Glumer@@@std@@@std@@@std@@QAE@XZ 1004a2b0 f i cGlumShapeFactory.obj
 0002:00018300       ??1?$_Vector_const_iterator@V?$_Vector_val@U?$_Simple_types@UPTR@cMovement_Camera@Glumer@@@std@@@std@@@std@@QAE@XZ 1004a300 f i cGlumShapeFactory.obj
 0002:00018350       ??1?$_Vector_const_iterator@V?$_Vector_val@U?$_Simple_types@UPTR@cObjectMoveableBase@Glumer@@@std@@@std@@@std@@QAE@XZ 1004a350 f i cGlumShapeFactory.obj
 0002:000183a0       ??1?$_Vector_iterator@V?$_Vector_val@U?$_Simple_types@I@std@@@std@@@std@@QAE@XZ 1004a3a0 f i cGlumShapeFactory.obj
 0002:000183f0       ??1?$_Vector_iterator@V?$_Vector_val@U?$_Simple_types@UPTR@cGlumShape_Console@Glumer@@@std@@@std@@@std@@QAE@XZ 1004a3f0 f i cGlumShapeFactory.obj
 0002:00018440       ??1?$_Vector_iterator@V?$_Vector_val@U?$_Simple_types@UPTR@cGlumShape_RegularPolyhedron@Glumer@@@std@@@std@@@std@@QAE@XZ 1004a440 f i cGlumShapeFactory.obj
 0002:00018490       ??1?$_Vector_iterator@V?$_Vector_val@U?$_Simple_types@UPTR@cGlumShape_SwitchGadget@Glumer@@@std@@@std@@@std@@QAE@XZ 1004a490 f i cGlumShapeFactory.obj
 0002:000184e0       ??1?$_Vector_iterator@V?$_Vector_val@U?$_Simple_types@UPTR@cMovement_Camera@Glumer@@@std@@@std@@@std@@QAE@XZ 1004a4e0 f i cGlumShapeFactory.obj
 0002:00018530       ??1?$_Vector_iterator@V?$_Vector_val@U?$_Simple_types@UPTR@cObjectMoveableBase@Glumer@@@std@@@std@@@std@@QAE@XZ 1004a530 f i cGlumShapeFactory.obj
 0002:00018580       ??1?$cGlumShapeFactory_ShapeContainer@VcGlumShape_Console@Glumer@@@Glumer@@QAE@XZ 1004a580 f i cGlumShapeFactory.obj
 0002:00018610       ??1?$cGlumShapeFactory_ShapeContainer@VcGlumShape_RegularPolyhedron@Glumer@@@Glumer@@QAE@XZ 1004a610 f i cGlumShapeFactory.obj
 0002:000186a0       ??1?$cGlumShapeFactory_ShapeContainer@VcGlumShape_SwitchGadget@Glumer@@@Glumer@@QAE@XZ 1004a6a0 f i cGlumShapeFactory.obj
 0002:00018730       ??1?$cGlumShapeFactory_ShapeContainer@VcMovement_Camera@Glumer@@@Glumer@@QAE@XZ 1004a730 f i cGlumShapeFactory.obj
 0002:000187c0       ??1?$map@IUPTR@cGlumShapeBase@Glumer@@U?$less@I@std@@V?$allocator@U?$pair@$$CBIUPTR@cGlumShapeBase@Glumer@@@std@@@5@@std@@QAE@XZ 1004a7c0 f i cGlumShapeFactory.obj
 0002:00018810       ??1?$pair@V?$_Tree_iterator@V?$_Tree_val@U?$_Tree_simple_types@U?$pair@$$CBIUPTR@cGlumShapeBase@Glumer@@@std@@@std@@@std@@@std@@_N@std@@QAE@XZ 1004a810 f i cGlumShapeFactory.obj
 0002:00018860       ??1?$vector@IV?$allocator@I@std@@@std@@QAE@XZ 1004a860 f i cGlumShapeFactory.obj
 0002:00018900       ??1?$vector@PAVcObjectBase@Glumer@@V?$allocator@PAVcObjectBase@Glumer@@@std@@@std@@QAE@XZ 1004a900 f i cGlumShapeFactory.obj
 0002:000189a0       ??1?$vector@UPTR@cGlumShape_Console@Glumer@@V?$allocator@UPTR@cGlumShape_Console@Glumer@@@std@@@std@@QAE@XZ 1004a9a0 f i cGlumShapeFactory.obj
 0002:00018a40       ??1?$vector@UPTR@cGlumShape_RegularPolyhedron@Glumer@@V?$allocator@UPTR@cGlumShape_RegularPolyhedron@Glumer@@@std@@@std@@QAE@XZ 1004aa40 f i cGlumShapeFactory.obj
 0002:00018ae0       ??1?$vector@UPTR@cGlumShape_SwitchGadget@Glumer@@V?$allocator@UPTR@cGlumShape_SwitchGadget@Glumer@@@std@@@std@@QAE@XZ 1004aae0 f i cGlumShapeFactory.obj
 0002:00018b80       ??1?$vector@UPTR@cMovementBase@Glumer@@V?$allocator@UPTR@cMovementBase@Glumer@@@std@@@std@@QAE@XZ 1004ab80 f i cGlumShapeFactory.obj
 0002:00018c20       ??1?$vector@UPTR@cMovement_Camera@Glumer@@V?$allocator@UPTR@cMovement_Camera@Glumer@@@std@@@std@@QAE@XZ 1004ac20 f i cGlumShapeFactory.obj
 0002:00018cc0       ??1?$vector@UPTR@cObjectMoveableBase@Glumer@@V?$allocator@UPTR@cObjectMoveableBase@Glumer@@@std@@@std@@QAE@XZ 1004acc0 f i cGlumShapeFactory.obj
 0002:00018d60       ??1Lock@cMutexWrapper@TimerWrapper@@QAE@XZ 1004ad60 f i cGlumShapeFactory.obj
 0002:00018e00       ??1_Iterator_base12@std@@QAE@XZ 1004ae00 f i cGlumShapeFactory.obj
 0002:00018f00       ??1cGlumShapeBase@Glumer@@UAE@XZ 1004af00 f i cGlumShapeFactory.obj
 0002:00018ff0       ??1cGlumShape_RegularPolyhedron@Glumer@@UAE@XZ 1004aff0 f i cGlumShapeFactory.obj
 0002:000191a0       ??1cGlumShape_SwitchGadget@Glumer@@UAE@XZ 1004b1a0 f i cGlumShapeFactory.obj
 0002:00019300       ??1cGluperCenter@Glumer@@UAE@XZ 1004b300 f i cGlumShapeFactory.obj
 0002:000193a0       ??1cGluperDirection@Glumer@@UAE@XZ 1004b3a0 f i cGlumShapeFactory.obj
 0002:00019440       ??1cGluperOrientation@Glumer@@UAE@XZ 1004b440 f i cGlumShapeFactory.obj
 0002:000194e0       ??1cGluperScale@Glumer@@UAE@XZ 1004b4e0 f i cGlumShapeFactory.obj
 0002:00019580       ??1cMovementBase@Glumer@@UAE@XZ 1004b580 f i cGlumShapeFactory.obj
 0002:00019620       ??1cMovement_Camera@Glumer@@UAE@XZ 1004b620 f i cGlumShapeFactory.obj
 0002:00019700       ??1cMutexWrapper@TimerWrapper@@UAE@XZ 1004b700 f i cGlumShapeFactory.obj
 0002:000197b0       ??1cObjectBase@Glumer@@UAE@XZ 1004b7b0 f i cGlumShapeFactory.obj
 0002:00019850       ??1cObjectMoveableBase@Glumer@@UAE@XZ 1004b850 f i cGlumShapeFactory.obj
 0002:00019900       ??1cTimer_PistonMotion@Glumer@@UAE@XZ 1004b900 f i cGlumShapeFactory.obj
 0002:000199a0       ??2@YAPAXIPAX@Z            1004b9a0 f i cGlumShapeFactory.obj
 0002:00019a30       ??4?$_Tree_const_iterator@V?$_Tree_val@U?$_Tree_simple_types@U?$pair@$$CBIUPTR@cGlumShapeBase@Glumer@@@std@@@std@@@std@@@std@@QAEAAV01@ABV01@@Z 1004ba30 f i cGlumShapeFactory.obj
 0002:00019a90       ??4?$_Tree_unchecked_const_iterator@V?$_Tree_val@U?$_Tree_simple_types@U?$pair@$$CBIUPTR@cGlumShapeBase@Glumer@@@std@@@std@@@std@@U_Iterator_base12@2@@std@@QAEAAV01@ABV01@@Z 1004ba90 f i cGlumShapeFactory.obj
 0002:00019b00       ??4?$_Vector_const_iterator@V?$_Vector_val@U?$_Simple_types@UPTR@cGlumShape_Console@Glumer@@@std@@@std@@@std@@QAEAAV01@$$QAV01@@Z 1004bb00 f i cGlumShapeFactory.obj
 0002:00019b70       ??4?$_Vector_const_iterator@V?$_Vector_val@U?$_Simple_types@UPTR@cGlumShape_RegularPolyhedron@Glumer@@@std@@@std@@@std@@QAEAAV01@$$QAV01@@Z 1004bb70 f i cGlumShapeFactory.obj
 0002:00019be0       ??4?$_Vector_const_iterator@V?$_Vector_val@U?$_Simple_types@UPTR@cGlumShape_SwitchGadget@Glumer@@@std@@@std@@@std@@QAEAAV01@$$QAV01@@Z 1004bbe0 f i cGlumShapeFactory.obj
 0002:00019c50       ??4?$_Vector_const_iterator@V?$_Vector_val@U?$_Simple_types@UPTR@cMovement_Camera@Glumer@@@std@@@std@@@std@@QAEAAV01@$$QAV01@@Z 1004bc50 f i cGlumShapeFactory.obj
 0002:00019cc0       ??4?$_Vector_iterator@V?$_Vector_val@U?$_Simple_types@UPTR@cGlumShape_Console@Glumer@@@std@@@std@@@std@@QAEAAV01@$$QAV01@@Z 1004bcc0 f i cGlumShapeFactory.obj
 0002:00019d20       ??4?$_Vector_iterator@V?$_Vector_val@U?$_Simple_types@UPTR@cGlumShape_RegularPolyhedron@Glumer@@@std@@@std@@@std@@QAEAAV01@$$QAV01@@Z 1004bd20 f i cGlumShapeFactory.obj
 0002:00019d80       ??4?$_Vector_iterator@V?$_Vector_val@U?$_Simple_types@UPTR@cGlumShape_SwitchGadget@Glumer@@@std@@@std@@@std@@QAEAAV01@$$QAV01@@Z 1004bd80 f i cGlumShapeFactory.obj
 0002:00019de0       ??4?$_Vector_iterator@V?$_Vector_val@U?$_Simple_types@UPTR@cMovement_Camera@Glumer@@@std@@@std@@@std@@QAEAAV01@$$QAV01@@Z 1004bde0 f i cGlumShapeFactory.obj
 0002:00019e40       ??4_Iterator_base12@std@@QAEAAU01@ABU01@@Z 1004be40 f i cGlumShapeFactory.obj
 0002:00019f70       ??8?$_Tree_const_iterator@V?$_Tree_val@U?$_Tree_simple_types@U?$pair@$$CBIUPTR@cGlumShapeBase@Glumer@@@std@@@std@@@std@@@std@@QBE_NABV01@@Z 1004bf70 f i cGlumShapeFactory.obj
 0002:0001a090       ??8?$_Vector_const_iterator@V?$_Vector_val@U?$_Simple_types@I@std@@@std@@@std@@QBE_NABV01@@Z 1004c090 f i cGlumShapeFactory.obj
 0002:0001a130       ??8?$_Vector_const_iterator@V?$_Vector_val@U?$_Simple_types@UPTR@cGlumShape_Console@Glumer@@@std@@@std@@@std@@QBE_NABV01@@Z 1004c130 f i cGlumShapeFactory.obj
 0002:0001a1d0       ??8?$_Vector_const_iterator@V?$_Vector_val@U?$_Simple_types@UPTR@cGlumShape_RegularPolyhedron@Glumer@@@std@@@std@@@std@@QBE_NABV01@@Z 1004c1d0 f i cGlumShapeFactory.obj
 0002:0001a270       ??8?$_Vector_const_iterator@V?$_Vector_val@U?$_Simple_types@UPTR@cGlumShape_SwitchGadget@Glumer@@@std@@@std@@@std@@QBE_NABV01@@Z 1004c270 f i cGlumShapeFactory.obj
 0002:0001a310       ??8?$_Vector_const_iterator@V?$_Vector_val@U?$_Simple_types@UPTR@cMovement_Camera@Glumer@@@std@@@std@@@std@@QBE_NABV01@@Z 1004c310 f i cGlumShapeFactory.obj
 0002:0001a3b0       ??8PTR@cMovement_Camera@Glumer@@QAE_NI@Z 1004c3b0 f i cGlumShapeFactory.obj
 0002:0001a440       ??9?$_Tree_const_iterator@V?$_Tree_val@U?$_Tree_simple_types@U?$pair@$$CBIUPTR@cGlumShapeBase@Glumer@@@std@@@std@@@std@@@std@@QBE_NABV01@@Z 1004c440 f i cGlumShapeFactory.obj
 0002:0001a4d0       ??9?$_Vector_const_iterator@V?$_Vector_val@U?$_Simple_types@I@std@@@std@@@std@@QBE_NABV01@@Z 1004c4d0 f i cGlumShapeFactory.obj
 0002:0001a560       ??9?$_Vector_const_iterator@V?$_Vector_val@U?$_Simple_types@UPTR@cGlumShape_Console@Glumer@@@std@@@std@@@std@@QBE_NABV01@@Z 1004c560 f i cGlumShapeFactory.obj
 0002:0001a5f0       ??9?$_Vector_const_iterator@V?$_Vector_val@U?$_Simple_types@UPTR@cGlumShape_RegularPolyhedron@Glumer@@@std@@@std@@@std@@QBE_NABV01@@Z 1004c5f0 f i cGlumShapeFactory.obj
 0002:0001a680       ??9?$_Vector_const_iterator@V?$_Vector_val@U?$_Simple_types@UPTR@cGlumShape_SwitchGadget@Glumer@@@std@@@std@@@std@@QBE_NABV01@@Z 1004c680 f i cGlumShapeFactory.obj
 0002:0001a710       ??9?$_Vector_const_iterator@V?$_Vector_val@U?$_Simple_types@UPTR@cMovement_Camera@Glumer@@@std@@@std@@@std@@QBE_NABV01@@Z 1004c710 f i cGlumShapeFactory.obj
 0002:0001a7a0       ??A?$map@IUPTR@cGlumShapeBase@Glumer@@U?$less@I@std@@V?$allocator@U?$pair@$$CBIUPTR@cGlumShapeBase@Glumer@@@std@@@5@@std@@QAEAAUPTR@cGlumShapeBase@Glumer@@$$QAI@Z 1004c7a0 f i cGlumShapeFactory.obj
 0002:0001a8b0       ??A?$map@IUPTR@cGlumShapeBase@Glumer@@U?$less@I@std@@V?$allocator@U?$pair@$$CBIUPTR@cGlumShapeBase@Glumer@@@std@@@5@@std@@QAEAAUPTR@cGlumShapeBase@Glumer@@ABI@Z 1004c8b0 f i cGlumShapeFactory.obj
 0002:0001a9b0       ??C?$_Tree_iterator@V?$_Tree_val@U?$_Tree_simple_types@U?$pair@$$CBIUPTR@cGlumShapeBase@Glumer@@@std@@@std@@@std@@@std@@QBEPAU?$pair@$$CBIUPTR@cGlumShapeBase@Glumer@@@1@XZ 1004c9b0 f i cGlumShapeFactory.obj
 0002:0001aa20       ??C?$_Vector_const_iterator@V?$_Vector_val@U?$_Simple_types@UPTR@cGlumShape_Console@Glumer@@@std@@@std@@@std@@QBEPBUPTR@cGlumShape_Console@Glumer@@XZ 1004ca20 f i cGlumShapeFactory.obj
 0002:0001aba0       ??C?$_Vector_const_iterator@V?$_Vector_val@U?$_Simple_types@UPTR@cGlumShape_RegularPolyhedron@Glumer@@@std@@@std@@@std@@QBEPBUPTR@cGlumShape_RegularPolyhedron@Glumer@@XZ 1004cba0 f i cGlumShapeFactory.obj
 0002:0001ad20       ??C?$_Vector_const_iterator@V?$_Vector_val@U?$_Simple_types@UPTR@cGlumShape_SwitchGadget@Glumer@@@std@@@std@@@std@@QBEPBUPTR@cGlumShape_SwitchGadget@Glumer@@XZ 1004cd20 f i cGlumShapeFactory.obj
 0002:0001aea0       ??C?$_Vector_const_iterator@V?$_Vector_val@U?$_Simple_types@UPTR@cMovement_Camera@Glumer@@@std@@@std@@@std@@QBEPBUPTR@cMovement_Camera@Glumer@@XZ 1004cea0 f i cGlumShapeFactory.obj
 0002:0001b020       ??C?$_Vector_iterator@V?$_Vector_val@U?$_Simple_types@UPTR@cGlumShape_Console@Glumer@@@std@@@std@@@std@@QBEPAUPTR@cGlumShape_Console@Glumer@@XZ 1004d020 f i cGlumShapeFactory.obj
 0002:0001b090       ??C?$_Vector_iterator@V?$_Vector_val@U?$_Simple_types@UPTR@cGlumShape_RegularPolyhedron@Glumer@@@std@@@std@@@std@@QBEPAUPTR@cGlumShape_RegularPolyhedron@Glumer@@XZ 1004d090 f i cGlumShapeFactory.obj
 0002:0001b100       ??C?$_Vector_iterator@V?$_Vector_val@U?$_Simple_types@UPTR@cGlumShape_SwitchGadget@Glumer@@@std@@@std@@@std@@QBEPAUPTR@cGlumShape_SwitchGadget@Glumer@@XZ 1004d100 f i cGlumShapeFactory.obj
 0002:0001b170       ??C?$_Vector_iterator@V?$_Vector_val@U?$_Simple_types@UPTR@cMovement_Camera@Glumer@@@std@@@std@@@std@@QBEPAUPTR@cMovement_Camera@Glumer@@XZ 1004d170 f i cGlumShapeFactory.obj
 0002:0001b1e0       ??D?$_Tree_const_iterator@V?$_Tree_val@U?$_Tree_simple_types@U?$pair@$$CBIUPTR@cGlumShapeBase@Glumer@@@std@@@std@@@std@@@std@@QBEABU?$pair@$$CBIUPTR@cGlumShapeBase@Glumer@@@1@XZ 1004d1e0 f i cGlumShapeFactory.obj
 0002:0001b360       ??D?$_Tree_iterator@V?$_Tree_val@U?$_Tree_simple_types@U?$pair@$$CBIUPTR@cGlumShapeBase@Glumer@@@std@@@std@@@std@@@std@@QBEAAU?$pair@$$CBIUPTR@cGlumShapeBase@Glumer@@@1@XZ 1004d360 f i cGlumShapeFactory.obj
 0002:0001b3c0       ??D?$_Vector_const_iterator@V?$_Vector_val@U?$_Simple_types@I@std@@@std@@@std@@QBEABIXZ 1004d3c0 f i cGlumShapeFactory.obj
 0002:0001b540       ??D?$_Vector_const_iterator@V?$_Vector_val@U?$_Simple_types@UPTR@cGlumShape_Console@Glumer@@@std@@@std@@@std@@QBEABUPTR@cGlumShape_Console@Glumer@@XZ 1004d540 f i cGlumShapeFactory.obj
 0002:0001b6c0       ??D?$_Vector_const_iterator@V?$_Vector_val@U?$_Simple_types@UPTR@cGlumShape_RegularPolyhedron@Glumer@@@std@@@std@@@std@@QBEABUPTR@cGlumShape_RegularPolyhedron@Glumer@@XZ 1004d6c0 f i cGlumShapeFactory.obj
 0002:0001b840       ??D?$_Vector_const_iterator@V?$_Vector_val@U?$_Simple_types@UPTR@cGlumShape_SwitchGadget@Glumer@@@std@@@std@@@std@@QBEABUPTR@cGlumShape_SwitchGadget@Glumer@@XZ 1004d840 f i cGlumShapeFactory.obj
 0002:0001b9c0       ??D?$_Vector_const_iterator@V?$_Vector_val@U?$_Simple_types@UPTR@cMovement_Camera@Glumer@@@std@@@std@@@std@@QBEABUPTR@cMovement_Camera@Glumer@@XZ 1004d9c0 f i cGlumShapeFactory.obj
 0002:0001bb40       ??D?$_Vector_iterator@V?$_Vector_val@U?$_Simple_types@I@std@@@std@@@std@@QBEAAIXZ 1004db40 f i cGlumShapeFactory.obj
 0002:0001bba0       ??D?$_Vector_iterator@V?$_Vector_val@U?$_Simple_types@UPTR@cGlumShape_Console@Glumer@@@std@@@std@@@std@@QBEAAUPTR@cGlumShape_Console@Glumer@@XZ 1004dba0 f i cGlumShapeFactory.obj
 0002:0001bc00       ??D?$_Vector_iterator@V?$_Vector_val@U?$_Simple_types@UPTR@cGlumShape_RegularPolyhedron@Glumer@@@std@@@std@@@std@@QBEAAUPTR@cGlumShape_RegularPolyhedron@Glumer@@XZ 1004dc00 f i cGlumShapeFactory.obj
 0002:0001bc60       ??D?$_Vector_iterator@V?$_Vector_val@U?$_Simple_types@UPTR@cGlumShape_SwitchGadget@Glumer@@@std@@@std@@@std@@QBEAAUPTR@cGlumShape_SwitchGadget@Glumer@@XZ 1004dc60 f i cGlumShapeFactory.obj
 0002:0001bcc0       ??D?$_Vector_iterator@V?$_Vector_val@U?$_Simple_types@UPTR@cMovement_Camera@Glumer@@@std@@@std@@@std@@QBEAAUPTR@cMovement_Camera@Glumer@@XZ 1004dcc0 f i cGlumShapeFactory.obj
 0002:0001bd20       ??E?$_Tree_const_iterator@V?$_Tree_val@U?$_Tree_simple_types@U?$pair@$$CBIUPTR@cGlumShapeBase@Glumer@@@std@@@std@@@std@@@std@@QAE?AV01@H@Z 1004dd20 f i cGlumShapeFactory.obj
 0002:0001be50       ??E?$_Tree_const_iterator@V?$_Tree_val@U?$_Tree_simple_types@U?$pair@$$CBIUPTR@cGlumShapeBase@Glumer@@@std@@@std@@@std@@@std@@QAEAAV01@XZ 1004de50 f i cGlumShapeFactory.obj
 0002:0001bfd0       ??E?$_Tree_unchecked_const_iterator@V?$_Tree_val@U?$_Tree_simple_types@U?$pair@$$CBIUPTR@cGlumShapeBase@Glumer@@@std@@@std@@@std@@U_Iterator_base12@2@@std@@QAEAAV01@XZ 1004dfd0 f i cGlumShapeFactory.obj
 0002:0001c0b0       ??E?$_Vector_const_iterator@V?$_Vector_val@U?$_Simple_types@I@std@@@std@@@std@@QAEAAV01@XZ 1004e0b0 f i cGlumShapeFactory.obj
 0002:0001c230       ??E?$_Vector_const_iterator@V?$_Vector_val@U?$_Simple_types@UPTR@cGlumShape_Console@Glumer@@@std@@@std@@@std@@QAEAAV01@XZ 1004e230 f i cGlumShapeFactory.obj
 0002:0001c3b0       ??E?$_Vector_const_iterator@V?$_Vector_val@U?$_Simple_types@UPTR@cGlumShape_RegularPolyhedron@Glumer@@@std@@@std@@@std@@QAEAAV01@XZ 1004e3b0 f i cGlumShapeFactory.obj
 0002:0001c530       ??E?$_Vector_const_iterator@V?$_Vector_val@U?$_Simple_types@UPTR@cGlumShape_SwitchGadget@Glumer@@@std@@@std@@@std@@QAEAAV01@XZ 1004e530 f i cGlumShapeFactory.obj
 0002:0001c6b0       ??E?$_Vector_const_iterator@V?$_Vector_val@U?$_Simple_types@UPTR@cMovement_Camera@Glumer@@@std@@@std@@@std@@QAEAAV01@XZ 1004e6b0 f i cGlumShapeFactory.obj
 0002:0001c830       ??E?$_Vector_iterator@V?$_Vector_val@U?$_Simple_types@I@std@@@std@@@std@@QAE?AV01@H@Z 1004e830 f i cGlumShapeFactory.obj
 0002:0001c960       ??E?$_Vector_iterator@V?$_Vector_val@U?$_Simple_types@I@std@@@std@@@std@@QAEAAV01@XZ 1004e960 f i cGlumShapeFactory.obj
 0002:0001c9c0       ??E?$_Vector_iterator@V?$_Vector_val@U?$_Simple_types@UPTR@cGlumShape_Console@Glumer@@@std@@@std@@@std@@QAE?AV01@H@Z 1004e9c0 f i cGlumShapeFactory.obj
 0002:0001caf0       ??E?$_Vector_iterator@V?$_Vector_val@U?$_Simple_types@UPTR@cGlumShape_Console@Glumer@@@std@@@std@@@std@@QAEAAV01@XZ 1004eaf0 f i cGlumShapeFactory.obj
 0002:0001cb50       ??E?$_Vector_iterator@V?$_Vector_val@U?$_Simple_types@UPTR@cGlumShape_RegularPolyhedron@Glumer@@@std@@@std@@@std@@QAE?AV01@H@Z 1004eb50 f i cGlumShapeFactory.obj
 0002:0001cc80       ??E?$_Vector_iterator@V?$_Vector_val@U?$_Simple_types@UPTR@cGlumShape_RegularPolyhedron@Glumer@@@std@@@std@@@std@@QAEAAV01@XZ 1004ec80 f i cGlumShapeFactory.obj
 0002:0001cce0       ??E?$_Vector_iterator@V?$_Vector_val@U?$_Simple_types@UPTR@cGlumShape_SwitchGadget@Glumer@@@std@@@std@@@std@@QAE?AV01@H@Z 1004ece0 f i cGlumShapeFactory.obj
 0002:0001ce10       ??E?$_Vector_iterator@V?$_Vector_val@U?$_Simple_types@UPTR@cGlumShape_SwitchGadget@Glumer@@@std@@@std@@@std@@QAEAAV01@XZ 1004ee10 f i cGlumShapeFactory.obj
 0002:0001ce70       ??E?$_Vector_iterator@V?$_Vector_val@U?$_Simple_types@UPTR@cMovement_Camera@Glumer@@@std@@@std@@@std@@QAE?AV01@H@Z 1004ee70 f i cGlumShapeFactory.obj
 0002:0001cfa0       ??E?$_Vector_iterator@V?$_Vector_val@U?$_Simple_types@UPTR@cMovement_Camera@Glumer@@@std@@@std@@@std@@QAEAAV01@XZ 1004efa0 f i cGlumShapeFactory.obj
 0002:0001d000       ??F?$_Tree_const_iterator@V?$_Tree_val@U?$_Tree_simple_types@U?$pair@$$CBIUPTR@cGlumShapeBase@Glumer@@@std@@@std@@@std@@@std@@QAEAAV01@XZ 1004f000 f i cGlumShapeFactory.obj
 0002:0001d180       ??F?$_Tree_iterator@V?$_Tree_val@U?$_Tree_simple_types@U?$pair@$$CBIUPTR@cGlumShapeBase@Glumer@@@std@@@std@@@std@@@std@@QAEAAV01@XZ 1004f180 f i cGlumShapeFactory.obj
 0002:0001d1e0       ??F?$_Tree_unchecked_const_iterator@V?$_Tree_val@U?$_Tree_simple_types@U?$pair@$$CBIUPTR@cGlumShapeBase@Glumer@@@std@@@std@@@std@@U_Iterator_base12@2@@std@@QAEAAV01@XZ 1004f1e0 f i cGlumShapeFactory.obj
 0002:0001d2f0       ??R?$less@I@std@@QBE_NABI0@Z 1004f2f0 f i cGlumShapeFactory.obj
 0002:0001d375       ??_EcGlumShape_RegularPolyhedron@Glumer@@WBI@AEPAXI@Z 1004f375 f i cGlumShapeFactory.obj
 0002:0001d37f       ??_EcGlumShape_SwitchGadget@Glumer@@WKE@AEPAXI@Z 1004f37f f i cGlumShapeFactory.obj
 0002:0001d38c       ??_EcMovement_Camera@Glumer@@WKE@AEPAXI@Z 1004f38c f i cGlumShapeFactory.obj
 0002:0001d399       ??_EcMovement_Camera@Glumer@@WKM@AEPAXI@Z 1004f399 f i cGlumShapeFactory.obj
 0002:0001d3b0       ??_EcGlumShapeBase@Glumer@@UAEPAXI@Z 1004f3b0 f i cGlumShapeFactory.obj
 0002:0001d3b0       ??_GcGlumShapeBase@Glumer@@UAEPAXI@Z 1004f3b0 f i cGlumShapeFactory.obj
 0002:0001d430       ??_EcGlumShape_RegularPolyhedron@Glumer@@UAEPAXI@Z 1004f430 f i cGlumShapeFactory.obj
 0002:0001d430       ??_GcGlumShape_RegularPolyhedron@Glumer@@UAEPAXI@Z 1004f430 f i cGlumShapeFactory.obj
 0002:0001d4b0       ??_EcGlumShape_SwitchGadget@Glumer@@UAEPAXI@Z 1004f4b0 f i cGlumShapeFactory.obj
 0002:0001d4b0       ??_GcGlumShape_SwitchGadget@Glumer@@UAEPAXI@Z 1004f4b0 f i cGlumShapeFactory.obj
 0002:0001d530       ??_GcGluperCenter@Glumer@@UAEPAXI@Z 1004f530 f i cGlumShapeFactory.obj
 0002:0001d530       ??_EcGluperCenter@Glumer@@UAEPAXI@Z 1004f530 f i cGlumShapeFactory.obj
 0002:0001d5a0       ??_GcGluperDirection@Glumer@@UAEPAXI@Z 1004f5a0 f i cGlumShapeFactory.obj
 0002:0001d5a0       ??_EcGluperDirection@Glumer@@UAEPAXI@Z 1004f5a0 f i cGlumShapeFactory.obj
 0002:0001d610       ??_GcGluperOrientation@Glumer@@UAEPAXI@Z 1004f610 f i cGlumShapeFactory.obj
 0002:0001d610       ??_EcGluperOrientation@Glumer@@UAEPAXI@Z 1004f610 f i cGlumShapeFactory.obj
 0002:0001d680       ??_GcGluperScale@Glumer@@UAEPAXI@Z 1004f680 f i cGlumShapeFactory.obj
 0002:0001d680       ??_EcGluperScale@Glumer@@UAEPAXI@Z 1004f680 f i cGlumShapeFactory.obj
 0002:0001d6f0       ??_EcMovementBase@Glumer@@UAEPAXI@Z 1004f6f0 f i cGlumShapeFactory.obj
 0002:0001d6f0       ??_GcMovementBase@Glumer@@UAEPAXI@Z 1004f6f0 f i cGlumShapeFactory.obj
 0002:0001d760       ??_GcMovement_Camera@Glumer@@UAEPAXI@Z 1004f760 f i cGlumShapeFactory.obj
 0002:0001d760       ??_EcMovement_Camera@Glumer@@UAEPAXI@Z 1004f760 f i cGlumShapeFactory.obj
 0002:0001d7e0       ??_GcMutexWrapper@TimerWrapper@@UAEPAXI@Z 1004f7e0 f i cGlumShapeFactory.obj
 0002:0001d7e0       ??_EcMutexWrapper@TimerWrapper@@UAEPAXI@Z 1004f7e0 f i cGlumShapeFactory.obj
 0002:0001d850       ??_GcObjectBase@Glumer@@UAEPAXI@Z 1004f850 f i cGlumShapeFactory.obj
 0002:0001d850       ??_EcObjectBase@Glumer@@UAEPAXI@Z 1004f850 f i cGlumShapeFactory.obj
 0002:0001d8c0       ??_GcObjectMoveableBase@Glumer@@UAEPAXI@Z 1004f8c0 f i cGlumShapeFactory.obj
 0002:0001d8c0       ??_EcObjectMoveableBase@Glumer@@UAEPAXI@Z 1004f8c0 f i cGlumShapeFactory.obj
 0002:0001d930       ??_GcTimer_PistonMotion@Glumer@@UAEPAXI@Z 1004f930 f i cGlumShapeFactory.obj
 0002:0001d930       ??_EcTimer_PistonMotion@Glumer@@UAEPAXI@Z 1004f930 f i cGlumShapeFactory.obj
 0002:0001d9a0       ?Abort@cTimerWrapper@TimerWrapper@@QAEXXZ 1004f9a0 f i cGlumShapeFactory.obj
 0002:0001da00       ?CalculateInitialValue@cTimer_PistonMotion@Glumer@@QAEMMM@Z 1004fa00 f i cGlumShapeFactory.obj
 0002:0001da90       ?CopyBuffer@cGlumShapeBase@Glumer@@QAEXXZ 1004fa90 f i cGlumShapeFactory.obj
 0002:0001dce0       ?CreateCamera@cGlumShapeFactory@Glumer@@QAE?AUPTR@cMovement_Camera@2@XZ 1004fce0 f   cGlumShapeFactory.obj
 0002:0001de00       ?CreateConsole@cGlumShapeFactory@Glumer@@QAE?AUPTR@cGlumShape_Console@2@PAVcHUD_Colour@2@M@Z 1004fe00 f   cGlumShapeFactory.obj
 0002:0001dfa0       ?CreateGLCommand@cGlumShapeFactory@Glumer@@QAE?AUPTR@cGlumShape_RegularPolyhedron@2@PAVcHUD_Colour@2@MHQAMIP6GXI@Z@Z 1004ffa0 f   cGlumShapeFactory.obj
 0002:0001e210       ?CreateGLCompiledName@cGlumShapeFactory@Glumer@@QAE?AUPTR@cGlumShape_RegularPolyhedron@2@PAVcHUD_Colour@2@MIP6GXI@Z@Z 10050210 f   cGlumShapeFactory.obj
 0002:0001e480       ?CreateNew@?$cGlumShapeFactory_ShapeContainer@VcGlumShape_Console@Glumer@@@Glumer@@SA?AUPTR@cGlumShape_Console@2@IPAVcHUD_Colour@2@@Z 10050480 f i cGlumShapeFactory.obj
 0002:0001e630       ?CreateNew@?$cGlumShapeFactory_ShapeContainer@VcGlumShape_RegularPolyhedron@Glumer@@@Glumer@@SA?AUPTR@cGlumShape_RegularPolyhedron@2@IPAVcHUD_Colour@2@@Z 10050630 f i cGlumShapeFactory.obj
 0002:0001e7d0       ?CreateNew@?$cGlumShapeFactory_ShapeContainer@VcGlumShape_SwitchGadget@Glumer@@@Glumer@@SA?AUPTR@cGlumShape_SwitchGadget@2@IPAVcHUD_Colour@2@@Z 100507d0 f i cGlumShapeFactory.obj
 0002:0001e970       ?CreateNew@?$cGlumShapeFactory_ShapeContainer@VcMovement_Camera@Glumer@@@Glumer@@SA?AUPTR@cMovement_Camera@2@IPAVcHUD_Colour@2@@Z 10050970 f i cGlumShapeFactory.obj
 0002:0001eb10       ?CreateRegularPolyhedron@cGlumShapeFactory@Glumer@@QAE?AUPTR@cGlumShape_RegularPolyhedron@2@PAVcHUD_Colour@2@HM_NP6GXI@Z@Z 10050b10 f   cGlumShapeFactory.obj
 0002:0001ed50       ?CreateSwitchGadget@cGlumShapeFactory@Glumer@@QAE?AUPTR@cGlumShape_SwitchGadget@2@PAVcHUD_Colour@2@MP6AXPAVcTimer_PistonMotion@2@PAVcGlumShapeBase@2@M_N@ZP6GXI3@ZP6GXI@Z@Z 10050d50 f   cGlumShapeFactory.obj
 0002:0001ef40       ?Cube@cGlumShape_RegularPolyhedron@Glumer@@ABEXM@Z 10050f40 f i cGlumShapeFactory.obj
 0002:0001f540       ?DoubleBufferCoordinates@cGlumShapeFactory@Glumer@@QAEXXZ 10051540 f   cGlumShapeFactory.obj
 0002:0001f790       ?DrawListAdd@cGlumShapeFactoryState@Glumer@@QAEXUPTR@cObjectMoveableBase@2@I@Z 10051790 f i cGlumShapeFactory.obj
 0002:0001f810       ?DrawScene@cGlumShapeFactory@Glumer@@QAEXPAVcHUD_Colour@2@@Z 10051810 f   cGlumShapeFactory.obj
 0002:0001f910       ?EventPossition@cGluperScale@Glumer@@UAEXXZ 10051910 f i cGlumShapeFactory.obj
 0002:0001f9c0       ?EventSelected@cGlumShape_RegularPolyhedron@Glumer@@UAEXXZ 100519c0 f i cGlumShapeFactory.obj
 0002:0001fa50       ?EventShow@cGlumShape_RegularPolyhedron@Glumer@@UAEXXZ 10051a50 f i cGlumShapeFactory.obj
 0002:0001fc00       ?EventShow@cGlumShape_SwitchGadget@Glumer@@UAEXXZ 10051c00 f i cGlumShapeFactory.obj
 0002:0001fc80       ?EventTimer@cTimer_PistonMotion@Glumer@@UAEXXZ 10051c80 f i cGlumShapeFactory.obj
 0002:0001fe20       ?FactoryListAdd@cGlumShapeFactoryState@Glumer@@QAEXUPTR@cGlumShapeBase@2@@Z 10051e20 f i cGlumShapeFactory.obj
 0002:0001ff70       ?FactorySetAngle@cGluperOrientation@Glumer@@QAEXM@Z 10051f70 f i cGlumShapeFactory.obj
 0002:0001ffe0       ?FactorySetAngleIncrement@cGluperOrientation@Glumer@@QAEXM@Z 10051fe0 f i cGlumShapeFactory.obj
 0002:00020050       ?FactorySetAngleXYZ@cGluperOrientation@Glumer@@QAEXMMM@Z 10052050 f i cGlumShapeFactory.obj
 0002:000200e0       ?FactorySetDelay@cGlumShape_RegularPolyhedron@Glumer@@QAEXI@Z 100520e0 f i cGlumShapeFactory.obj
 0002:00020150       ?FactorySetDelay@cTimerWrapper@TimerWrapper@@QAEXI@Z 10052150 f i cGlumShapeFactory.obj
 0002:000201b0       ?FactorySetGlCommand@cGlumShape_RegularPolyhedron@Glumer@@QAEXHQAMI@Z 100521b0 f i cGlumShapeFactory.obj
 0002:000202c0       ?FactorySetGlCompiledName@cGlumShape_RegularPolyhedron@Glumer@@QAEXH@Z 100522c0 f i cGlumShapeFactory.obj
 0002:000203d0       ?FactorySetGuts@cSelectableBase@Glumer@@QAEXPAVcObjectMoveableBase@2@@Z 100523d0 f i cGlumShapeFactory.obj
 0002:00020430       ?FactorySetOnCliced@cGlumShape_RegularPolyhedron@Glumer@@QAEXP6GXI@Z@Z 10052430 f i cGlumShapeFactory.obj
 0002:000204a0       ?FactorySetRadius@cGlumShape_RegularPolyhedron@Glumer@@QAEXM@Z 100524a0 f i cGlumShapeFactory.obj
 0002:00020510       ?FactorySetShape@cGlumShape_RegularPolyhedron@Glumer@@QAEXH@Z 10052510 f i cGlumShapeFactory.obj
 0002:00020580       ?FactorySetXYZ@cGluperCenter@Glumer@@QAEXMMM@Z 10052580 f i cGlumShapeFactory.obj
 0002:00020610       ?FactorySetXYZ@cGluperDirection@Glumer@@QAEXMMM@Z 10052610 f i cGlumShapeFactory.obj
 0002:000206a0       ?FireEventShow@cObjectMoveableBase@Glumer@@SAXAAUPTR@12@@Z 100526a0 f i cGlumShapeFactory.obj
 0002:00020710       ?Get@?$cGlumShapeFactory_ShapeContainer@VcMovement_Camera@Glumer@@@Glumer@@SA?AV?$_Vector_iterator@V?$_Vector_val@U?$_Simple_types@UPTR@cMovement_Camera@Glumer@@@std@@@std@@@std@@IAA_N@Z 10052710 f i cGlumShapeFactory.obj
 0002:000209b0       ?GetAltColour@cHUD_Colour@Glumer@@ABEHHH@Z 100529b0 f i cGlumShapeFactory.obj
 0002:00020a30       ?GetCommand@cGlumGlCommand@Glumer@@QAE?BHXZ 10052a30 f i cGlumShapeFactory.obj
 0002:00020a90       ?GetCompiledName@cGlumGlCommand@Glumer@@QAE?BIXZ 10052a90 f i cGlumShapeFactory.obj
 0002:00020af0       ?GetDeleteAt@cGlumShapeBase@Glumer@@QBEIXZ 10052af0 f i cGlumShapeFactory.obj
 0002:00020b50       ?GetDrawList@cGlumShapeFactoryState@Glumer@@QAEAAV?$vector@UPTR@cObjectMoveableBase@Glumer@@V?$allocator@UPTR@cObjectMoveableBase@Glumer@@@std@@@std@@XZ 10052b50 f i cGlumShapeFactory.obj
 0002:00020bb0       ?GetFloatCount@cGlumGlCommand@Glumer@@QAE?BIXZ 10052bb0 f i cGlumShapeFactory.obj
 0002:00020c10       ?GetFloats@cGlumGlCommand@Glumer@@QAEQBMXZ 10052c10 f i cGlumShapeFactory.obj
 0002:00020c70       ?GetGlumShapeList@cGlumShapeFactoryState@Glumer@@QAEAAV?$vector@IV?$allocator@I@std@@@std@@XZ 10052c70 f i cGlumShapeFactory.obj
 0002:00020cd0       ?GetGlumShapeMap@cGlumShapeFactoryState@Glumer@@QAEAAV?$map@IUPTR@cGlumShapeBase@Glumer@@U?$less@I@std@@V?$allocator@U?$pair@$$CBIUPTR@cGlumShapeBase@Glumer@@@std@@@5@@std@@XZ 10052cd0 f i cGlumShapeFactory.obj
 0002:00020d30       ?GetGlumShapeMapLock@cGlumShapeFactoryState@Glumer@@QAEPAVcMutexWrapper@TimerWrapper@@XZ 10052d30 f i cGlumShapeFactory.obj
 0002:00020d90       ?GetID@cGlumShapeBase@Glumer@@QBEIXZ 10052d90 f i cGlumShapeFactory.obj
 0002:00020df0       ?GetIgnore@cMovementBase@Glumer@@QBE_NXZ 10052df0 f i cGlumShapeFactory.obj
 0002:00020e50       ?GetLineWidth@cGlumShape_SwitchGadget@Glumer@@SAM_N@Z 10052e50 f i cGlumShapeFactory.obj
 0002:00020fe0       ?GetRadius@cGlumShape_RegularPolyhedron@Glumer@@QBEMXZ 10052fe0 f i cGlumShapeFactory.obj
 0002:00021040       ?GetSecondBlue@cHUD_Colour@Glumer@@QBEHXZ 10053040 f i cGlumShapeFactory.obj
 0002:000210b0       ?GetSecondGreen@cHUD_Colour@Glumer@@QBEHXZ 100530b0 f i cGlumShapeFactory.obj
 0002:00021120       ?GetSecondRed@cHUD_Colour@Glumer@@QBEHXZ 10053120 f i cGlumShapeFactory.obj
 0002:00021190       ?GetSelectableDrawListLock@cGlumShapeFactoryState@Glumer@@QAEPAVcMutexWrapper@TimerWrapper@@XZ 10053190 f i cGlumShapeFactory.obj
 0002:000211f0       ?GetXYZ@cGluperCenter@Glumer@@QBEXAAM00@Z 100531f0 f i cGlumShapeFactory.obj
 0002:00021270       ?GetXYZ@cGluperDirection@Glumer@@QBEXAAM00@Z 10053270 f i cGlumShapeFactory.obj
 0002:000212f0       ?GetXYZAngleAndIncrement@cGluperOrientation@Glumer@@QBEXAAM0000@Z 100532f0 f i cGlumShapeFactory.obj
 0002:00021390       ?GlCommand@cGlumShape_RegularPolyhedron@Glumer@@ABEXPAVcGlumGlCommand@2@M@Z 10053390 f i cGlumShapeFactory.obj
 0002:00021530       ?GlCompiledName@cGlumShape_RegularPolyhedron@Glumer@@ABEXPAVcGlumGlCommand@2@M@Z 10053530 f i cGlumShapeFactory.obj
 0002:000215f0       ?HasAborted@cTimerWrapper@TimerWrapper@@QAE_NXZ 100535f0 f i cGlumShapeFactory.obj
 0002:00021650       ?Init@cMovement_Camera@Glumer@@QAEXI@Z 10053650 f i cGlumShapeFactory.obj
 0002:000216c0       ?IsMarkedForDelete@cGlumShapeBase@Glumer@@QBE_NXZ 100536c0 f i cGlumShapeFactory.obj
 0002:00021720       ?IsShown@cGlumShapeBase@Glumer@@QBE_NXZ 10053720 f i cGlumShapeFactory.obj
 0002:000217e0       ?NormaliseDirection@cGlumShape_RegularPolyhedron@Glumer@@UAEXXZ 100537e0 f i cGlumShapeFactory.obj
 0002:00021840       ?Octahedron2@cGlumShape_RegularPolyhedron@Glumer@@ABEXM@Z 10053840 f i cGlumShapeFactory.obj
 0002:000223d0       ?Purge@?$cGlumShapeFactory_ShapeContainer@VcGlumShape_Console@Glumer@@@Glumer@@SAXXZ 100543d0 f i cGlumShapeFactory.obj
 0002:00022750       ?Purge@?$cGlumShapeFactory_ShapeContainer@VcGlumShape_RegularPolyhedron@Glumer@@@Glumer@@SAXXZ 10054750 f i cGlumShapeFactory.obj
 0002:00022ad0       ?Purge@?$cGlumShapeFactory_ShapeContainer@VcGlumShape_SwitchGadget@Glumer@@@Glumer@@SAXXZ 10054ad0 f i cGlumShapeFactory.obj
 0002:00022e50       ?Purge@?$cGlumShapeFactory_ShapeContainer@VcMovement_Camera@Glumer@@@Glumer@@SAXXZ 10054e50 f i cGlumShapeFactory.obj
 0002:000231d0       ?Reset@cTimer_PistonMotion@Glumer@@QAEXMMMM_N@Z 100551d0 f i cGlumShapeFactory.obj
 0002:000232f0       ?SelectableDrawListAdd@cGlumShapeFactoryState@Glumer@@QAEXPAVcObjectBase@2@I@Z 100552f0 f i cGlumShapeFactory.obj
 0002:00023410       ?SetPause@cTimerWrapper@TimerWrapper@@QAEX_N@Z 10055410 f i cGlumShapeFactory.obj
 0002:00023490       ?SetPause@cTimer_PistonMotion@Glumer@@QAEX_N@Z 10055490 f i cGlumShapeFactory.obj
 0002:00023500       ?SetRange@cTimer_PistonMotion@Glumer@@QAEXMMMM@Z 10055500 f i cGlumShapeFactory.obj
 0002:000235a0       ?SetScale@cGlumShape_Console@Glumer@@QAEXM@Z 100555a0 f i cGlumShapeFactory.obj
 0002:00023610       ?Show@cGlumShape_RegularPolyhedron@Glumer@@ABEXM@Z 10055610 f i cGlumShapeFactory.obj
 0002:00023c90       ?Show@cGlumShape_SwitchGadget@Glumer@@AAEXXZ 10055c90 f i cGlumShapeFactory.obj
 0002:00024570       ?Start@?$cGlumShapeFactory_ShapeContainer@VcGlumShape_Console@Glumer@@@Glumer@@SAXPAVcMovementBase@2@@Z 10056570 f i cGlumShapeFactory.obj
 0002:00024730       ?Start@?$cGlumShapeFactory_ShapeContainer@VcGlumShape_RegularPolyhedron@Glumer@@@Glumer@@SAXPAVcMovementBase@2@@Z 10056730 f i cGlumShapeFactory.obj
 0002:000248f0       ?Start@?$cGlumShapeFactory_ShapeContainer@VcGlumShape_SwitchGadget@Glumer@@@Glumer@@SAXPAVcMovementBase@2@@Z 100568f0 f i cGlumShapeFactory.obj
 0002:00024ab0       ?Start@cGlumShapeBase@Glumer@@UAEXPAVcMovementBase@2@@Z 10056ab0 f i cGlumShapeFactory.obj
 0002:00024b10       ?Start@cGlumShapeFactory@Glumer@@QAEXI@Z 10056b10 f   cGlumShapeFactory.obj
 0002:00024d00       ?Start@cGlumShape_SwitchGadget@Glumer@@UAEXPAVcMovementBase@2@@Z 10056d00 f i cGlumShapeFactory.obj
 0002:00024ee0       ?Start@cMovement_Camera@Glumer@@UAEXPAVcMovementBase@2@@Z 10056ee0 f i cGlumShapeFactory.obj
 0002:00024f70       ?Stop@cGlumShapeBase@Glumer@@UAEXXZ 10056f70 f i cGlumShapeFactory.obj
 0002:00024fd0       ?Stop@cGlumShape_RegularPolyhedron@Glumer@@UAEXXZ 10056fd0 f i cGlumShapeFactory.obj
 0002:00025050       ?Stop@cGlumShape_SwitchGadget@Glumer@@UAEXXZ 10057050 f i cGlumShapeFactory.obj
 0002:00025120       ?_Adjust_manually_vector_aligned@std@@YAXAAPAXAAI@Z 10057120 f i cGlumShapeFactory.obj
 0002:000252f0       ?_Adopt@_Iterator_base12@std@@QAEXPBU_Container_base12@2@@Z 100572f0 f i cGlumShapeFactory.obj
 0002:00025480       ?_Alloc_proxy@?$_Tree_comp_alloc@V?$_Tmap_traits@IUPTR@cGlumShapeBase@Glumer@@U?$less@I@std@@V?$allocator@U?$pair@$$CBIUPTR@cGlumShapeBase@Glumer@@@std@@@5@$0A@@std@@@std@@QAEXXZ 10057480 f i cGlumShapeFactory.obj
 0002:000255b0       ?_Alloc_proxy@?$_Vector_alloc@U?$_Vec_base_types@IV?$allocator@I@std@@@std@@@std@@QAEXXZ 100575b0 f i cGlumShapeFactory.obj
 0002:000256e0       ?_Alloc_proxy@?$_Vector_alloc@U?$_Vec_base_types@PAVcObjectBase@Glumer@@V?$allocator@PAVcObjectBase@Glumer@@@std@@@std@@@std@@QAEXXZ 100576e0 f i cGlumShapeFactory.obj
 0002:00025810       ?_Alloc_proxy@?$_Vector_alloc@U?$_Vec_base_types@UPTR@cGlumShape_Console@Glumer@@V?$allocator@UPTR@cGlumShape_Console@Glumer@@@std@@@std@@@std@@QAEXXZ 10057810 f i cGlumShapeFactory.obj
 0002:00025940       ?_Alloc_proxy@?$_Vector_alloc@U?$_Vec_base_types@UPTR@cGlumShape_RegularPolyhedron@Glumer@@V?$allocator@UPTR@cGlumShape_RegularPolyhedron@Glumer@@@std@@@std@@@std@@QAEXXZ 10057940 f i cGlumShapeFactory.obj
 0002:00025a70       ?_Alloc_proxy@?$_Vector_alloc@U?$_Vec_base_types@UPTR@cGlumShape_SwitchGadget@Glumer@@V?$allocator@UPTR@cGlumShape_SwitchGadget@Glumer@@@std@@@std@@@std@@QAEXXZ 10057a70 f i cGlumShapeFactory.obj
 0002:00025ba0       ?_Alloc_proxy@?$_Vector_alloc@U?$_Vec_base_types@UPTR@cMovement_Camera@Glumer@@V?$allocator@UPTR@cMovement_Camera@Glumer@@@std@@@std@@@std@@QAEXXZ 10057ba0 f i cGlumShapeFactory.obj
 0002:00025cd0       ?_Alloc_proxy@?$_Vector_alloc@U?$_Vec_base_types@UPTR@cObjectMoveableBase@Glumer@@V?$allocator@UPTR@cObjectMoveableBase@Glumer@@@std@@@std@@@std@@QAEXXZ 10057cd0 f i cGlumShapeFactory.obj
 0002:00025e00       ?_Allocate@_Default_allocate_traits@std@@SAPAXI@Z 10057e00 f i cGlumShapeFactory.obj
 0002:00025e60       ?_Buyheadnode@?$_Tree_comp_alloc@V?$_Tmap_traits@IUPTR@cGlumShapeBase@Glumer@@U?$less@I@std@@V?$allocator@U?$pair@$$CBIUPTR@cGlumShapeBase@Glumer@@@std@@@5@$0A@@std@@@std@@QAEPAU?$_Tree_node@U?$pair@$$CBIUPTR@cGlumShapeBase@Glumer@@@std@@PAX@2@XZ 10057e60 f i cGlumShapeFactory.obj
 0002:00026010       ?_Buynode0@?$_Tree_comp_alloc@V?$_Tmap_traits@IUPTR@cGlumShapeBase@Glumer@@U?$less@I@std@@V?$allocator@U?$pair@$$CBIUPTR@cGlumShapeBase@Glumer@@@std@@@5@$0A@@std@@@std@@QAEPAU?$_Tree_node@U?$pair@$$CBIUPTR@cGlumShapeBase@Glumer@@@std@@PAX@2@XZ 10058010 f i cGlumShapeFactory.obj
 0002:00026190       ?_Calculate_growth@?$vector@IV?$allocator@I@std@@@std@@ABEII@Z 10058190 f i cGlumShapeFactory.obj
 0002:00026240       ?_Calculate_growth@?$vector@PAVcObjectBase@Glumer@@V?$allocator@PAVcObjectBase@Glumer@@@std@@@std@@ABEII@Z 10058240 f i cGlumShapeFactory.obj
 0002:000262f0       ?_Calculate_growth@?$vector@UPTR@cGlumShape_Console@Glumer@@V?$allocator@UPTR@cGlumShape_Console@Glumer@@@std@@@std@@ABEII@Z 100582f0 f i cGlumShapeFactory.obj
 0002:000263a0       ?_Calculate_growth@?$vector@UPTR@cGlumShape_RegularPolyhedron@Glumer@@V?$allocator@UPTR@cGlumShape_RegularPolyhedron@Glumer@@@std@@@std@@ABEII@Z 100583a0 f i cGlumShapeFactory.obj
 0002:00026450       ?_Calculate_growth@?$vector@UPTR@cGlumShape_SwitchGadget@Glumer@@V?$allocator@UPTR@cGlumShape_SwitchGadget@Glumer@@@std@@@std@@ABEII@Z 10058450 f i cGlumShapeFactory.obj
 0002:00026500       ?_Calculate_growth@?$vector@UPTR@cMovementBase@Glumer@@V?$allocator@UPTR@cMovementBase@Glumer@@@std@@@std@@ABEII@Z 10058500 f i cGlumShapeFactory.obj
 0002:000265b0       ?_Calculate_growth@?$vector@UPTR@cMovement_Camera@Glumer@@V?$allocator@UPTR@cMovement_Camera@Glumer@@@std@@@std@@ABEII@Z 100585b0 f i cGlumShapeFactory.obj
 0002:00026660       ?_Calculate_growth@?$vector@UPTR@cObjectMoveableBase@Glumer@@V?$allocator@UPTR@cObjectMoveableBase@Glumer@@@std@@@std@@ABEII@Z 10058660 f i cGlumShapeFactory.obj
 0002:00026710       ?_Change_array@?$vector@IV?$allocator@I@std@@@std@@AAEXQAIII@Z 10058710 f i cGlumShapeFactory.obj
 0002:00026810       ?_Change_array@?$vector@PAVcObjectBase@Glumer@@V?$allocator@PAVcObjectBase@Glumer@@@std@@@std@@AAEXQAPAVcObjectBase@Glumer@@II@Z 10058810 f i cGlumShapeFactory.obj
 0002:00026910       ?_Change_array@?$vector@UPTR@cGlumShape_Console@Glumer@@V?$allocator@UPTR@cGlumShape_Console@Glumer@@@std@@@std@@AAEXQAUPTR@cGlumShape_Console@Glumer@@II@Z 10058910 f i cGlumShapeFactory.obj
 0002:00026a10       ?_Change_array@?$vector@UPTR@cGlumShape_RegularPolyhedron@Glumer@@V?$allocator@UPTR@cGlumShape_RegularPolyhedron@Glumer@@@std@@@std@@AAEXQAUPTR@cGlumShape_RegularPolyhedron@Glumer@@II@Z 10058a10 f i cGlumShapeFactory.obj
 0002:00026b10       ?_Change_array@?$vector@UPTR@cGlumShape_SwitchGadget@Glumer@@V?$allocator@UPTR@cGlumShape_SwitchGadget@Glumer@@@std@@@std@@AAEXQAUPTR@cGlumShape_SwitchGadget@Glumer@@II@Z 10058b10 f i cGlumShapeFactory.obj
 0002:00026c10       ?_Change_array@?$vector@UPTR@cMovementBase@Glumer@@V?$allocator@UPTR@cMovementBase@Glumer@@@std@@@std@@AAEXQAUPTR@cMovementBase@Glumer@@II@Z 10058c10 f i cGlumShapeFactory.obj
 0002:00026d10       ?_Change_array@?$vector@UPTR@cMovement_Camera@Glumer@@V?$allocator@UPTR@cMovement_Camera@Glumer@@@std@@@std@@AAEXQAUPTR@cMovement_Camera@Glumer@@II@Z 10058d10 f i cGlumShapeFactory.obj
 0002:00026e10       ?_Change_array@?$vector@UPTR@cObjectMoveableBase@Glumer@@V?$allocator@UPTR@cObjectMoveableBase@Glumer@@@std@@@std@@AAEXQAUPTR@cObjectMoveableBase@Glumer@@II@Z 10058e10 f i cGlumShapeFactory.obj
 0002:00026f10       ?_Clrcont@_Iterator_base12@std@@QAEXXZ 10058f10 f i cGlumShapeFactory.obj
 0002:00026fb0       ?_Compare@?$_Tree@V?$_Tmap_traits@IUPTR@cGlumShapeBase@Glumer@@U?$less@I@std@@V?$allocator@U?$pair@$$CBIUPTR@cGlumShapeBase@Glumer@@@std@@@5@$0A@@std@@@std@@IBE_NABI0@Z 10058fb0 f i cGlumShapeFactory.obj
 0002:00027030       ?_Compat@?$_Vector_const_iterator@V?$_Vector_val@U?$_Simple_types@I@std@@@std@@@std@@QBEXABV12@@Z 10059030 f i cGlumShapeFactory.obj
 0002:00027120       ?_Compat@?$_Vector_const_iterator@V?$_Vector_val@U?$_Simple_types@UPTR@cGlumShape_Console@Glumer@@@std@@@std@@@std@@QBEXABV12@@Z 10059120 f i cGlumShapeFactory.obj
 0002:00027210       ?_Compat@?$_Vector_const_iterator@V?$_Vector_val@U?$_Simple_types@UPTR@cGlumShape_RegularPolyhedron@Glumer@@@std@@@std@@@std@@QBEXABV12@@Z 10059210 f i cGlumShapeFactory.obj
 0002:00027300       ?_Compat@?$_Vector_const_iterator@V?$_Vector_val@U?$_Simple_types@UPTR@cGlumShape_SwitchGadget@Glumer@@@std@@@std@@@std@@QBEXABV12@@Z 10059300 f i cGlumShapeFactory.obj
 0002:000273f0       ?_Compat@?$_Vector_const_iterator@V?$_Vector_val@U?$_Simple_types@UPTR@cMovement_Camera@Glumer@@@std@@@std@@@std@@QBEXABV12@@Z 100593f0 f i cGlumShapeFactory.obj
 0002:000274e0       ?_Construct@?$_Tree_comp_alloc@V?$_Tmap_traits@IUPTR@cGlumShapeBase@Glumer@@U?$less@I@std@@V?$allocator@U?$pair@$$CBIUPTR@cGlumShapeBase@Glumer@@@std@@@5@$0A@@std@@@std@@QAEXXZ 100594e0 f i cGlumShapeFactory.obj
 0002:000275e0       ?_Destroy@?$vector@IV?$allocator@I@std@@@std@@AAEXPAI0@Z 100595e0 f i cGlumShapeFactory.obj
 0002:00027660       ?_Destroy@?$vector@PAVcObjectBase@Glumer@@V?$allocator@PAVcObjectBase@Glumer@@@std@@@std@@AAEXPAPAVcObjectBase@Glumer@@0@Z 10059660 f i cGlumShapeFactory.obj
 0002:000276e0       ?_Destroy@?$vector@UPTR@cGlumShape_Console@Glumer@@V?$allocator@UPTR@cGlumShape_Console@Glumer@@@std@@@std@@AAEXPAUPTR@cGlumShape_Console@Glumer@@0@Z 100596e0 f i cGlumShapeFactory.obj
 0002:00027760       ?_Destroy@?$vector@UPTR@cGlumShape_RegularPolyhedron@Glumer@@V?$allocator@UPTR@cGlumShape_RegularPolyhedron@Glumer@@@std@@@std@@AAEXPAUPTR@cGlumShape_RegularPolyhedron@Glumer@@0@Z 10059760 f i cGlumShapeFactory.obj
 0002:000277e0       ?_Destroy@?$vector@UPTR@cGlumShape_SwitchGadget@Glumer@@V?$allocator@UPTR@cGlumShape_SwitchGadget@Glumer@@@std@@@std@@AAEXPAUPTR@cGlumShape_SwitchGadget@Glumer@@0@Z 100597e0 f i cGlumShapeFactory.obj
 0002:00027860       ?_Destroy@?$vector@UPTR@cMovementBase@Glumer@@V?$allocator@UPTR@cMovementBase@Glumer@@@std@@@std@@AAEXPAUPTR@cMovementBase@Glumer@@0@Z 10059860 f i cGlumShapeFactory.obj
 0002:000278e0       ?_Destroy@?$vector@UPTR@cMovement_Camera@Glumer@@V?$allocator@UPTR@cMovement_Camera@Glumer@@@std@@@std@@AAEXPAUPTR@cMovement_Camera@Glumer@@0@Z 100598e0 f i cGlumShapeFactory.obj
 0002:00027960       ?_Destroy@?$vector@UPTR@cObjectMoveableBase@Glumer@@V?$allocator@UPTR@cObjectMoveableBase@Glumer@@@std@@@std@@AAEXPAUPTR@cObjectMoveableBase@Glumer@@0@Z 10059960 f i cGlumShapeFactory.obj
 0002:000279e0       ?_Destroy_if_node@?$_Tree@V?$_Tmap_traits@IUPTR@cGlumShapeBase@Glumer@@U?$less@I@std@@V?$allocator@U?$pair@$$CBIUPTR@cGlumShapeBase@Glumer@@@std@@@5@$0A@@std@@@std@@IAEXPAU?$_Tree_node@U?$pair@$$CBIUPTR@cGlumShapeBase@Glumer@@@std@@PAX@2@@Z 100599e0 f i cGlumShapeFactory.obj
 0002:00027a80       ?_Erase@?$_Tree@V?$_Tmap_traits@IUPTR@cGlumShapeBase@Glumer@@U?$less@I@std@@V?$allocator@U?$pair@$$CBIUPTR@cGlumShapeBase@Glumer@@@std@@@5@$0A@@std@@@std@@IAEXPAU?$_Tree_node@U?$pair@$$CBIUPTR@cGlumShapeBase@Glumer@@@std@@PAX@2@@Z 10059a80 f i cGlumShapeFactory.obj
 0002:00027b60       ?_Extract@?$_Tree_val@U?$_Tree_simple_types@U?$pair@$$CBIUPTR@cGlumShapeBase@Glumer@@@std@@@std@@@std@@QAEPAU?$_Tree_node@U?$pair@$$CBIUPTR@cGlumShapeBase@Glumer@@@std@@PAX@2@V?$_Tree_const_iterator@V?$_Tree_val@U?$_Tree_simple_types@U?$pair@$$CBIUPTR@cGlumShapeBase@Glumer@@@std@@@std@@@std@@@2@@Z 10059b60 f i cGlumShapeFactory.obj
 0002:00028200       ?_Free_proxy@?$_Tree_comp_alloc@V?$_Tmap_traits@IUPTR@cGlumShapeBase@Glumer@@U?$less@I@std@@V?$allocator@U?$pair@$$CBIUPTR@cGlumShapeBase@Glumer@@@std@@@5@$0A@@std@@@std@@QAEXXZ 1005a200 f i cGlumShapeFactory.obj
 0002:00028300       ?_Free_proxy@?$_Vector_alloc@U?$_Vec_base_types@IV?$allocator@I@std@@@std@@@std@@QAEXXZ 1005a300 f i cGlumShapeFactory.obj
 0002:00028400       ?_Free_proxy@?$_Vector_alloc@U?$_Vec_base_types@PAVcObjectBase@Glumer@@V?$allocator@PAVcObjectBase@Glumer@@@std@@@std@@@std@@QAEXXZ 1005a400 f i cGlumShapeFactory.obj
 0002:00028500       ?_Free_proxy@?$_Vector_alloc@U?$_Vec_base_types@UPTR@cGlumShape_Console@Glumer@@V?$allocator@UPTR@cGlumShape_Console@Glumer@@@std@@@std@@@std@@QAEXXZ 1005a500 f i cGlumShapeFactory.obj
 0002:00028600       ?_Free_proxy@?$_Vector_alloc@U?$_Vec_base_types@UPTR@cGlumShape_RegularPolyhedron@Glumer@@V?$allocator@UPTR@cGlumShape_RegularPolyhedron@Glumer@@@std@@@std@@@std@@QAEXXZ 1005a600 f i cGlumShapeFactory.obj
 0002:00028700       ?_Free_proxy@?$_Vector_alloc@U?$_Vec_base_types@UPTR@cGlumShape_SwitchGadget@Glumer@@V?$allocator@UPTR@cGlumShape_SwitchGadget@Glumer@@@std@@@std@@@std@@QAEXXZ 1005a700 f i cGlumShapeFactory.obj
 0002:00028800       ?_Free_proxy@?$_Vector_alloc@U?$_Vec_base_types@UPTR@cMovementBase@Glumer@@V?$allocator@UPTR@cMovementBase@Glumer@@@std@@@std@@@std@@QAEXXZ 1005a800 f i cGlumShapeFactory.obj
 0002:00028900       ?_Free_proxy@?$_Vector_alloc@U?$_Vec_base_types@UPTR@cMovement_Camera@Glumer@@V?$allocator@UPTR@cMovement_Camera@Glumer@@@std@@@std@@@std@@QAEXXZ 1005a900 f i cGlumShapeFactory.obj
 0002:00028a00       ?_Free_proxy@?$_Vector_alloc@U?$_Vec_base_types@UPTR@cObjectMoveableBase@Glumer@@V?$allocator@UPTR@cObjectMoveableBase@Glumer@@@std@@@std@@@std@@QAEXXZ 1005aa00 f i cGlumShapeFactory.obj
 0002:00028b00       ?_Freeheadnode@?$_Tree_comp_alloc@V?$_Tmap_traits@IUPTR@cGlumShapeBase@Glumer@@U?$less@I@std@@V?$allocator@U?$pair@$$CBIUPTR@cGlumShapeBase@Glumer@@@std@@@5@$0A@@std@@@std@@QAEXPAU?$_Tree_node@U?$pair@$$CBIUPTR@cGlumShapeBase@Glumer@@@std@@PAX@2@@Z 1005ab00 f i cGlumShapeFactory.obj
 0002:00028b70       ?_Freenode0@?$_Tree_comp_alloc@V?$_Tmap_traits@IUPTR@cGlumShapeBase@Glumer@@U?$less@I@std@@V?$allocator@U?$pair@$$CBIUPTR@cGlumShapeBase@Glumer@@@std@@@5@$0A@@std@@@std@@QAEXPAU?$_Tree_node@U?$pair@$$CBIUPTR@cGlumShapeBase@Glumer@@@std@@PAX@2@@Z 1005ab70 f i cGlumShapeFactory.obj
 0002:00028be0       ?_Get_data@?$_Tree_comp_alloc@V?$_Tmap_traits@IUPTR@cGlumShapeBase@Glumer@@U?$less@I@std@@V?$allocator@U?$pair@$$CBIUPTR@cGlumShapeBase@Glumer@@@std@@@5@$0A@@std@@@std@@QAEAAV?$_Tree_val@U?$_Tree_simple_types@U?$pair@$$CBIUPTR@cGlumShapeBase@Glumer@@@std@@@std@@@2@XZ 1005abe0 f i cGlumShapeFactory.obj
 0002:00028c80       ?_Get_data@?$_Tree_comp_alloc@V?$_Tmap_traits@IUPTR@cGlumShapeBase@Glumer@@U?$less@I@std@@V?$allocator@U?$pair@$$CBIUPTR@cGlumShapeBase@Glumer@@@std@@@5@$0A@@std@@@std@@QBEABV?$_Tree_val@U?$_Tree_simple_types@U?$pair@$$CBIUPTR@cGlumShapeBase@Glumer@@@std@@@std@@@2@XZ 1005ac80 f i cGlumShapeFactory.obj
 0002:00028d20       ?_Get_data@?$_Vector_alloc@U?$_Vec_base_types@IV?$allocator@I@std@@@std@@@std@@QAEAAV?$_Vector_val@U?$_Simple_types@I@std@@@2@XZ 1005ad20 f i cGlumShapeFactory.obj
 0002:00028db0       ?_Get_data@?$_Vector_alloc@U?$_Vec_base_types@IV?$allocator@I@std@@@std@@@std@@QBEABV?$_Vector_val@U?$_Simple_types@I@std@@@2@XZ 1005adb0 f i cGlumShapeFactory.obj
 0002:00028e40       ?_Get_data@?$_Vector_alloc@U?$_Vec_base_types@PAVcObjectBase@Glumer@@V?$allocator@PAVcObjectBase@Glumer@@@std@@@std@@@std@@QAEAAV?$_Vector_val@U?$_Simple_types@PAVcObjectBase@Glumer@@@std@@@2@XZ 1005ae40 f i cGlumShapeFactory.obj
 0002:00028ed0       ?_Get_data@?$_Vector_alloc@U?$_Vec_base_types@PAVcObjectBase@Glumer@@V?$allocator@PAVcObjectBase@Glumer@@@std@@@std@@@std@@QBEABV?$_Vector_val@U?$_Simple_types@PAVcObjectBase@Glumer@@@std@@@2@XZ 1005aed0 f i cGlumShapeFactory.obj
 0002:00028f60       ?_Get_data@?$_Vector_alloc@U?$_Vec_base_types@UPTR@cGlumShape_Console@Glumer@@V?$allocator@UPTR@cGlumShape_Console@Glumer@@@std@@@std@@@std@@QAEAAV?$_Vector_val@U?$_Simple_types@UPTR@cGlumShape_Console@Glumer@@@std@@@2@XZ 1005af60 f i cGlumShapeFactory.obj
 0002:00028ff0       ?_Get_data@?$_Vector_alloc@U?$_Vec_base_types@UPTR@cGlumShape_Console@Glumer@@V?$allocator@UPTR@cGlumShape_Console@Glumer@@@std@@@std@@@std@@QBEABV?$_Vector_val@U?$_Simple_types@UPTR@cGlumShape_Console@Glumer@@@std@@@2@XZ 1005aff0 f i cGlumShapeFactory.obj
 0002:00029080       ?_Get_data@?$_Vector_alloc@U?$_Vec_base_types@UPTR@cGlumShape_RegularPolyhedron@Glumer@@V?$allocator@UPTR@cGlumShape_RegularPolyhedron@Glumer@@@std@@@std@@@std@@QAEAAV?$_Vector_val@U?$_Simple_types@UPTR@cGlumShape_RegularPolyhedron@Glumer@@@std@@@2@XZ 1005b080 f i cGlumShapeFactory.obj
 0002:00029110       ?_Get_data@?$_Vector_alloc@U?$_Vec_base_types@UPTR@cGlumShape_RegularPolyhedron@Glumer@@V?$allocator@UPTR@cGlumShape_RegularPolyhedron@Glumer@@@std@@@std@@@std@@QBEABV?$_Vector_val@U?$_Simple_types@UPTR@cGlumShape_RegularPolyhedron@Glumer@@@std@@@2@XZ 1005b110 f i cGlumShapeFactory.obj
 0002:000291a0       ?_Get_data@?$_Vector_alloc@U?$_Vec_base_types@UPTR@cGlumShape_SwitchGadget@Glumer@@V?$allocator@UPTR@cGlumShape_SwitchGadget@Glumer@@@std@@@std@@@std@@QAEAAV?$_Vector_val@U?$_Simple_types@UPTR@cGlumShape_SwitchGadget@Glumer@@@std@@@2@XZ 1005b1a0 f i cGlumShapeFactory.obj
 0002:00029230       ?_Get_data@?$_Vector_alloc@U?$_Vec_base_types@UPTR@cGlumShape_SwitchGadget@Glumer@@V?$allocator@UPTR@cGlumShape_SwitchGadget@Glumer@@@std@@@std@@@std@@QBEABV?$_Vector_val@U?$_Simple_types@UPTR@cGlumShape_SwitchGadget@Glumer@@@std@@@2@XZ 1005b230 f i cGlumShapeFactory.obj
 0002:000292c0       ?_Get_data@?$_Vector_alloc@U?$_Vec_base_types@UPTR@cMovementBase@Glumer@@V?$allocator@UPTR@cMovementBase@Glumer@@@std@@@std@@@std@@QAEAAV?$_Vector_val@U?$_Simple_types@UPTR@cMovementBase@Glumer@@@std@@@2@XZ 1005b2c0 f i cGlumShapeFactory.obj
 0002:00029350       ?_Get_data@?$_Vector_alloc@U?$_Vec_base_types@UPTR@cMovementBase@Glumer@@V?$allocator@UPTR@cMovementBase@Glumer@@@std@@@std@@@std@@QBEABV?$_Vector_val@U?$_Simple_types@UPTR@cMovementBase@Glumer@@@std@@@2@XZ 1005b350 f i cGlumShapeFactory.obj
 0002:000293e0       ?_Get_data@?$_Vector_alloc@U?$_Vec_base_types@UPTR@cMovement_Camera@Glumer@@V?$allocator@UPTR@cMovement_Camera@Glumer@@@std@@@std@@@std@@QAEAAV?$_Vector_val@U?$_Simple_types@UPTR@cMovement_Camera@Glumer@@@std@@@2@XZ 1005b3e0 f i cGlumShapeFactory.obj
 0002:00029470       ?_Get_data@?$_Vector_alloc@U?$_Vec_base_types@UPTR@cMovement_Camera@Glumer@@V?$allocator@UPTR@cMovement_Camera@Glumer@@@std@@@std@@@std@@QBEABV?$_Vector_val@U?$_Simple_types@UPTR@cMovement_Camera@Glumer@@@std@@@2@XZ 1005b470 f i cGlumShapeFactory.obj
 0002:00029500       ?_Get_data@?$_Vector_alloc@U?$_Vec_base_types@UPTR@cObjectMoveableBase@Glumer@@V?$allocator@UPTR@cObjectMoveableBase@Glumer@@@std@@@std@@@std@@QAEAAV?$_Vector_val@U?$_Simple_types@UPTR@cObjectMoveableBase@Glumer@@@std@@@2@XZ 1005b500 f i cGlumShapeFactory.obj
 0002:00029590       ?_Get_data@?$_Vector_alloc@U?$_Vec_base_types@UPTR@cObjectMoveableBase@Glumer@@V?$allocator@UPTR@cObjectMoveableBase@Glumer@@@std@@@std@@@std@@QBEABV?$_Vector_val@U?$_Simple_types@UPTR@cObjectMoveableBase@Glumer@@@std@@@2@XZ 1005b590 f i cGlumShapeFactory.obj
 0002:00029620       ?_Get_first@?$_Compressed_pair@U?$less@I@std@@V?$_Compressed_pair@V?$allocator@U?$_Tree_node@U?$pair@$$CBIUPTR@cGlumShapeBase@Glumer@@@std@@PAX@std@@@std@@V?$_Tree_val@U?$_Tree_simple_types@U?$pair@$$CBIUPTR@cGlumShapeBase@Glumer@@@std@@@std@@@2@$00@2@$00@std@@QAEAAU?$less@I@2@XZ 1005b620 f i cGlumShapeFactory.obj
 0002:000296b0       ?_Get_first@?$_Compressed_pair@U?$less@I@std@@V?$_Compressed_pair@V?$allocator@U?$_Tree_node@U?$pair@$$CBIUPTR@cGlumShapeBase@Glumer@@@std@@PAX@std@@@std@@V?$_Tree_val@U?$_Tree_simple_types@U?$pair@$$CBIUPTR@cGlumShapeBase@Glumer@@@std@@@std@@@2@$00@2@$00@std@@QBEABU?$less@I@2@XZ 1005b6b0 f i cGlumShapeFactory.obj
 0002:00029740       ?_Get_first@?$_Compressed_pair@V?$allocator@I@std@@V?$_Vector_val@U?$_Simple_types@I@std@@@2@$00@std@@QAEAAV?$allocator@I@2@XZ 1005b740 f i cGlumShapeFactory.obj
 0002:000297d0       ?_Get_first@?$_Compressed_pair@V?$allocator@I@std@@V?$_Vector_val@U?$_Simple_types@I@std@@@2@$00@std@@QBEABV?$allocator@I@2@XZ 1005b7d0 f i cGlumShapeFactory.obj
 0002:00029860       ?_Get_first@?$_Compressed_pair@V?$allocator@PAVcObjectBase@Glumer@@@std@@V?$_Vector_val@U?$_Simple_types@PAVcObjectBase@Glumer@@@std@@@2@$00@std@@QAEAAV?$allocator@PAVcObjectBase@Glumer@@@2@XZ 1005b860 f i cGlumShapeFactory.obj
 0002:000298f0       ?_Get_first@?$_Compressed_pair@V?$allocator@PAVcObjectBase@Glumer@@@std@@V?$_Vector_val@U?$_Simple_types@PAVcObjectBase@Glumer@@@std@@@2@$00@std@@QBEABV?$allocator@PAVcObjectBase@Glumer@@@2@XZ 1005b8f0 f i cGlumShapeFactory.obj
 0002:00029980       ?_Get_first@?$_Compressed_pair@V?$allocator@U?$_Tree_node@U?$pair@$$CBIUPTR@cGlumShapeBase@Glumer@@@std@@PAX@std@@@std@@V?$_Tree_val@U?$_Tree_simple_types@U?$pair@$$CBIUPTR@cGlumShapeBase@Glumer@@@std@@@std@@@2@$00@std@@QAEAAV?$allocator@U?$_Tree_node@U?$pair@$$CBIUPTR@cGlumShapeBase@Glumer@@@std@@PAX@std@@@2@XZ 1005b980 f i cGlumShapeFactory.obj
 0002:00029a10       ?_Get_first@?$_Compressed_pair@V?$allocator@U?$_Tree_node@U?$pair@$$CBIUPTR@cGlumShapeBase@Glumer@@@std@@PAX@std@@@std@@V?$_Tree_val@U?$_Tree_simple_types@U?$pair@$$CBIUPTR@cGlumShapeBase@Glumer@@@std@@@std@@@2@$00@std@@QBEABV?$allocator@U?$_Tree_node@U?$pair@$$CBIUPTR@cGlumShapeBase@Glumer@@@std@@PAX@std@@@2@XZ 1005ba10 f i cGlumShapeFactory.obj
 0002:00029aa0       ?_Get_first@?$_Compressed_pair@V?$allocator@UPTR@cGlumShape_Console@Glumer@@@std@@V?$_Vector_val@U?$_Simple_types@UPTR@cGlumShape_Console@Glumer@@@std@@@2@$00@std@@QAEAAV?$allocator@UPTR@cGlumShape_Console@Glumer@@@2@XZ 1005baa0 f i cGlumShapeFactory.obj
 0002:00029b30       ?_Get_first@?$_Compressed_pair@V?$allocator@UPTR@cGlumShape_Console@Glumer@@@std@@V?$_Vector_val@U?$_Simple_types@UPTR@cGlumShape_Console@Glumer@@@std@@@2@$00@std@@QBEABV?$allocator@UPTR@cGlumShape_Console@Glumer@@@2@XZ 1005bb30 f i cGlumShapeFactory.obj
 0002:00029bc0       ?_Get_first@?$_Compressed_pair@V?$allocator@UPTR@cGlumShape_RegularPolyhedron@Glumer@@@std@@V?$_Vector_val@U?$_Simple_types@UPTR@cGlumShape_RegularPolyhedron@Glumer@@@std@@@2@$00@std@@QAEAAV?$allocator@UPTR@cGlumShape_RegularPolyhedron@Glumer@@@2@XZ 1005bbc0 f i cGlumShapeFactory.obj
 0002:00029c50       ?_Get_first@?$_Compressed_pair@V?$allocator@UPTR@cGlumShape_RegularPolyhedron@Glumer@@@std@@V?$_Vector_val@U?$_Simple_types@UPTR@cGlumShape_RegularPolyhedron@Glumer@@@std@@@2@$00@std@@QBEABV?$allocator@UPTR@cGlumShape_RegularPolyhedron@Glumer@@@2@XZ 1005bc50 f i cGlumShapeFactory.obj
 0002:00029ce0       ?_Get_first@?$_Compressed_pair@V?$allocator@UPTR@cGlumShape_SwitchGadget@Glumer@@@std@@V?$_Vector_val@U?$_Simple_types@UPTR@cGlumShape_SwitchGadget@Glumer@@@std@@@2@$00@std@@QAEAAV?$allocator@UPTR@cGlumShape_SwitchGadget@Glumer@@@2@XZ 1005bce0 f i cGlumShapeFactory.obj
 0002:00029d70       ?_Get_first@?$_Compressed_pair@V?$allocator@UPTR@cGlumShape_SwitchGadget@Glumer@@@std@@V?$_Vector_val@U?$_Simple_types@UPTR@cGlumShape_SwitchGadget@Glumer@@@std@@@2@$00@std@@QBEABV?$allocator@UPTR@cGlumShape_SwitchGadget@Glumer@@@2@XZ 1005bd70 f i cGlumShapeFactory.obj
 0002:00029e00       ?_Get_first@?$_Compressed_pair@V?$allocator@UPTR@cMovementBase@Glumer@@@std@@V?$_Vector_val@U?$_Simple_types@UPTR@cMovementBase@Glumer@@@std@@@2@$00@std@@QAEAAV?$allocator@UPTR@cMovementBase@Glumer@@@2@XZ 1005be00 f i cGlumShapeFactory.obj
 0002:00029e90       ?_Get_first@?$_Compressed_pair@V?$allocator@UPTR@cMovementBase@Glumer@@@std@@V?$_Vector_val@U?$_Simple_types@UPTR@cMovementBase@Glumer@@@std@@@2@$00@std@@QBEABV?$allocator@UPTR@cMovementBase@Glumer@@@2@XZ 1005be90 f i cGlumShapeFactory.obj
 0002:00029f20       ?_Get_first@?$_Compressed_pair@V?$allocator@UPTR@cMovement_Camera@Glumer@@@std@@V?$_Vector_val@U?$_Simple_types@UPTR@cMovement_Camera@Glumer@@@std@@@2@$00@std@@QAEAAV?$allocator@UPTR@cMovement_Camera@Glumer@@@2@XZ 1005bf20 f i cGlumShapeFactory.obj
 0002:00029fb0       ?_Get_first@?$_Compressed_pair@V?$allocator@UPTR@cMovement_Camera@Glumer@@@std@@V?$_Vector_val@U?$_Simple_types@UPTR@cMovement_Camera@Glumer@@@std@@@2@$00@std@@QBEABV?$allocator@UPTR@cMovement_Camera@Glumer@@@2@XZ 1005bfb0 f i cGlumShapeFactory.obj
 0002:0002a040       ?_Get_first@?$_Compressed_pair@V?$allocator@UPTR@cObjectMoveableBase@Glumer@@@std@@V?$_Vector_val@U?$_Simple_types@UPTR@cObjectMoveableBase@Glumer@@@std@@@2@$00@std@@QAEAAV?$allocator@UPTR@cObjectMoveableBase@Glumer@@@2@XZ 1005c040 f i cGlumShapeFactory.obj
 0002:0002a0d0       ?_Get_first@?$_Compressed_pair@V?$allocator@UPTR@cObjectMoveableBase@Glumer@@@std@@V?$_Vector_val@U?$_Simple_types@UPTR@cObjectMoveableBase@Glumer@@@std@@@2@$00@std@@QBEABV?$allocator@UPTR@cObjectMoveableBase@Glumer@@@2@XZ 1005c0d0 f i cGlumShapeFactory.obj
 0002:0002a160       ?_Get_second@?$_Compressed_pair@U?$less@I@std@@V?$_Compressed_pair@V?$allocator@U?$_Tree_node@U?$pair@$$CBIUPTR@cGlumShapeBase@Glumer@@@std@@PAX@std@@@std@@V?$_Tree_val@U?$_Tree_simple_types@U?$pair@$$CBIUPTR@cGlumShapeBase@Glumer@@@std@@@std@@@2@$00@2@$00@std@@QAEAAV?$_Compressed_pair@V?$allocator@U?$_Tree_node@U?$pair@$$CBIUPTR@cGlumShapeBase@Glumer@@@std@@PAX@std@@@std@@V?$_Tree_val@U?$_Tree_simple_types@U?$pair@$$CBIUPTR@cGlumShapeBase@Glumer@@@std@@@std@@@2@$00@2@XZ 1005c160 f i cGlumShapeFactory.obj
 0002:0002a1f0       ?_Get_second@?$_Compressed_pair@U?$less@I@std@@V?$_Compressed_pair@V?$allocator@U?$_Tree_node@U?$pair@$$CBIUPTR@cGlumShapeBase@Glumer@@@std@@PAX@std@@@std@@V?$_Tree_val@U?$_Tree_simple_types@U?$pair@$$CBIUPTR@cGlumShapeBase@Glumer@@@std@@@std@@@2@$00@2@$00@std@@QBEABV?$_Compressed_pair@V?$allocator@U?$_Tree_node@U?$pair@$$CBIUPTR@cGlumShapeBase@Glumer@@@std@@PAX@std@@@std@@V?$_Tree_val@U?$_Tree_simple_types@U?$pair@$$CBIUPTR@cGlumShapeBase@Glumer@@@std@@@std@@@2@$00@2@XZ 1005c1f0 f i cGlumShapeFactory.obj
 0002:0002a280       ?_Get_second@?$_Compressed_pair@V?$allocator@I@std@@V?$_Vector_val@U?$_Simple_types@I@std@@@2@$00@std@@QAEAAV?$_Vector_val@U?$_Simple_types@I@std@@@2@XZ 1005c280 f i cGlumShapeFactory.obj
 0002:0002a310       ?_Get_second@?$_Compressed_pair@V?$allocator@I@std@@V?$_Vector_val@U?$_Simple_types@I@std@@@2@$00@std@@QBEABV?$_Vector_val@U?$_Simple_types@I@std@@@2@XZ 1005c310 f i cGlumShapeFactory.obj
 0002:0002a3a0       ?_Get_second@?$_Compressed_pair@V?$allocator@PAVcObjectBase@Glumer@@@std@@V?$_Vector_val@U?$_Simple_types@PAVcObjectBase@Glumer@@@std@@@2@$00@std@@QAEAAV?$_Vector_val@U?$_Simple_types@PAVcObjectBase@Glumer@@@std@@@2@XZ 1005c3a0 f i cGlumShapeFactory.obj
 0002:0002a430       ?_Get_second@?$_Compressed_pair@V?$allocator@PAVcObjectBase@Glumer@@@std@@V?$_Vector_val@U?$_Simple_types@PAVcObjectBase@Glumer@@@std@@@2@$00@std@@QBEABV?$_Vector_val@U?$_Simple_types@PAVcObjectBase@Glumer@@@std@@@2@XZ 1005c430 f i cGlumShapeFactory.obj
 0002:0002a4c0       ?_Get_second@?$_Compressed_pair@V?$allocator@U?$_Tree_node@U?$pair@$$CBIUPTR@cGlumShapeBase@Glumer@@@std@@PAX@std@@@std@@V?$_Tree_val@U?$_Tree_simple_types@U?$pair@$$CBIUPTR@cGlumShapeBase@Glumer@@@std@@@std@@@2@$00@std@@QAEAAV?$_Tree_val@U?$_Tree_simple_types@U?$pair@$$CBIUPTR@cGlumShapeBase@Glumer@@@std@@@std@@@2@XZ 1005c4c0 f i cGlumShapeFactory.obj
 0002:0002a550       ?_Get_second@?$_Compressed_pair@V?$allocator@U?$_Tree_node@U?$pair@$$CBIUPTR@cGlumShapeBase@Glumer@@@std@@PAX@std@@@std@@V?$_Tree_val@U?$_Tree_simple_types@U?$pair@$$CBIUPTR@cGlumShapeBase@Glumer@@@std@@@std@@@2@$00@std@@QBEABV?$_Tree_val@U?$_Tree_simple_types@U?$pair@$$CBIUPTR@cGlumShapeBase@Glumer@@@std@@@std@@@2@XZ 1005c550 f i cGlumShapeFactory.obj
 0002:0002a5e0       ?_Get_second@?$_Compressed_pair@V?$allocator@UPTR@cGlumShape_Console@Glumer@@@std@@V?$_Vector_val@U?$_Simple_types@UPTR@cGlumShape_Console@Glumer@@@std@@@2@$00@std@@QAEAAV?$_Vector_val@U?$_Simple_types@UPTR@cGlumShape_Console@Glumer@@@std@@@2@XZ 1005c5e0 f i cGlumShapeFactory.obj
 0002:0002a670       ?_Get_second@?$_Compressed_pair@V?$allocator@UPTR@cGlumShape_Console@Glumer@@@std@@V?$_Vector_val@U?$_Simple_types@UPTR@cGlumShape_Console@Glumer@@@std@@@2@$00@std@@QBEABV?$_Vector_val@U?$_Simple_types@UPTR@cGlumShape_Console@Glumer@@@std@@@2@XZ 1005c670 f i cGlumShapeFactory.obj
 0002:0002a700       ?_Get_second@?$_Compressed_pair@V?$allocator@UPTR@cGlumShape_RegularPolyhedron@Glumer@@@std@@V?$_Vector_val@U?$_Simple_types@UPTR@cGlumShape_RegularPolyhedron@Glumer@@@std@@@2@$00@std@@QAEAAV?$_Vector_val@U?$_Simple_types@UPTR@cGlumShape_RegularPolyhedron@Glumer@@@std@@@2@XZ 1005c700 f i cGlumShapeFactory.obj
 0002:0002a790       ?_Get_second@?$_Compressed_pair@V?$allocator@UPTR@cGlumShape_RegularPolyhedron@Glumer@@@std@@V?$_Vector_val@U?$_Simple_types@UPTR@cGlumShape_RegularPolyhedron@Glumer@@@std@@@2@$00@std@@QBEABV?$_Vector_val@U?$_Simple_types@UPTR@cGlumShape_RegularPolyhedron@Glumer@@@std@@@2@XZ 1005c790 f i cGlumShapeFactory.obj
 0002:0002a820       ?_Get_second@?$_Compressed_pair@V?$allocator@UPTR@cGlumShape_SwitchGadget@Glumer@@@std@@V?$_Vector_val@U?$_Simple_types@UPTR@cGlumShape_SwitchGadget@Glumer@@@std@@@2@$00@std@@QAEAAV?$_Vector_val@U?$_Simple_types@UPTR@cGlumShape_SwitchGadget@Glumer@@@std@@@2@XZ 1005c820 f i cGlumShapeFactory.obj
 0002:0002a8b0       ?_Get_second@?$_Compressed_pair@V?$allocator@UPTR@cGlumShape_SwitchGadget@Glumer@@@std@@V?$_Vector_val@U?$_Simple_types@UPTR@cGlumShape_SwitchGadget@Glumer@@@std@@@2@$00@std@@QBEABV?$_Vector_val@U?$_Simple_types@UPTR@cGlumShape_SwitchGadget@Glumer@@@std@@@2@XZ 1005c8b0 f i cGlumShapeFactory.obj
 0002:0002a940       ?_Get_second@?$_Compressed_pair@V?$allocator@UPTR@cMovementBase@Glumer@@@std@@V?$_Vector_val@U?$_Simple_types@UPTR@cMovementBase@Glumer@@@std@@@2@$00@std@@QAEAAV?$_Vector_val@U?$_Simple_types@UPTR@cMovementBase@Glumer@@@std@@@2@XZ 1005c940 f i cGlumShapeFactory.obj
 0002:0002a9d0       ?_Get_second@?$_Compressed_pair@V?$allocator@UPTR@cMovementBase@Glumer@@@std@@V?$_Vector_val@U?$_Simple_types@UPTR@cMovementBase@Glumer@@@std@@@2@$00@std@@QBEABV?$_Vector_val@U?$_Simple_types@UPTR@cMovementBase@Glumer@@@std@@@2@XZ 1005c9d0 f i cGlumShapeFactory.obj
 0002:0002aa60       ?_Get_second@?$_Compressed_pair@V?$allocator@UPTR@cMovement_Camera@Glumer@@@std@@V?$_Vector_val@U?$_Simple_types@UPTR@cMovement_Camera@Glumer@@@std@@@2@$00@std@@QAEAAV?$_Vector_val@U?$_Simple_types@UPTR@cMovement_Camera@Glumer@@@std@@@2@XZ 1005ca60 f i cGlumShapeFactory.obj
 0002:0002aaf0       ?_Get_second@?$_Compressed_pair@V?$allocator@UPTR@cMovement_Camera@Glumer@@@std@@V?$_Vector_val@U?$_Simple_types@UPTR@cMovement_Camera@Glumer@@@std@@@2@$00@std@@QBEABV?$_Vector_val@U?$_Simple_types@UPTR@cMovement_Camera@Glumer@@@std@@@2@XZ 1005caf0 f i cGlumShapeFactory.obj
 0002:0002ab80       ?_Get_second@?$_Compressed_pair@V?$allocator@UPTR@cObjectMoveableBase@Glumer@@@std@@V?$_Vector_val@U?$_Simple_types@UPTR@cObjectMoveableBase@Glumer@@@std@@@2@$00@std@@QAEAAV?$_Vector_val@U?$_Simple_types@UPTR@cObjectMoveableBase@Glumer@@@std@@@2@XZ 1005cb80 f i cGlumShapeFactory.obj
 0002:0002ac10       ?_Get_second@?$_Compressed_pair@V?$allocator@UPTR@cObjectMoveableBase@Glumer@@@std@@V?$_Vector_val@U?$_Simple_types@UPTR@cObjectMoveableBase@Glumer@@@std@@@2@$00@std@@QBEABV?$_Vector_val@U?$_Simple_types@UPTR@cObjectMoveableBase@Glumer@@@std@@@2@XZ 1005cc10 f i cGlumShapeFactory.obj
 0002:0002aca0       ?_Getal@?$_Tree_comp_alloc@V?$_Tmap_traits@IUPTR@cGlumShapeBase@Glumer@@U?$less@I@std@@V?$allocator@U?$pair@$$CBIUPTR@cGlumShapeBase@Glumer@@@std@@@5@$0A@@std@@@std@@QAEAAV?$allocator@U?$_Tree_node@U?$pair@$$CBIUPTR@cGlumShapeBase@Glumer@@@std@@PAX@std@@@2@XZ 1005cca0 f i cGlumShapeFactory.obj
 0002:0002ad40       ?_Getal@?$_Tree_comp_alloc@V?$_Tmap_traits@IUPTR@cGlumShapeBase@Glumer@@U?$less@I@std@@V?$allocator@U?$pair@$$CBIUPTR@cGlumShapeBase@Glumer@@@std@@@5@$0A@@std@@@std@@QBEABV?$allocator@U?$_Tree_node@U?$pair@$$CBIUPTR@cGlumShapeBase@Glumer@@@std@@PAX@std@@@2@XZ 1005cd40 f i cGlumShapeFactory.obj
 0002:0002ade0       ?_Getal@?$_Vector_alloc@U?$_Vec_base_types@IV?$allocator@I@std@@@std@@@std@@QAEAAV?$allocator@I@2@XZ 1005cde0 f i cGlumShapeFactory.obj
 0002:0002ae70       ?_Getal@?$_Vector_alloc@U?$_Vec_base_types@IV?$allocator@I@std@@@std@@@std@@QBEABV?$allocator@I@2@XZ 1005ce70 f i cGlumShapeFactory.obj
 0002:0002af00       ?_Getal@?$_Vector_alloc@U?$_Vec_base_types@PAVcObjectBase@Glumer@@V?$allocator@PAVcObjectBase@Glumer@@@std@@@std@@@std@@QAEAAV?$allocator@PAVcObjectBase@Glumer@@@2@XZ 1005cf00 f i cGlumShapeFactory.obj
 0002:0002af90       ?_Getal@?$_Vector_alloc@U?$_Vec_base_types@PAVcObjectBase@Glumer@@V?$allocator@PAVcObjectBase@Glumer@@@std@@@std@@@std@@QBEABV?$allocator@PAVcObjectBase@Glumer@@@2@XZ 1005cf90 f i cGlumShapeFactory.obj
 0002:0002b020       ?_Getal@?$_Vector_alloc@U?$_Vec_base_types@UPTR@cGlumShape_Console@Glumer@@V?$allocator@UPTR@cGlumShape_Console@Glumer@@@std@@@std@@@std@@QAEAAV?$allocator@UPTR@cGlumShape_Console@Glumer@@@2@XZ 1005d020 f i cGlumShapeFactory.obj
 0002:0002b0b0       ?_Getal@?$_Vector_alloc@U?$_Vec_base_types@UPTR@cGlumShape_Console@Glumer@@V?$allocator@UPTR@cGlumShape_Console@Glumer@@@std@@@std@@@std@@QBEABV?$allocator@UPTR@cGlumShape_Console@Glumer@@@2@XZ 1005d0b0 f i cGlumShapeFactory.obj
 0002:0002b140       ?_Getal@?$_Vector_alloc@U?$_Vec_base_types@UPTR@cGlumShape_RegularPolyhedron@Glumer@@V?$allocator@UPTR@cGlumShape_RegularPolyhedron@Glumer@@@std@@@std@@@std@@QAEAAV?$allocator@UPTR@cGlumShape_RegularPolyhedron@Glumer@@@2@XZ 1005d140 f i cGlumShapeFactory.obj
 0002:0002b1d0       ?_Getal@?$_Vector_alloc@U?$_Vec_base_types@UPTR@cGlumShape_RegularPolyhedron@Glumer@@V?$allocator@UPTR@cGlumShape_RegularPolyhedron@Glumer@@@std@@@std@@@std@@QBEABV?$allocator@UPTR@cGlumShape_RegularPolyhedron@Glumer@@@2@XZ 1005d1d0 f i cGlumShapeFactory.obj
 0002:0002b260       ?_Getal@?$_Vector_alloc@U?$_Vec_base_types@UPTR@cGlumShape_SwitchGadget@Glumer@@V?$allocator@UPTR@cGlumShape_SwitchGadget@Glumer@@@std@@@std@@@std@@QAEAAV?$allocator@UPTR@cGlumShape_SwitchGadget@Glumer@@@2@XZ 1005d260 f i cGlumShapeFactory.obj
 0002:0002b2f0       ?_Getal@?$_Vector_alloc@U?$_Vec_base_types@UPTR@cGlumShape_SwitchGadget@Glumer@@V?$allocator@UPTR@cGlumShape_SwitchGadget@Glumer@@@std@@@std@@@std@@QBEABV?$allocator@UPTR@cGlumShape_SwitchGadget@Glumer@@@2@XZ 1005d2f0 f i cGlumShapeFactory.obj
 0002:0002b380       ?_Getal@?$_Vector_alloc@U?$_Vec_base_types@UPTR@cMovementBase@Glumer@@V?$allocator@UPTR@cMovementBase@Glumer@@@std@@@std@@@std@@QAEAAV?$allocator@UPTR@cMovementBase@Glumer@@@2@XZ 1005d380 f i cGlumShapeFactory.obj
 0002:0002b410       ?_Getal@?$_Vector_alloc@U?$_Vec_base_types@UPTR@cMovementBase@Glumer@@V?$allocator@UPTR@cMovementBase@Glumer@@@std@@@std@@@std@@QBEABV?$allocator@UPTR@cMovementBase@Glumer@@@2@XZ 1005d410 f i cGlumShapeFactory.obj
 0002:0002b4a0       ?_Getal@?$_Vector_alloc@U?$_Vec_base_types@UPTR@cMovement_Camera@Glumer@@V?$allocator@UPTR@cMovement_Camera@Glumer@@@std@@@std@@@std@@QAEAAV?$allocator@UPTR@cMovement_Camera@Glumer@@@2@XZ 1005d4a0 f i cGlumShapeFactory.obj
 0002:0002b530       ?_Getal@?$_Vector_alloc@U?$_Vec_base_types@UPTR@cMovement_Camera@Glumer@@V?$allocator@UPTR@cMovement_Camera@Glumer@@@std@@@std@@@std@@QBEABV?$allocator@UPTR@cMovement_Camera@Glumer@@@2@XZ 1005d530 f i cGlumShapeFactory.obj
 0002:0002b5c0       ?_Getal@?$_Vector_alloc@U?$_Vec_base_types@UPTR@cObjectMoveableBase@Glumer@@V?$allocator@UPTR@cObjectMoveableBase@Glumer@@@std@@@std@@@std@@QAEAAV?$allocator@UPTR@cObjectMoveableBase@Glumer@@@2@XZ 1005d5c0 f i cGlumShapeFactory.obj
 0002:0002b650       ?_Getal@?$_Vector_alloc@U?$_Vec_base_types@UPTR@cObjectMoveableBase@Glumer@@V?$allocator@UPTR@cObjectMoveableBase@Glumer@@@std@@@std@@@std@@QBEABV?$allocator@UPTR@cObjectMoveableBase@Glumer@@@2@XZ 1005d650 f i cGlumShapeFactory.obj
 0002:0002b6e0       ?_Getcomp@?$_Tree_comp_alloc@V?$_Tmap_traits@IUPTR@cGlumShapeBase@Glumer@@U?$less@I@std@@V?$allocator@U?$pair@$$CBIUPTR@cGlumShapeBase@Glumer@@@std@@@5@$0A@@std@@@std@@QAEAAU?$less@I@2@XZ 1005d6e0 f i cGlumShapeFactory.obj
 0002:0002b770       ?_Getcomp@?$_Tree_comp_alloc@V?$_Tmap_traits@IUPTR@cGlumShapeBase@Glumer@@U?$less@I@std@@V?$allocator@U?$pair@$$CBIUPTR@cGlumShapeBase@Glumer@@@std@@@5@$0A@@std@@@std@@QBEABU?$less@I@2@XZ 1005d770 f i cGlumShapeFactory.obj
 0002:0002b800       ?_Getcont@_Iterator_base12@std@@QBEPBU_Container_base12@2@XZ 1005d800 f i cGlumShapeFactory.obj
 0002:0002b8c0       ?_Getpfirst@?$_Tree_comp_alloc@V?$_Tmap_traits@IUPTR@cGlumShapeBase@Glumer@@U?$less@I@std@@V?$allocator@U?$pair@$$CBIUPTR@cGlumShapeBase@Glumer@@@std@@@5@$0A@@std@@@std@@QBEPAPAU_Iterator_base12@2@XZ 1005d8c0 f i cGlumShapeFactory.obj
 0002:0002b930       ?_Getpfirst@?$_Vector_alloc@U?$_Vec_base_types@IV?$allocator@I@std@@@std@@@std@@QBEPAPAU_Iterator_base12@2@XZ 1005d930 f i cGlumShapeFactory.obj
 0002:0002b9a0       ?_Getpfirst@?$_Vector_alloc@U?$_Vec_base_types@PAVcObjectBase@Glumer@@V?$allocator@PAVcObjectBase@Glumer@@@std@@@std@@@std@@QBEPAPAU_Iterator_base12@2@XZ 1005d9a0 f i cGlumShapeFactory.obj
 0002:0002ba10       ?_Getpfirst@?$_Vector_alloc@U?$_Vec_base_types@UPTR@cGlumShape_Console@Glumer@@V?$allocator@UPTR@cGlumShape_Console@Glumer@@@std@@@std@@@std@@QBEPAPAU_Iterator_base12@2@XZ 1005da10 f i cGlumShapeFactory.obj
 0002:0002ba80       ?_Getpfirst@?$_Vector_alloc@U?$_Vec_base_types@UPTR@cGlumShape_RegularPolyhedron@Glumer@@V?$allocator@UPTR@cGlumShape_RegularPolyhedron@Glumer@@@std@@@std@@@std@@QBEPAPAU_Iterator_base12@2@XZ 1005da80 f i cGlumShapeFactory.obj
 0002:0002baf0       ?_Getpfirst@?$_Vector_alloc@U?$_Vec_base_types@UPTR@cGlumShape_SwitchGadget@Glumer@@V?$allocator@UPTR@cGlumShape_SwitchGadget@Glumer@@@std@@@std@@@std@@QBEPAPAU_Iterator_base12@2@XZ 1005daf0 f i cGlumShapeFactory.obj
 0002:0002bb60       ?_Getpfirst@?$_Vector_alloc@U?$_Vec_base_types@UPTR@cMovementBase@Glumer@@V?$allocator@UPTR@cMovementBase@Glumer@@@std@@@std@@@std@@QBEPAPAU_Iterator_base12@2@XZ 1005db60 f i cGlumShapeFactory.obj
 0002:0002bbd0       ?_Getpfirst@?$_Vector_alloc@U?$_Vec_base_types@UPTR@cMovement_Camera@Glumer@@V?$allocator@UPTR@cMovement_Camera@Glumer@@@std@@@std@@@std@@QBEPAPAU_Iterator_base12@2@XZ 1005dbd0 f i cGlumShapeFactory.obj
 0002:0002bc40       ?_Getpfirst@?$_Vector_alloc@U?$_Vec_base_types@UPTR@cObjectMoveableBase@Glumer@@V?$allocator@UPTR@cObjectMoveableBase@Glumer@@@std@@@std@@@std@@QBEPAPAU_Iterator_base12@2@XZ 1005dc40 f i cGlumShapeFactory.obj
 0002:0002bcb0       ?_Getpfirst@_Container_base12@std@@QBEPAPAU_Iterator_base12@2@XZ 1005dcb0 f i cGlumShapeFactory.obj
 0002:0002bd70       ?_Getpnext@_Iterator_base12@std@@QAEPAPAU12@XZ 1005dd70 f i cGlumShapeFactory.obj
 0002:0002be00       ?_Has_unused_capacity@?$vector@IV?$allocator@I@std@@@std@@ABE_NXZ 1005de00 f i cGlumShapeFactory.obj
 0002:0002bed0       ?_Has_unused_capacity@?$vector@PAVcObjectBase@Glumer@@V?$allocator@PAVcObjectBase@Glumer@@@std@@@std@@ABE_NXZ 1005ded0 f i cGlumShapeFactory.obj
 0002:0002bfa0       ?_Has_unused_capacity@?$vector@UPTR@cGlumShape_Console@Glumer@@V?$allocator@UPTR@cGlumShape_Console@Glumer@@@std@@@std@@ABE_NXZ 1005dfa0 f i cGlumShapeFactory.obj
 0002:0002c070       ?_Has_unused_capacity@?$vector@UPTR@cGlumShape_RegularPolyhedron@Glumer@@V?$allocator@UPTR@cGlumShape_RegularPolyhedron@Glumer@@@std@@@std@@ABE_NXZ 1005e070 f i cGlumShapeFactory.obj
 0002:0002c140       ?_Has_unused_capacity@?$vector@UPTR@cGlumShape_SwitchGadget@Glumer@@V?$allocator@UPTR@cGlumShape_SwitchGadget@Glumer@@@std@@@std@@ABE_NXZ 1005e140 f i cGlumShapeFactory.obj
 0002:0002c210       ?_Has_unused_capacity@?$vector@UPTR@cMovementBase@Glumer@@V?$allocator@UPTR@cMovementBase@Glumer@@@std@@@std@@ABE_NXZ 1005e210 f i cGlumShapeFactory.obj
 0002:0002c2e0       ?_Has_unused_capacity@?$vector@UPTR@cMovement_Camera@Glumer@@V?$allocator@UPTR@cMovement_Camera@Glumer@@@std@@@std@@ABE_NXZ 1005e2e0 f i cGlumShapeFactory.obj
 0002:0002c3b0       ?_Has_unused_capacity@?$vector@UPTR@cObjectMoveableBase@Glumer@@V?$allocator@UPTR@cObjectMoveableBase@Glumer@@@std@@@std@@ABE_NXZ 1005e3b0 f i cGlumShapeFactory.obj
 0002:0002c480       ?_Key@?$_Tree@V?$_Tmap_traits@IUPTR@cGlumShapeBase@Glumer@@U?$less@I@std@@V?$allocator@U?$pair@$$CBIUPTR@cGlumShapeBase@Glumer@@@std@@@5@$0A@@std@@@std@@IBEABIPAU?$_Tree_node@U?$pair@$$CBIUPTR@cGlumShapeBase@Glumer@@@std@@PAX@2@@Z 1005e480 f i cGlumShapeFactory.obj
 0002:0002c4f0       ?_Kfn@?$_Tree@V?$_Tmap_traits@IUPTR@cGlumShapeBase@Glumer@@U?$less@I@std@@V?$allocator@U?$pair@$$CBIUPTR@cGlumShapeBase@Glumer@@@std@@@5@$0A@@std@@@std@@IBEABIABU?$pair@$$CBIUPTR@cGlumShapeBase@Glumer@@@2@@Z 1005e4f0 f i cGlumShapeFactory.obj
 0002:0002c560       ?_Lmost@?$_Tree_val@U?$_Tree_simple_types@U?$pair@$$CBIUPTR@cGlumShapeBase@Glumer@@@std@@@std@@@std@@QBEAAPAU?$_Tree_node@U?$pair@$$CBIUPTR@cGlumShapeBase@Glumer@@@std@@PAX@2@XZ 1005e560 f i cGlumShapeFactory.obj
 0002:0002c5c0       ?_Lrotate@?$_Tree_val@U?$_Tree_simple_types@U?$pair@$$CBIUPTR@cGlumShapeBase@Glumer@@@std@@@std@@@std@@QAEXPAU?$_Tree_node@U?$pair@$$CBIUPTR@cGlumShapeBase@Glumer@@@std@@PAX@2@@Z 1005e5c0 f i cGlumShapeFactory.obj
 0002:0002c6d0       ?_Max@?$_Tree_val@U?$_Tree_simple_types@U?$pair@$$CBIUPTR@cGlumShapeBase@Glumer@@@std@@@std@@@std@@SAPAU?$_Tree_node@U?$pair@$$CBIUPTR@cGlumShapeBase@Glumer@@@std@@PAX@2@PAU32@@Z 1005e6d0 f i cGlumShapeFactory.obj
 0002:0002c740       ?_Min@?$_Tree_val@U?$_Tree_simple_types@U?$pair@$$CBIUPTR@cGlumShapeBase@Glumer@@@std@@@std@@@std@@SAPAU?$_Tree_node@U?$pair@$$CBIUPTR@cGlumShapeBase@Glumer@@@std@@PAX@2@PAU32@@Z 1005e740 f i cGlumShapeFactory.obj
 0002:0002c7b0       ?_Myend@?$_Vector_alloc@U?$_Vec_base_types@IV?$allocator@I@std@@@std@@@std@@QAEAAPAIXZ 1005e7b0 f i cGlumShapeFactory.obj
 0002:0002c850       ?_Myend@?$_Vector_alloc@U?$_Vec_base_types@IV?$allocator@I@std@@@std@@@std@@QBEABQAIXZ 1005e850 f i cGlumShapeFactory.obj
 0002:0002c8f0       ?_Myend@?$_Vector_alloc@U?$_Vec_base_types@PAVcObjectBase@Glumer@@V?$allocator@PAVcObjectBase@Glumer@@@std@@@std@@@std@@QAEAAPAPAVcObjectBase@Glumer@@XZ 1005e8f0 f i cGlumShapeFactory.obj
 0002:0002c990       ?_Myend@?$_Vector_alloc@U?$_Vec_base_types@PAVcObjectBase@Glumer@@V?$allocator@PAVcObjectBase@Glumer@@@std@@@std@@@std@@QBEABQAPAVcObjectBase@Glumer@@XZ 1005e990 f i cGlumShapeFactory.obj
 0002:0002ca30       ?_Myend@?$_Vector_alloc@U?$_Vec_base_types@UPTR@cGlumShape_Console@Glumer@@V?$allocator@UPTR@cGlumShape_Console@Glumer@@@std@@@std@@@std@@QAEAAPAUPTR@cGlumShape_Console@Glumer@@XZ 1005ea30 f i cGlumShapeFactory.obj
 0002:0002cad0       ?_Myend@?$_Vector_alloc@U?$_Vec_base_types@UPTR@cGlumShape_Console@Glumer@@V?$allocator@UPTR@cGlumShape_Console@Glumer@@@std@@@std@@@std@@QBEABQAUPTR@cGlumShape_Console@Glumer@@XZ 1005ead0 f i cGlumShapeFactory.obj
 0002:0002cb70       ?_Myend@?$_Vector_alloc@U?$_Vec_base_types@UPTR@cGlumShape_RegularPolyhedron@Glumer@@V?$allocator@UPTR@cGlumShape_RegularPolyhedron@Glumer@@@std@@@std@@@std@@QAEAAPAUPTR@cGlumShape_RegularPolyhedron@Glumer@@XZ 1005eb70 f i cGlumShapeFactory.obj
 0002:0002cc10       ?_Myend@?$_Vector_alloc@U?$_Vec_base_types@UPTR@cGlumShape_RegularPolyhedron@Glumer@@V?$allocator@UPTR@cGlumShape_RegularPolyhedron@Glumer@@@std@@@std@@@std@@QBEABQAUPTR@cGlumShape_RegularPolyhedron@Glumer@@XZ 1005ec10 f i cGlumShapeFactory.obj
 0002:0002ccb0       ?_Myend@?$_Vector_alloc@U?$_Vec_base_types@UPTR@cGlumShape_SwitchGadget@Glumer@@V?$allocator@UPTR@cGlumShape_SwitchGadget@Glumer@@@std@@@std@@@std@@QAEAAPAUPTR@cGlumShape_SwitchGadget@Glumer@@XZ 1005ecb0 f i cGlumShapeFactory.obj
 0002:0002cd50       ?_Myend@?$_Vector_alloc@U?$_Vec_base_types@UPTR@cGlumShape_SwitchGadget@Glumer@@V?$allocator@UPTR@cGlumShape_SwitchGadget@Glumer@@@std@@@std@@@std@@QBEABQAUPTR@cGlumShape_SwitchGadget@Glumer@@XZ 1005ed50 f i cGlumShapeFactory.obj
 0002:0002cdf0       ?_Myend@?$_Vector_alloc@U?$_Vec_base_types@UPTR@cMovementBase@Glumer@@V?$allocator@UPTR@cMovementBase@Glumer@@@std@@@std@@@std@@QAEAAPAUPTR@cMovementBase@Glumer@@XZ 1005edf0 f i cGlumShapeFactory.obj
 0002:0002ce90       ?_Myend@?$_Vector_alloc@U?$_Vec_base_types@UPTR@cMovementBase@Glumer@@V?$allocator@UPTR@cMovementBase@Glumer@@@std@@@std@@@std@@QBEABQAUPTR@cMovementBase@Glumer@@XZ 1005ee90 f i cGlumShapeFactory.obj
 0002:0002cf30       ?_Myend@?$_Vector_alloc@U?$_Vec_base_types@UPTR@cMovement_Camera@Glumer@@V?$allocator@UPTR@cMovement_Camera@Glumer@@@std@@@std@@@std@@QAEAAPAUPTR@cMovement_Camera@Glumer@@XZ 1005ef30 f i cGlumShapeFactory.obj
 0002:0002cfd0       ?_Myend@?$_Vector_alloc@U?$_Vec_base_types@UPTR@cMovement_Camera@Glumer@@V?$allocator@UPTR@cMovement_Camera@Glumer@@@std@@@std@@@std@@QBEABQAUPTR@cMovement_Camera@Glumer@@XZ 1005efd0 f i cGlumShapeFactory.obj
 0002:0002d070       ?_Myend@?$_Vector_alloc@U?$_Vec_base_types@UPTR@cObjectMoveableBase@Glumer@@V?$allocator@UPTR@cObjectMoveableBase@Glumer@@@std@@@std@@@std@@QAEAAPAUPTR@cObjectMoveableBase@Glumer@@XZ 1005f070 f i cGlumShapeFactory.obj
 0002:0002d110       ?_Myend@?$_Vector_alloc@U?$_Vec_base_types@UPTR@cObjectMoveableBase@Glumer@@V?$allocator@UPTR@cObjectMoveableBase@Glumer@@@std@@@std@@@std@@QBEABQAUPTR@cObjectMoveableBase@Glumer@@XZ 1005f110 f i cGlumShapeFactory.obj
 0002:0002d1b0       ?_Myfirst@?$_Vector_alloc@U?$_Vec_base_types@IV?$allocator@I@std@@@std@@@std@@QAEAAPAIXZ 1005f1b0 f i cGlumShapeFactory.obj
 0002:0002d250       ?_Myfirst@?$_Vector_alloc@U?$_Vec_base_types@IV?$allocator@I@std@@@std@@@std@@QBEABQAIXZ 1005f250 f i cGlumShapeFactory.obj
 0002:0002d2f0       ?_Myfirst@?$_Vector_alloc@U?$_Vec_base_types@PAVcObjectBase@Glumer@@V?$allocator@PAVcObjectBase@Glumer@@@std@@@std@@@std@@QAEAAPAPAVcObjectBase@Glumer@@XZ 1005f2f0 f i cGlumShapeFactory.obj
 0002:0002d390       ?_Myfirst@?$_Vector_alloc@U?$_Vec_base_types@PAVcObjectBase@Glumer@@V?$allocator@PAVcObjectBase@Glumer@@@std@@@std@@@std@@QBEABQAPAVcObjectBase@Glumer@@XZ 1005f390 f i cGlumShapeFactory.obj
 0002:0002d430       ?_Myfirst@?$_Vector_alloc@U?$_Vec_base_types@UPTR@cGlumShape_Console@Glumer@@V?$allocator@UPTR@cGlumShape_Console@Glumer@@@std@@@std@@@std@@QAEAAPAUPTR@cGlumShape_Console@Glumer@@XZ 1005f430 f i cGlumShapeFactory.obj
 0002:0002d4d0       ?_Myfirst@?$_Vector_alloc@U?$_Vec_base_types@UPTR@cGlumShape_Console@Glumer@@V?$allocator@UPTR@cGlumShape_Console@Glumer@@@std@@@std@@@std@@QBEABQAUPTR@cGlumShape_Console@Glumer@@XZ 1005f4d0 f i cGlumShapeFactory.obj
 0002:0002d570       ?_Myfirst@?$_Vector_alloc@U?$_Vec_base_types@UPTR@cGlumShape_RegularPolyhedron@Glumer@@V?$allocator@UPTR@cGlumShape_RegularPolyhedron@Glumer@@@std@@@std@@@std@@QAEAAPAUPTR@cGlumShape_RegularPolyhedron@Glumer@@XZ 1005f570 f i cGlumShapeFactory.obj
 0002:0002d610       ?_Myfirst@?$_Vector_alloc@U?$_Vec_base_types@UPTR@cGlumShape_RegularPolyhedron@Glumer@@V?$allocator@UPTR@cGlumShape_RegularPolyhedron@Glumer@@@std@@@std@@@std@@QBEABQAUPTR@cGlumShape_RegularPolyhedron@Glumer@@XZ 1005f610 f i cGlumShapeFactory.obj
 0002:0002d6b0       ?_Myfirst@?$_Vector_alloc@U?$_Vec_base_types@UPTR@cGlumShape_SwitchGadget@Glumer@@V?$allocator@UPTR@cGlumShape_SwitchGadget@Glumer@@@std@@@std@@@std@@QAEAAPAUPTR@cGlumShape_SwitchGadget@Glumer@@XZ 1005f6b0 f i cGlumShapeFactory.obj
 0002:0002d750       ?_Myfirst@?$_Vector_alloc@U?$_Vec_base_types@UPTR@cGlumShape_SwitchGadget@Glumer@@V?$allocator@UPTR@cGlumShape_SwitchGadget@Glumer@@@std@@@std@@@std@@QBEABQAUPTR@cGlumShape_SwitchGadget@Glumer@@XZ 1005f750 f i cGlumShapeFactory.obj
 0002:0002d7f0       ?_Myfirst@?$_Vector_alloc@U?$_Vec_base_types@UPTR@cMovementBase@Glumer@@V?$allocator@UPTR@cMovementBase@Glumer@@@std@@@std@@@std@@QAEAAPAUPTR@cMovementBase@Glumer@@XZ 1005f7f0 f i cGlumShapeFactory.obj
 0002:0002d890       ?_Myfirst@?$_Vector_alloc@U?$_Vec_base_types@UPTR@cMovementBase@Glumer@@V?$allocator@UPTR@cMovementBase@Glumer@@@std@@@std@@@std@@QBEABQAUPTR@cMovementBase@Glumer@@XZ 1005f890 f i cGlumShapeFactory.obj
 0002:0002d930       ?_Myfirst@?$_Vector_alloc@U?$_Vec_base_types@UPTR@cMovement_Camera@Glumer@@V?$allocator@UPTR@cMovement_Camera@Glumer@@@std@@@std@@@std@@QAEAAPAUPTR@cMovement_Camera@Glumer@@XZ 1005f930 f i cGlumShapeFactory.obj
 0002:0002d9d0       ?_Myfirst@?$_Vector_alloc@U?$_Vec_base_types@UPTR@cMovement_Camera@Glumer@@V?$allocator@UPTR@cMovement_Camera@Glumer@@@std@@@std@@@std@@QBEABQAUPTR@cMovement_Camera@Glumer@@XZ 1005f9d0 f i cGlumShapeFactory.obj
 0002:0002da70       ?_Myfirst@?$_Vector_alloc@U?$_Vec_base_types@UPTR@cObjectMoveableBase@Glumer@@V?$allocator@UPTR@cObjectMoveableBase@Glumer@@@std@@@std@@@std@@QAEAAPAUPTR@cObjectMoveableBase@Glumer@@XZ 1005fa70 f i cGlumShapeFactory.obj
 0002:0002db10       ?_Myfirst@?$_Vector_alloc@U?$_Vec_base_types@UPTR@cObjectMoveableBase@Glumer@@V?$allocator@UPTR@cObjectMoveableBase@Glumer@@@std@@@std@@@std@@QBEABQAUPTR@cObjectMoveableBase@Glumer@@XZ 1005fb10 f i cGlumShapeFactory.obj
 0002:0002dbb0       ?_Mylast@?$_Vector_alloc@U?$_Vec_base_types@IV?$allocator@I@std@@@std@@@std@@QAEAAPAIXZ 1005fbb0 f i cGlumShapeFactory.obj
 0002:0002dc50       ?_Mylast@?$_Vector_alloc@U?$_Vec_base_types@IV?$allocator@I@std@@@std@@@std@@QBEABQAIXZ 1005fc50 f i cGlumShapeFactory.obj
 0002:0002dcf0       ?_Mylast@?$_Vector_alloc@U?$_Vec_base_types@PAVcObjectBase@Glumer@@V?$allocator@PAVcObjectBase@Glumer@@@std@@@std@@@std@@QAEAAPAPAVcObjectBase@Glumer@@XZ 1005fcf0 f i cGlumShapeFactory.obj
 0002:0002dd90       ?_Mylast@?$_Vector_alloc@U?$_Vec_base_types@PAVcObjectBase@Glumer@@V?$allocator@PAVcObjectBase@Glumer@@@std@@@std@@@std@@QBEABQAPAVcObjectBase@Glumer@@XZ 1005fd90 f i cGlumShapeFactory.obj
 0002:0002de30       ?_Mylast@?$_Vector_alloc@U?$_Vec_base_types@UPTR@cGlumShape_Console@Glumer@@V?$allocator@UPTR@cGlumShape_Console@Glumer@@@std@@@std@@@std@@QAEAAPAUPTR@cGlumShape_Console@Glumer@@XZ 1005fe30 f i cGlumShapeFactory.obj
 0002:0002ded0       ?_Mylast@?$_Vector_alloc@U?$_Vec_base_types@UPTR@cGlumShape_Console@Glumer@@V?$allocator@UPTR@cGlumShape_Console@Glumer@@@std@@@std@@@std@@QBEABQAUPTR@cGlumShape_Console@Glumer@@XZ 1005fed0 f i cGlumShapeFactory.obj
 0002:0002df70       ?_Mylast@?$_Vector_alloc@U?$_Vec_base_types@UPTR@cGlumShape_RegularPolyhedron@Glumer@@V?$allocator@UPTR@cGlumShape_RegularPolyhedron@Glumer@@@std@@@std@@@std@@QAEAAPAUPTR@cGlumShape_RegularPolyhedron@Glumer@@XZ 1005ff70 f i cGlumShapeFactory.obj
 0002:0002e010       ?_Mylast@?$_Vector_alloc@U?$_Vec_base_types@UPTR@cGlumShape_RegularPolyhedron@Glumer@@V?$allocator@UPTR@cGlumShape_RegularPolyhedron@Glumer@@@std@@@std@@@std@@QBEABQAUPTR@cGlumShape_RegularPolyhedron@Glumer@@XZ 10060010 f i cGlumShapeFactory.obj
 0002:0002e0b0       ?_Mylast@?$_Vector_alloc@U?$_Vec_base_types@UPTR@cGlumShape_SwitchGadget@Glumer@@V?$allocator@UPTR@cGlumShape_SwitchGadget@Glumer@@@std@@@std@@@std@@QAEAAPAUPTR@cGlumShape_SwitchGadget@Glumer@@XZ 100600b0 f i cGlumShapeFactory.obj
 0002:0002e150       ?_Mylast@?$_Vector_alloc@U?$_Vec_base_types@UPTR@cGlumShape_SwitchGadget@Glumer@@V?$allocator@UPTR@cGlumShape_SwitchGadget@Glumer@@@std@@@std@@@std@@QBEABQAUPTR@cGlumShape_SwitchGadget@Glumer@@XZ 10060150 f i cGlumShapeFactory.obj
 0002:0002e1f0       ?_Mylast@?$_Vector_alloc@U?$_Vec_base_types@UPTR@cMovementBase@Glumer@@V?$allocator@UPTR@cMovementBase@Glumer@@@std@@@std@@@std@@QAEAAPAUPTR@cMovementBase@Glumer@@XZ 100601f0 f i cGlumShapeFactory.obj
 0002:0002e290       ?_Mylast@?$_Vector_alloc@U?$_Vec_base_types@UPTR@cMovementBase@Glumer@@V?$allocator@UPTR@cMovementBase@Glumer@@@std@@@std@@@std@@QBEABQAUPTR@cMovementBase@Glumer@@XZ 10060290 f i cGlumShapeFactory.obj
 0002:0002e330       ?_Mylast@?$_Vector_alloc@U?$_Vec_base_types@UPTR@cMovement_Camera@Glumer@@V?$allocator@UPTR@cMovement_Camera@Glumer@@@std@@@std@@@std@@QAEAAPAUPTR@cMovement_Camera@Glumer@@XZ 10060330 f i cGlumShapeFactory.obj
 0002:0002e3d0       ?_Mylast@?$_Vector_alloc@U?$_Vec_base_types@UPTR@cMovement_Camera@Glumer@@V?$allocator@UPTR@cMovement_Camera@Glumer@@@std@@@std@@@std@@QBEABQAUPTR@cMovement_Camera@Glumer@@XZ 100603d0 f i cGlumShapeFactory.obj
 0002:0002e470       ?_Mylast@?$_Vector_alloc@U?$_Vec_base_types@UPTR@cObjectMoveableBase@Glumer@@V?$allocator@UPTR@cObjectMoveableBase@Glumer@@@std@@@std@@@std@@QAEAAPAUPTR@cObjectMoveableBase@Glumer@@XZ 10060470 f i cGlumShapeFactory.obj
 0002:0002e510       ?_Mylast@?$_Vector_alloc@U?$_Vec_base_types@UPTR@cObjectMoveableBase@Glumer@@V?$allocator@UPTR@cObjectMoveableBase@Glumer@@@std@@@std@@@std@@QBEABQAUPTR@cObjectMoveableBase@Glumer@@XZ 10060510 f i cGlumShapeFactory.obj
 0002:0002e5b0       ?_Myproxy@?$_Tree_comp_alloc@V?$_Tmap_traits@IUPTR@cGlumShapeBase@Glumer@@U?$less@I@std@@V?$allocator@U?$pair@$$CBIUPTR@cGlumShapeBase@Glumer@@@std@@@5@$0A@@std@@@std@@QAEAAPAU_Container_proxy@2@XZ 100605b0 f i cGlumShapeFactory.obj
 0002:0002e640       ?_Myproxy@?$_Vector_alloc@U?$_Vec_base_types@IV?$allocator@I@std@@@std@@@std@@QAEAAPAU_Container_proxy@2@XZ 10060640 f i cGlumShapeFactory.obj
 0002:0002e6d0       ?_Myproxy@?$_Vector_alloc@U?$_Vec_base_types@PAVcObjectBase@Glumer@@V?$allocator@PAVcObjectBase@Glumer@@@std@@@std@@@std@@QAEAAPAU_Container_proxy@2@XZ 100606d0 f i cGlumShapeFactory.obj
 0002:0002e760       ?_Myproxy@?$_Vector_alloc@U?$_Vec_base_types@UPTR@cGlumShape_Console@Glumer@@V?$allocator@UPTR@cGlumShape_Console@Glumer@@@std@@@std@@@std@@QAEAAPAU_Container_proxy@2@XZ 10060760 f i cGlumShapeFactory.obj
 0002:0002e7f0       ?_Myproxy@?$_Vector_alloc@U?$_Vec_base_types@UPTR@cGlumShape_RegularPolyhedron@Glumer@@V?$allocator@UPTR@cGlumShape_RegularPolyhedron@Glumer@@@std@@@std@@@std@@QAEAAPAU_Container_proxy@2@XZ 100607f0 f i cGlumShapeFactory.obj
 0002:0002e880       ?_Myproxy@?$_Vector_alloc@U?$_Vec_base_types@UPTR@cGlumShape_SwitchGadget@Glumer@@V?$allocator@UPTR@cGlumShape_SwitchGadget@Glumer@@@std@@@std@@@std@@QAEAAPAU_Container_proxy@2@XZ 10060880 f i cGlumShapeFactory.obj
 0002:0002e910       ?_Myproxy@?$_Vector_alloc@U?$_Vec_base_types@UPTR@cMovementBase@Glumer@@V?$allocator@UPTR@cMovementBase@Glumer@@@std@@@std@@@std@@QAEAAPAU_Container_proxy@2@XZ 10060910 f i cGlumShapeFactory.obj
 0002:0002e9a0       ?_Myproxy@?$_Vector_alloc@U?$_Vec_base_types@UPTR@cMovement_Camera@Glumer@@V?$allocator@UPTR@cMovement_Camera@Glumer@@@std@@@std@@@std@@QAEAAPAU_Container_proxy@2@XZ 100609a0 f i cGlumShapeFactory.obj
 0002:0002ea30       ?_Myproxy@?$_Vector_alloc@U?$_Vec_base_types@UPTR@cObjectMoveableBase@Glumer@@V?$allocator@UPTR@cObjectMoveableBase@Glumer@@@std@@@std@@@std@@QAEAAPAU_Container_proxy@2@XZ 10060a30 f i cGlumShapeFactory.obj
 0002:0002eac0       ?_Orphan_all@?$_Tree_comp_alloc@V?$_Tmap_traits@IUPTR@cGlumShapeBase@Glumer@@U?$less@I@std@@V?$allocator@U?$pair@$$CBIUPTR@cGlumShapeBase@Glumer@@@std@@@5@$0A@@std@@@std@@QAEXXZ 10060ac0 f i cGlumShapeFactory.obj
 0002:0002eb30       ?_Orphan_all@?$_Vector_alloc@U?$_Vec_base_types@IV?$allocator@I@std@@@std@@@std@@QAEXXZ 10060b30 f i cGlumShapeFactory.obj
 0002:0002eba0       ?_Orphan_all@?$_Vector_alloc@U?$_Vec_base_types@PAVcObjectBase@Glumer@@V?$allocator@PAVcObjectBase@Glumer@@@std@@@std@@@std@@QAEXXZ 10060ba0 f i cGlumShapeFactory.obj
 0002:0002ec10       ?_Orphan_all@?$_Vector_alloc@U?$_Vec_base_types@UPTR@cGlumShape_Console@Glumer@@V?$allocator@UPTR@cGlumShape_Console@Glumer@@@std@@@std@@@std@@QAEXXZ 10060c10 f i cGlumShapeFactory.obj
 0002:0002ec80       ?_Orphan_all@?$_Vector_alloc@U?$_Vec_base_types@UPTR@cGlumShape_RegularPolyhedron@Glumer@@V?$allocator@UPTR@cGlumShape_RegularPolyhedron@Glumer@@@std@@@std@@@std@@QAEXXZ 10060c80 f i cGlumShapeFactory.obj
 0002:0002ecf0       ?_Orphan_all@?$_Vector_alloc@U?$_Vec_base_types@UPTR@cGlumShape_SwitchGadget@Glumer@@V?$allocator@UPTR@cGlumShape_SwitchGadget@Glumer@@@std@@@std@@@std@@QAEXXZ 10060cf0 f i cGlumShapeFactory.obj
 0002:0002ed60       ?_Orphan_all@?$_Vector_alloc@U?$_Vec_base_types@UPTR@cMovementBase@Glumer@@V?$allocator@UPTR@cMovementBase@Glumer@@@std@@@std@@@std@@QAEXXZ 10060d60 f i cGlumShapeFactory.obj
 0002:0002edd0       ?_Orphan_all@?$_Vector_alloc@U?$_Vec_base_types@UPTR@cMovement_Camera@Glumer@@V?$allocator@UPTR@cMovement_Camera@Glumer@@@std@@@std@@@std@@QAEXXZ 10060dd0 f i cGlumShapeFactory.obj
 0002:0002ee40       ?_Orphan_all@?$_Vector_alloc@U?$_Vec_base_types@UPTR@cObjectMoveableBase@Glumer@@V?$allocator@UPTR@cObjectMoveableBase@Glumer@@@std@@@std@@@std@@QAEXXZ 10060e40 f i cGlumShapeFactory.obj
 0002:0002eeb0       ?_Orphan_all@_Container_base12@std@@QAEXXZ 10060eb0 f i cGlumShapeFactory.obj
 0002:0002f000       ?_Orphan_me@_Iterator_base12@std@@QAEXXZ 10061000 f i cGlumShapeFactory.obj
 0002:0002f170       ?_Orphan_ptr@?$_Tree@V?$_Tmap_traits@IUPTR@cGlumShapeBase@Glumer@@U?$less@I@std@@V?$allocator@U?$pair@$$CBIUPTR@cGlumShapeBase@Glumer@@@std@@@5@$0A@@std@@@std@@IAEXPAU?$_Tree_node@U?$pair@$$CBIUPTR@cGlumShapeBase@Glumer@@@std@@PAX@2@@Z 10061170 f i cGlumShapeFactory.obj
 0002:0002f300       ?_Orphan_range@?$vector@IV?$allocator@I@std@@@std@@ABEXPAI0@Z 10061300 f i cGlumShapeFactory.obj
 0002:0002f480       ?_Orphan_range@?$vector@PAVcObjectBase@Glumer@@V?$allocator@PAVcObjectBase@Glumer@@@std@@@std@@ABEXPAPAVcObjectBase@Glumer@@0@Z 10061480 f i cGlumShapeFactory.obj
 0002:0002f600       ?_Orphan_range@?$vector@UPTR@cGlumShape_Console@Glumer@@V?$allocator@UPTR@cGlumShape_Console@Glumer@@@std@@@std@@ABEXPAUPTR@cGlumShape_Console@Glumer@@0@Z 10061600 f i cGlumShapeFactory.obj
 0002:0002f780       ?_Orphan_range@?$vector@UPTR@cGlumShape_RegularPolyhedron@Glumer@@V?$allocator@UPTR@cGlumShape_RegularPolyhedron@Glumer@@@std@@@std@@ABEXPAUPTR@cGlumShape_RegularPolyhedron@Glumer@@0@Z 10061780 f i cGlumShapeFactory.obj
 0002:0002f900       ?_Orphan_range@?$vector@UPTR@cGlumShape_SwitchGadget@Glumer@@V?$allocator@UPTR@cGlumShape_SwitchGadget@Glumer@@@std@@@std@@ABEXPAUPTR@cGlumShape_SwitchGadget@Glumer@@0@Z 10061900 f i cGlumShapeFactory.obj
 0002:0002fa80       ?_Orphan_range@?$vector@UPTR@cMovementBase@Glumer@@V?$allocator@UPTR@cMovementBase@Glumer@@@std@@@std@@ABEXPAUPTR@cMovementBase@Glumer@@0@Z 10061a80 f i cGlumShapeFactory.obj
 0002:0002fc00       ?_Orphan_range@?$vector@UPTR@cMovement_Camera@Glumer@@V?$allocator@UPTR@cMovement_Camera@Glumer@@@std@@@std@@ABEXPAUPTR@cMovement_Camera@Glumer@@0@Z 10061c00 f i cGlumShapeFactory.obj
 0002:0002fd80       ?_Orphan_range@?$vector@UPTR@cObjectMoveableBase@Glumer@@V?$allocator@UPTR@cObjectMoveableBase@Glumer@@@std@@@std@@ABEXPAUPTR@cObjectMoveableBase@Glumer@@0@Z 10061d80 f i cGlumShapeFactory.obj
 0002:0002ff00       ?_Reallocate_exactly@?$vector@IV?$allocator@I@std@@@std@@AAEXI@Z 10061f00 f i cGlumShapeFactory.obj
 0002:00030050       ?_Reallocate_exactly@?$vector@UPTR@cObjectMoveableBase@Glumer@@V?$allocator@UPTR@cObjectMoveableBase@Glumer@@@std@@@std@@AAEXI@Z 10062050 f i cGlumShapeFactory.obj
 0002:000301a0       ?_Rmost@?$_Tree_val@U?$_Tree_simple_types@U?$pair@$$CBIUPTR@cGlumShapeBase@Glumer@@@std@@@std@@@std@@QBEAAPAU?$_Tree_node@U?$pair@$$CBIUPTR@cGlumShapeBase@Glumer@@@std@@PAX@2@XZ 100621a0 f i cGlumShapeFactory.obj
 0002:00030200       ?_Root@?$_Tree_val@U?$_Tree_simple_types@U?$pair@$$CBIUPTR@cGlumShapeBase@Glumer@@@std@@@std@@@std@@QBEAAPAU?$_Tree_node@U?$pair@$$CBIUPTR@cGlumShapeBase@Glumer@@@std@@PAX@2@XZ 10062200 f i cGlumShapeFactory.obj
 0002:00030260       ?_Rrotate@?$_Tree_val@U?$_Tree_simple_types@U?$pair@$$CBIUPTR@cGlumShapeBase@Glumer@@@std@@@std@@@std@@QAEXPAU?$_Tree_node@U?$pair@$$CBIUPTR@cGlumShapeBase@Glumer@@@std@@PAX@2@@Z 10062260 f i cGlumShapeFactory.obj
 0002:00030370       ?_Seek_to@?$_Vector_const_iterator@V?$_Vector_val@U?$_Simple_types@UPTR@cMovement_Camera@Glumer@@@std@@@std@@@std@@QAEXPBUPTR@cMovement_Camera@Glumer@@@Z 10062370 f i cGlumShapeFactory.obj
 0002:000303e0       ?_Tidy@?$_Tree@V?$_Tmap_traits@IUPTR@cGlumShapeBase@Glumer@@U?$less@I@std@@V?$allocator@U?$pair@$$CBIUPTR@cGlumShapeBase@Glumer@@@std@@@5@$0A@@std@@@std@@IAEXXZ 100623e0 f i cGlumShapeFactory.obj
 0002:00030560       ?_Tidy@?$vector@IV?$allocator@I@std@@@std@@AAEXXZ 10062560 f i cGlumShapeFactory.obj
 0002:00030660       ?_Tidy@?$vector@PAVcObjectBase@Glumer@@V?$allocator@PAVcObjectBase@Glumer@@@std@@@std@@AAEXXZ 10062660 f i cGlumShapeFactory.obj
 0002:00030760       ?_Tidy@?$vector@UPTR@cGlumShape_Console@Glumer@@V?$allocator@UPTR@cGlumShape_Console@Glumer@@@std@@@std@@AAEXXZ 10062760 f i cGlumShapeFactory.obj
 0002:00030860       ?_Tidy@?$vector@UPTR@cGlumShape_RegularPolyhedron@Glumer@@V?$allocator@UPTR@cGlumShape_RegularPolyhedron@Glumer@@@std@@@std@@AAEXXZ 10062860 f i cGlumShapeFactory.obj
 0002:00030960       ?_Tidy@?$vector@UPTR@cGlumShape_SwitchGadget@Glumer@@V?$allocator@UPTR@cGlumShape_SwitchGadget@Glumer@@@std@@@std@@AAEXXZ 10062960 f i cGlumShapeFactory.obj
 0002:00030a60       ?_Tidy@?$vector@UPTR@cMovementBase@Glumer@@V?$allocator@UPTR@cMovementBase@Glumer@@@std@@@std@@AAEXXZ 10062a60 f i cGlumShapeFactory.obj
 0002:00030b60       ?_Tidy@?$vector@UPTR@cMovement_Camera@Glumer@@V?$allocator@UPTR@cMovement_Camera@Glumer@@@std@@@std@@AAEXXZ 10062b60 f i cGlumShapeFactory.obj
 0002:00030c60       ?_Tidy@?$vector@UPTR@cObjectMoveableBase@Glumer@@V?$allocator@UPTR@cObjectMoveableBase@Glumer@@@std@@@std@@AAEXXZ 10062c60 f i cGlumShapeFactory.obj
 0002:00030d60       ?_Umove@?$vector@IV?$allocator@I@std@@@std@@AAEPAIPAI00@Z 10062d60 f i cGlumShapeFactory.obj
 0002:00030de0       ?_Umove@?$vector@PAVcObjectBase@Glumer@@V?$allocator@PAVcObjectBase@Glumer@@@std@@@std@@AAEPAPAVcObjectBase@Glumer@@PAPAV34@00@Z 10062de0 f i cGlumShapeFactory.obj
 0002:00030e60       ?_Umove@?$vector@UPTR@cGlumShape_Console@Glumer@@V?$allocator@UPTR@cGlumShape_Console@Glumer@@@std@@@std@@AAEPAUPTR@cGlumShape_Console@Glumer@@PAU345@00@Z 10062e60 f i cGlumShapeFactory.obj
 0002:00030ee0       ?_Umove@?$vector@UPTR@cGlumShape_RegularPolyhedron@Glumer@@V?$allocator@UPTR@cGlumShape_RegularPolyhedron@Glumer@@@std@@@std@@AAEPAUPTR@cGlumShape_RegularPolyhedron@Glumer@@PAU345@00@Z 10062ee0 f i cGlumShapeFactory.obj
 0002:00030f60       ?_Umove@?$vector@UPTR@cGlumShape_SwitchGadget@Glumer@@V?$allocator@UPTR@cGlumShape_SwitchGadget@Glumer@@@std@@@std@@AAEPAUPTR@cGlumShape_SwitchGadget@Glumer@@PAU345@00@Z 10062f60 f i cGlumShapeFactory.obj
 0002:00030fe0       ?_Umove@?$vector@UPTR@cMovementBase@Glumer@@V?$allocator@UPTR@cMovementBase@Glumer@@@std@@@std@@AAEPAUPTR@cMovementBase@Glumer@@PAU345@00@Z 10062fe0 f i cGlumShapeFactory.obj
 0002:00031060       ?_Umove@?$vector@UPTR@cMovement_Camera@Glumer@@V?$allocator@UPTR@cMovement_Camera@Glumer@@@std@@@std@@AAEPAUPTR@cMovement_Camera@Glumer@@PAU345@00@Z 10063060 f i cGlumShapeFactory.obj
 0002:000310e0       ?_Umove@?$vector@UPTR@cObjectMoveableBase@Glumer@@V?$allocator@UPTR@cObjectMoveableBase@Glumer@@@std@@@std@@AAEPAUPTR@cObjectMoveableBase@Glumer@@PAU345@00@Z 100630e0 f i cGlumShapeFactory.obj
 0002:00031160       ?_Umove_if_noexcept1@?$vector@IV?$allocator@I@std@@@std@@AAEXPAI00U?$integral_constant@_N$00@2@@Z 10063160 f i cGlumShapeFactory.obj
 0002:000311e0       ?_Umove_if_noexcept1@?$vector@PAVcObjectBase@Glumer@@V?$allocator@PAVcObjectBase@Glumer@@@std@@@std@@AAEXPAPAVcObjectBase@Glumer@@00U?$integral_constant@_N$00@2@@Z 100631e0 f i cGlumShapeFactory.obj
 0002:00031260       ?_Umove_if_noexcept1@?$vector@UPTR@cGlumShape_Console@Glumer@@V?$allocator@UPTR@cGlumShape_Console@Glumer@@@std@@@std@@AAEXPAUPTR@cGlumShape_Console@Glumer@@00U?$integral_constant@_N$00@2@@Z 10063260 f i cGlumShapeFactory.obj
 0002:000312e0       ?_Umove_if_noexcept1@?$vector@UPTR@cGlumShape_RegularPolyhedron@Glumer@@V?$allocator@UPTR@cGlumShape_RegularPolyhedron@Glumer@@@std@@@std@@AAEXPAUPTR@cGlumShape_RegularPolyhedron@Glumer@@00U?$integral_constant@_N$00@2@@Z 100632e0 f i cGlumShapeFactory.obj
 0002:00031360       ?_Umove_if_noexcept1@?$vector@UPTR@cGlumShape_SwitchGadget@Glumer@@V?$allocator@UPTR@cGlumShape_SwitchGadget@Glumer@@@std@@@std@@AAEXPAUPTR@cGlumShape_SwitchGadget@Glumer@@00U?$integral_constant@_N$00@2@@Z 10063360 f i cGlumShapeFactory.obj
 0002:000313e0       ?_Umove_if_noexcept1@?$vector@UPTR@cMovementBase@Glumer@@V?$allocator@UPTR@cMovementBase@Glumer@@@std@@@std@@AAEXPAUPTR@cMovementBase@Glumer@@00U?$integral_constant@_N$00@2@@Z 100633e0 f i cGlumShapeFactory.obj
 0002:00031460       ?_Umove_if_noexcept1@?$vector@UPTR@cMovement_Camera@Glumer@@V?$allocator@UPTR@cMovement_Camera@Glumer@@@std@@@std@@AAEXPAUPTR@cMovement_Camera@Glumer@@00U?$integral_constant@_N$00@2@@Z 10063460 f i cGlumShapeFactory.obj
 0002:000314e0       ?_Umove_if_noexcept1@?$vector@UPTR@cObjectMoveableBase@Glumer@@V?$allocator@UPTR@cObjectMoveableBase@Glumer@@@std@@@std@@AAEXPAUPTR@cObjectMoveableBase@Glumer@@00U?$integral_constant@_N$00@2@@Z 100634e0 f i cGlumShapeFactory.obj
 0002:00031560       ?_Umove_if_noexcept@?$vector@IV?$allocator@I@std@@@std@@AAEXPAI00@Z 10063560 f i cGlumShapeFactory.obj
 0002:000315e0       ?_Umove_if_noexcept@?$vector@PAVcObjectBase@Glumer@@V?$allocator@PAVcObjectBase@Glumer@@@std@@@std@@AAEXPAPAVcObjectBase@Glumer@@00@Z 100635e0 f i cGlumShapeFactory.obj
 0002:00031660       ?_Umove_if_noexcept@?$vector@UPTR@cGlumShape_Console@Glumer@@V?$allocator@UPTR@cGlumShape_Console@Glumer@@@std@@@std@@AAEXPAUPTR@cGlumShape_Console@Glumer@@00@Z 10063660 f i cGlumShapeFactory.obj
 0002:000316e0       ?_Umove_if_noexcept@?$vector@UPTR@cGlumShape_RegularPolyhedron@Glumer@@V?$allocator@UPTR@cGlumShape_RegularPolyhedron@Glumer@@@std@@@std@@AAEXPAUPTR@cGlumShape_RegularPolyhedron@Glumer@@00@Z 100636e0 f i cGlumShapeFactory.obj
 0002:00031760       ?_Umove_if_noexcept@?$vector@UPTR@cGlumShape_SwitchGadget@Glumer@@V?$allocator@UPTR@cGlumShape_SwitchGadget@Glumer@@@std@@@std@@AAEXPAUPTR@cGlumShape_SwitchGadget@Glumer@@00@Z 10063760 f i cGlumShapeFactory.obj
 0002:000317e0       ?_Umove_if_noexcept@?$vector@UPTR@cMovementBase@Glumer@@V?$allocator@UPTR@cMovementBase@Glumer@@@std@@@std@@AAEXPAUPTR@cMovementBase@Glumer@@00@Z 100637e0 f i cGlumShapeFactory.obj
 0002:00031860       ?_Umove_if_noexcept@?$vector@UPTR@cMovement_Camera@Glumer@@V?$allocator@UPTR@cMovement_Camera@Glumer@@@std@@@std@@AAEXPAUPTR@cMovement_Camera@Glumer@@00@Z 10063860 f i cGlumShapeFactory.obj
 0002:000318e0       ?_Umove_if_noexcept@?$vector@UPTR@cObjectMoveableBase@Glumer@@V?$allocator@UPTR@cObjectMoveableBase@Glumer@@@std@@@std@@AAEXPAUPTR@cObjectMoveableBase@Glumer@@00@Z 100638e0 f i cGlumShapeFactory.obj
 0002:00031960       ?_Unwrapped@?$_Vector_iterator@V?$_Vector_val@U?$_Simple_types@UPTR@cMovement_Camera@Glumer@@@std@@@std@@@std@@QBEPAUPTR@cMovement_Camera@Glumer@@XZ 10063960 f i cGlumShapeFactory.obj
 0002:000319c0       ?_Unwrapped@?$_Vector_iterator@V?$_Vector_val@U?$_Simple_types@UPTR@cObjectMoveableBase@Glumer@@@std@@@std@@@std@@QBEPAUPTR@cObjectMoveableBase@Glumer@@XZ 100639c0 f i cGlumShapeFactory.obj
 0002:00031a20       ?_Verify_range@std@@YAXABV?$_Vector_const_iterator@V?$_Vector_val@U?$_Simple_types@UPTR@cMovement_Camera@Glumer@@@std@@@std@@@1@0@Z 10063a20 f i cGlumShapeFactory.obj
 0002:00031b90       ?_Verify_range@std@@YAXABV?$_Vector_const_iterator@V?$_Vector_val@U?$_Simple_types@UPTR@cObjectMoveableBase@Glumer@@@std@@@std@@@1@0@Z 10063b90 f i cGlumShapeFactory.obj
 0002:00031d00       ?_Xlength@?$vector@IV?$allocator@I@std@@@std@@CAXXZ 10063d00 f i cGlumShapeFactory.obj
 0002:00031d60       ?_Xlength@?$vector@PAVcObjectBase@Glumer@@V?$allocator@PAVcObjectBase@Glumer@@@std@@@std@@CAXXZ 10063d60 f i cGlumShapeFactory.obj
 0002:00031dc0       ?_Xlength@?$vector@UPTR@cGlumShape_Console@Glumer@@V?$allocator@UPTR@cGlumShape_Console@Glumer@@@std@@@std@@CAXXZ 10063dc0 f i cGlumShapeFactory.obj
 0002:00031e20       ?_Xlength@?$vector@UPTR@cGlumShape_RegularPolyhedron@Glumer@@V?$allocator@UPTR@cGlumShape_RegularPolyhedron@Glumer@@@std@@@std@@CAXXZ 10063e20 f i cGlumShapeFactory.obj
 0002:00031e80       ?_Xlength@?$vector@UPTR@cGlumShape_SwitchGadget@Glumer@@V?$allocator@UPTR@cGlumShape_SwitchGadget@Glumer@@@std@@@std@@CAXXZ 10063e80 f i cGlumShapeFactory.obj
 0002:00031ee0       ?_Xlength@?$vector@UPTR@cMovementBase@Glumer@@V?$allocator@UPTR@cMovementBase@Glumer@@@std@@@std@@CAXXZ 10063ee0 f i cGlumShapeFactory.obj
 0002:00031f40       ?_Xlength@?$vector@UPTR@cMovement_Camera@Glumer@@V?$allocator@UPTR@cMovement_Camera@Glumer@@@std@@@std@@CAXXZ 10063f40 f i cGlumShapeFactory.obj
 0002:00031fa0       ?_Xlength@?$vector@UPTR@cObjectMoveableBase@Glumer@@V?$allocator@UPTR@cObjectMoveableBase@Glumer@@@std@@@std@@CAXXZ 10063fa0 f i cGlumShapeFactory.obj
 0002:00032000       ?__empty_global_delete@@YAXPAX@Z 10064000 f i cGlumShapeFactory.obj
 0002:00032050       ?__empty_global_delete@@YAXPAXI@Z 10064050 f i cGlumShapeFactory.obj
 0002:000320a0       ?allocate@?$allocator@I@std@@QAEPAII@Z 100640a0 f i cGlumShapeFactory.obj
 0002:00032110       ?allocate@?$allocator@PAVcObjectBase@Glumer@@@std@@QAEPAPAVcObjectBase@Glumer@@I@Z 10064110 f i cGlumShapeFactory.obj
 0002:00032180       ?allocate@?$allocator@U?$_Tree_node@U?$pair@$$CBIUPTR@cGlumShapeBase@Glumer@@@std@@PAX@std@@@std@@QAEPAU?$_Tree_node@U?$pair@$$CBIUPTR@cGlumShapeBase@Glumer@@@std@@PAX@2@I@Z 10064180 f i cGlumShapeFactory.obj
 0002:000321f0       ?allocate@?$allocator@UPTR@cGlumShape_Console@Glumer@@@std@@QAEPAUPTR@cGlumShape_Console@Glumer@@I@Z 100641f0 f i cGlumShapeFactory.obj
 0002:00032260       ?allocate@?$allocator@UPTR@cGlumShape_RegularPolyhedron@Glumer@@@std@@QAEPAUPTR@cGlumShape_RegularPolyhedron@Glumer@@I@Z 10064260 f i cGlumShapeFactory.obj
 0002:000322d0       ?allocate@?$allocator@UPTR@cGlumShape_SwitchGadget@Glumer@@@std@@QAEPAUPTR@cGlumShape_SwitchGadget@Glumer@@I@Z 100642d0 f i cGlumShapeFactory.obj
 0002:00032340       ?allocate@?$allocator@UPTR@cMovementBase@Glumer@@@std@@QAEPAUPTR@cMovementBase@Glumer@@I@Z 10064340 f i cGlumShapeFactory.obj
 0002:000323b0       ?allocate@?$allocator@UPTR@cMovement_Camera@Glumer@@@std@@QAEPAUPTR@cMovement_Camera@Glumer@@I@Z 100643b0 f i cGlumShapeFactory.obj
 0002:00032420       ?allocate@?$allocator@UPTR@cObjectMoveableBase@Glumer@@@std@@QAEPAUPTR@cObjectMoveableBase@Glumer@@I@Z 10064420 f i cGlumShapeFactory.obj
 0002:00032490       ?allocate@?$allocator@U_Container_proxy@std@@@std@@QAEPAU_Container_proxy@2@I@Z 10064490 f i cGlumShapeFactory.obj
 0002:00032500       ?begin@?$_Tree@V?$_Tmap_traits@IUPTR@cGlumShapeBase@Glumer@@U?$less@I@std@@V?$allocator@U?$pair@$$CBIUPTR@cGlumShapeBase@Glumer@@@std@@@5@$0A@@std@@@std@@QAE?AV?$_Tree_iterator@V?$_Tree_val@U?$_Tree_simple_types@U?$pair@$$CBIUPTR@cGlumShapeBase@Glumer@@@std@@@std@@@std@@@2@XZ 10064500 f i cGlumShapeFactory.obj
 0002:000325d0       ?begin@?$vector@IV?$allocator@I@std@@@std@@QAE?AV?$_Vector_iterator@V?$_Vector_val@U?$_Simple_types@I@std@@@std@@@2@XZ 100645d0 f i cGlumShapeFactory.obj
 0002:00032690       ?begin@?$vector@UPTR@cGlumShape_Console@Glumer@@V?$allocator@UPTR@cGlumShape_Console@Glumer@@@std@@@std@@QAE?AV?$_Vector_iterator@V?$_Vector_val@U?$_Simple_types@UPTR@cGlumShape_Console@Glumer@@@std@@@std@@@2@XZ 10064690 f i cGlumShapeFactory.obj
 0002:00032750       ?begin@?$vector@UPTR@cGlumShape_RegularPolyhedron@Glumer@@V?$allocator@UPTR@cGlumShape_RegularPolyhedron@Glumer@@@std@@@std@@QAE?AV?$_Vector_iterator@V?$_Vector_val@U?$_Simple_types@UPTR@cGlumShape_RegularPolyhedron@Glumer@@@std@@@std@@@2@XZ 10064750 f i cGlumShapeFactory.obj
 0002:00032810       ?begin@?$vector@UPTR@cGlumShape_SwitchGadget@Glumer@@V?$allocator@UPTR@cGlumShape_SwitchGadget@Glumer@@@std@@@std@@QAE?AV?$_Vector_iterator@V?$_Vector_val@U?$_Simple_types@UPTR@cGlumShape_SwitchGadget@Glumer@@@std@@@std@@@2@XZ 10064810 f i cGlumShapeFactory.obj
 0002:000328d0       ?begin@?$vector@UPTR@cMovement_Camera@Glumer@@V?$allocator@UPTR@cMovement_Camera@Glumer@@@std@@@std@@QAE?AV?$_Vector_iterator@V?$_Vector_val@U?$_Simple_types@UPTR@cMovement_Camera@Glumer@@@std@@@std@@@2@XZ 100648d0 f i cGlumShapeFactory.obj
 0002:00032990       ?begin@?$vector@UPTR@cObjectMoveableBase@Glumer@@V?$allocator@UPTR@cObjectMoveableBase@Glumer@@@std@@@std@@QAE?AV?$_Vector_iterator@V?$_Vector_val@U?$_Simple_types@UPTR@cObjectMoveableBase@Glumer@@@std@@@std@@@2@XZ 10064990 f i cGlumShapeFactory.obj
 0002:00032a50       ?capacity@?$vector@IV?$allocator@I@std@@@std@@QBEIXZ 10064a50 f i cGlumShapeFactory.obj
 0002:00032b00       ?capacity@?$vector@PAVcObjectBase@Glumer@@V?$allocator@PAVcObjectBase@Glumer@@@std@@@std@@QBEIXZ 10064b00 f i cGlumShapeFactory.obj
 0002:00032bb0       ?capacity@?$vector@UPTR@cGlumShape_Console@Glumer@@V?$allocator@UPTR@cGlumShape_Console@Glumer@@@std@@@std@@QBEIXZ 10064bb0 f i cGlumShapeFactory.obj
 0002:00032c60       ?capacity@?$vector@UPTR@cGlumShape_RegularPolyhedron@Glumer@@V?$allocator@UPTR@cGlumShape_RegularPolyhedron@Glumer@@@std@@@std@@QBEIXZ 10064c60 f i cGlumShapeFactory.obj
 0002:00032d10       ?capacity@?$vector@UPTR@cGlumShape_SwitchGadget@Glumer@@V?$allocator@UPTR@cGlumShape_SwitchGadget@Glumer@@@std@@@std@@QBEIXZ 10064d10 f i cGlumShapeFactory.obj
 0002:00032dc0       ?capacity@?$vector@UPTR@cMovementBase@Glumer@@V?$allocator@UPTR@cMovementBase@Glumer@@@std@@@std@@QBEIXZ 10064dc0 f i cGlumShapeFactory.obj
 0002:00032e70       ?capacity@?$vector@UPTR@cMovement_Camera@Glumer@@V?$allocator@UPTR@cMovement_Camera@Glumer@@@std@@@std@@QBEIXZ 10064e70 f i cGlumShapeFactory.obj
 0002:00032f20       ?capacity@?$vector@UPTR@cObjectMoveableBase@Glumer@@V?$allocator@UPTR@cObjectMoveableBase@Glumer@@@std@@@std@@QBEIXZ 10064f20 f i cGlumShapeFactory.obj
 0002:00032fd0       ?clear@?$_Tree@V?$_Tmap_traits@IUPTR@cGlumShapeBase@Glumer@@U?$less@I@std@@V?$allocator@U?$pair@$$CBIUPTR@cGlumShapeBase@Glumer@@@std@@@5@$0A@@std@@@std@@QAEXXZ 10064fd0 f i cGlumShapeFactory.obj
 0002:000330d0       ?deallocate@?$_Default_allocator_traits@V?$allocator@U?$_Tree_node@U?$pair@$$CBIUPTR@cGlumShapeBase@Glumer@@@std@@PAX@std@@@std@@@std@@SAXAAV?$allocator@U?$_Tree_node@U?$pair@$$CBIUPTR@cGlumShapeBase@Glumer@@@std@@PAX@std@@@2@QAU?$_Tree_node@U?$pair@$$CBIUPTR@cGlumShapeBase@Glumer@@@std@@PAX@2@I@Z 100650d0 f i cGlumShapeFactory.obj
 0002:00033130       ?deallocate@?$_Default_allocator_traits@V?$allocator@U_Container_proxy@std@@@std@@@std@@SAXAAV?$allocator@U_Container_proxy@std@@@2@QAU_Container_proxy@2@I@Z 10065130 f i cGlumShapeFactory.obj
 0002:000331a0       ?deallocate@?$allocator@I@std@@QAEXQAII@Z 100651a0 f i cGlumShapeFactory.obj
 0002:00033210       ?deallocate@?$allocator@PAVcObjectBase@Glumer@@@std@@QAEXQAPAVcObjectBase@Glumer@@I@Z 10065210 f i cGlumShapeFactory.obj
 0002:00033280       ?deallocate@?$allocator@U?$_Tree_node@U?$pair@$$CBIUPTR@cGlumShapeBase@Glumer@@@std@@PAX@std@@@std@@QAEXQAU?$_Tree_node@U?$pair@$$CBIUPTR@cGlumShapeBase@Glumer@@@std@@PAX@2@I@Z 10065280 f i cGlumShapeFactory.obj
 0002:000332f0       ?deallocate@?$allocator@UPTR@cGlumShape_Console@Glumer@@@std@@QAEXQAUPTR@cGlumShape_Console@Glumer@@I@Z 100652f0 f i cGlumShapeFactory.obj
 0002:00033360       ?deallocate@?$allocator@UPTR@cGlumShape_RegularPolyhedron@Glumer@@@std@@QAEXQAUPTR@cGlumShape_RegularPolyhedron@Glumer@@I@Z 10065360 f i cGlumShapeFactory.obj
 0002:000333d0       ?deallocate@?$allocator@UPTR@cGlumShape_SwitchGadget@Glumer@@@std@@QAEXQAUPTR@cGlumShape_SwitchGadget@Glumer@@I@Z 100653d0 f i cGlumShapeFactory.obj
 0002:00033440       ?deallocate@?$allocator@UPTR@cMovementBase@Glumer@@@std@@QAEXQAUPTR@cMovementBase@Glumer@@I@Z 10065440 f i cGlumShapeFactory.obj
 0002:000334b0       ?deallocate@?$allocator@UPTR@cMovement_Camera@Glumer@@@std@@QAEXQAUPTR@cMovement_Camera@Glumer@@I@Z 100654b0 f i cGlumShapeFactory.obj
 0002:00033520       ?deallocate@?$allocator@UPTR@cObjectMoveableBase@Glumer@@@std@@QAEXQAUPTR@cObjectMoveableBase@Glumer@@I@Z 10065520 f i cGlumShapeFactory.obj
 0002:00033590       ?end@?$_Tree@V?$_Tmap_traits@IUPTR@cGlumShapeBase@Glumer@@U?$less@I@std@@V?$allocator@U?$pair@$$CBIUPTR@cGlumShapeBase@Glumer@@@std@@@5@$0A@@std@@@std@@QAE?AV?$_Tree_iterator@V?$_Tree_val@U?$_Tree_simple_types@U?$pair@$$CBIUPTR@cGlumShapeBase@Glumer@@@std@@@std@@@std@@@2@XZ 10065590 f i cGlumShapeFactory.obj
 0002:00033650       ?end@?$vector@IV?$allocator@I@std@@@std@@QAE?AV?$_Vector_iterator@V?$_Vector_val@U?$_Simple_types@I@std@@@std@@@2@XZ 10065650 f i cGlumShapeFactory.obj
 0002:00033710       ?end@?$vector@UPTR@cGlumShape_Console@Glumer@@V?$allocator@UPTR@cGlumShape_Console@Glumer@@@std@@@std@@QAE?AV?$_Vector_iterator@V?$_Vector_val@U?$_Simple_types@UPTR@cGlumShape_Console@Glumer@@@std@@@std@@@2@XZ 10065710 f i cGlumShapeFactory.obj
 0002:000337d0       ?end@?$vector@UPTR@cGlumShape_RegularPolyhedron@Glumer@@V?$allocator@UPTR@cGlumShape_RegularPolyhedron@Glumer@@@std@@@std@@QAE?AV?$_Vector_iterator@V?$_Vector_val@U?$_Simple_types@UPTR@cGlumShape_RegularPolyhedron@Glumer@@@std@@@std@@@2@XZ 100657d0 f i cGlumShapeFactory.obj
 0002:00033890       ?end@?$vector@UPTR@cGlumShape_SwitchGadget@Glumer@@V?$allocator@UPTR@cGlumShape_SwitchGadget@Glumer@@@std@@@std@@QAE?AV?$_Vector_iterator@V?$_Vector_val@U?$_Simple_types@UPTR@cGlumShape_SwitchGadget@Glumer@@@std@@@std@@@2@XZ 10065890 f i cGlumShapeFactory.obj
 0002:00033950       ?end@?$vector@UPTR@cMovement_Camera@Glumer@@V?$allocator@UPTR@cMovement_Camera@Glumer@@@std@@@std@@QAE?AV?$_Vector_iterator@V?$_Vector_val@U?$_Simple_types@UPTR@cMovement_Camera@Glumer@@@std@@@std@@@2@XZ 10065950 f i cGlumShapeFactory.obj
 0002:00033a10       ?end@?$vector@UPTR@cObjectMoveableBase@Glumer@@V?$allocator@UPTR@cObjectMoveableBase@Glumer@@@std@@@std@@QAE?AV?$_Vector_iterator@V?$_Vector_val@U?$_Simple_types@UPTR@cObjectMoveableBase@Glumer@@@std@@@std@@@2@XZ 10065a10 f i cGlumShapeFactory.obj
 0002:00033ad0       ?erase@?$_Tree@V?$_Tmap_traits@IUPTR@cGlumShapeBase@Glumer@@U?$less@I@std@@V?$allocator@U?$pair@$$CBIUPTR@cGlumShapeBase@Glumer@@@std@@@5@$0A@@std@@@std@@QAE?AV?$_Tree_iterator@V?$_Tree_val@U?$_Tree_simple_types@U?$pair@$$CBIUPTR@cGlumShapeBase@Glumer@@@std@@@std@@@std@@@2@V?$_Tree_const_iterator@V?$_Tree_val@U?$_Tree_simple_types@U?$pair@$$CBIUPTR@cGlumShapeBase@Glumer@@@std@@@std@@@std@@@2@0@Z 10065ad0 f i cGlumShapeFactory.obj
 0002:00033e00       ?erase@?$_Tree@V?$_Tmap_traits@IUPTR@cGlumShapeBase@Glumer@@U?$less@I@std@@V?$allocator@U?$pair@$$CBIUPTR@cGlumShapeBase@Glumer@@@std@@@5@$0A@@std@@@std@@QAE?AV?$_Tree_iterator@V?$_Tree_val@U?$_Tree_simple_types@U?$pair@$$CBIUPTR@cGlumShapeBase@Glumer@@@std@@@std@@@std@@@2@V?$_Tree_const_iterator@V?$_Tree_val@U?$_Tree_simple_types@U?$pair@$$CBIUPTR@cGlumShapeBase@Glumer@@@std@@@std@@@std@@@2@@Z 10065e00 f i cGlumShapeFactory.obj
 0002:000340a0       ?lower_bound@?$_Tree@V?$_Tmap_traits@IUPTR@cGlumShapeBase@Glumer@@U?$less@I@std@@V?$allocator@U?$pair@$$CBIUPTR@cGlumShapeBase@Glumer@@@std@@@5@$0A@@std@@@std@@QAE?AV?$_Tree_iterator@V?$_Tree_val@U?$_Tree_simple_types@U?$pair@$$CBIUPTR@cGlumShapeBase@Glumer@@@std@@@std@@@std@@@2@ABI@Z 100660a0 f i cGlumShapeFactory.obj
 0002:00034150       ?max@?$numeric_limits@H@std@@SAHXZ 10066150 f i cGlumShapeFactory.obj
 0002:000341e0       ?max_size@?$_Default_allocator_traits@V?$allocator@I@std@@@std@@SAIABV?$allocator@I@2@@Z 100661e0 f i cGlumShapeFactory.obj
 0002:00034270       ?max_size@?$_Default_allocator_traits@V?$allocator@PAVcObjectBase@Glumer@@@std@@@std@@SAIABV?$allocator@PAVcObjectBase@Glumer@@@2@@Z 10066270 f i cGlumShapeFactory.obj
 0002:00034300       ?max_size@?$_Default_allocator_traits@V?$allocator@U?$_Tree_node@U?$pair@$$CBIUPTR@cGlumShapeBase@Glumer@@@std@@PAX@std@@@std@@@std@@SAIABV?$allocator@U?$_Tree_node@U?$pair@$$CBIUPTR@cGlumShapeBase@Glumer@@@std@@PAX@std@@@2@@Z 10066300 f i cGlumShapeFactory.obj
 0002:00034390       ?max_size@?$_Default_allocator_traits@V?$allocator@UPTR@cGlumShape_Console@Glumer@@@std@@@std@@SAIABV?$allocator@UPTR@cGlumShape_Console@Glumer@@@2@@Z 10066390 f i cGlumShapeFactory.obj
 0002:00034420       ?max_size@?$_Default_allocator_traits@V?$allocator@UPTR@cGlumShape_RegularPolyhedron@Glumer@@@std@@@std@@SAIABV?$allocator@UPTR@cGlumShape_RegularPolyhedron@Glumer@@@2@@Z 10066420 f i cGlumShapeFactory.obj
 0002:000344b0       ?max_size@?$_Default_allocator_traits@V?$allocator@UPTR@cGlumShape_SwitchGadget@Glumer@@@std@@@std@@SAIABV?$allocator@UPTR@cGlumShape_SwitchGadget@Glumer@@@2@@Z 100664b0 f i cGlumShapeFactory.obj
 0002:00034540       ?max_size@?$_Default_allocator_traits@V?$allocator@UPTR@cMovementBase@Glumer@@@std@@@std@@SAIABV?$allocator@UPTR@cMovementBase@Glumer@@@2@@Z 10066540 f i cGlumShapeFactory.obj
 0002:000345d0       ?max_size@?$_Default_allocator_traits@V?$allocator@UPTR@cMovement_Camera@Glumer@@@std@@@std@@SAIABV?$allocator@UPTR@cMovement_Camera@Glumer@@@2@@Z 100665d0 f i cGlumShapeFactory.obj
 0002:00034660       ?max_size@?$_Default_allocator_traits@V?$allocator@UPTR@cObjectMoveableBase@Glumer@@@std@@@std@@SAIABV?$allocator@UPTR@cObjectMoveableBase@Glumer@@@2@@Z 10066660 f i cGlumShapeFactory.obj
 0002:000346f0       ?max_size@?$_Tree@V?$_Tmap_traits@IUPTR@cGlumShapeBase@Glumer@@U?$less@I@std@@V?$allocator@U?$pair@$$CBIUPTR@cGlumShapeBase@Glumer@@@std@@@5@$0A@@std@@@std@@QBEIXZ 100666f0 f i cGlumShapeFactory.obj
 0002:00034790       ?max_size@?$vector@IV?$allocator@I@std@@@std@@QBEIXZ 10066790 f i cGlumShapeFactory.obj
 0002:00034860       ?max_size@?$vector@PAVcObjectBase@Glumer@@V?$allocator@PAVcObjectBase@Glumer@@@std@@@std@@QBEIXZ 10066860 f i cGlumShapeFactory.obj
 0002:00034930       ?max_size@?$vector@UPTR@cGlumShape_Console@Glumer@@V?$allocator@UPTR@cGlumShape_Console@Glumer@@@std@@@std@@QBEIXZ 10066930 f i cGlumShapeFactory.obj
 0002:00034a00       ?max_size@?$vector@UPTR@cGlumShape_RegularPolyhedron@Glumer@@V?$allocator@UPTR@cGlumShape_RegularPolyhedron@Glumer@@@std@@@std@@QBEIXZ 10066a00 f i cGlumShapeFactory.obj
 0002:00034ad0       ?max_size@?$vector@UPTR@cGlumShape_SwitchGadget@Glumer@@V?$allocator@UPTR@cGlumShape_SwitchGadget@Glumer@@@std@@@std@@QBEIXZ 10066ad0 f i cGlumShapeFactory.obj
 0002:00034ba0       ?max_size@?$vector@UPTR@cMovementBase@Glumer@@V?$allocator@UPTR@cMovementBase@Glumer@@@std@@@std@@QBEIXZ 10066ba0 f i cGlumShapeFactory.obj
 0002:00034c70       ?max_size@?$vector@UPTR@cMovement_Camera@Glumer@@V?$allocator@UPTR@cMovement_Camera@Glumer@@@std@@@std@@QBEIXZ 10066c70 f i cGlumShapeFactory.obj
 0002:00034d40       ?max_size@?$vector@UPTR@cObjectMoveableBase@Glumer@@V?$allocator@UPTR@cObjectMoveableBase@Glumer@@@std@@@std@@QBEIXZ 10066d40 f i cGlumShapeFactory.obj
 0002:00034e10       ?pointer_to@?$pointer_traits@PAU?$pair@$$CBIUPTR@cGlumShapeBase@Glumer@@@std@@@std@@SAPAU?$pair@$$CBIUPTR@cGlumShapeBase@Glumer@@@2@AAU32@@Z 10066e10 f i cGlumShapeFactory.obj
 0002:00034e70       ?push_back@?$vector@IV?$allocator@I@std@@@std@@QAEX$$QAI@Z 10066e70 f i cGlumShapeFactory.obj
 0002:00034ee0       ?push_back@?$vector@IV?$allocator@I@std@@@std@@QAEXABI@Z 10066ee0 f i cGlumShapeFactory.obj
 0002:00034f50       ?push_back@?$vector@PAVcObjectBase@Glumer@@V?$allocator@PAVcObjectBase@Glumer@@@std@@@std@@QAEXABQAVcObjectBase@Glumer@@@Z 10066f50 f i cGlumShapeFactory.obj
 0002:00034fc0       ?push_back@?$vector@UPTR@cGlumShape_Console@Glumer@@V?$allocator@UPTR@cGlumShape_Console@Glumer@@@std@@@std@@QAEXABUPTR@cGlumShape_Console@Glumer@@@Z 10066fc0 f i cGlumShapeFactory.obj
 0002:00035030       ?push_back@?$vector@UPTR@cGlumShape_RegularPolyhedron@Glumer@@V?$allocator@UPTR@cGlumShape_RegularPolyhedron@Glumer@@@std@@@std@@QAEXABUPTR@cGlumShape_RegularPolyhedron@Glumer@@@Z 10067030 f i cGlumShapeFactory.obj
 0002:000350a0       ?push_back@?$vector@UPTR@cGlumShape_SwitchGadget@Glumer@@V?$allocator@UPTR@cGlumShape_SwitchGadget@Glumer@@@std@@@std@@QAEXABUPTR@cGlumShape_SwitchGadget@Glumer@@@Z 100670a0 f i cGlumShapeFactory.obj
 0002:00035110       ?push_back@?$vector@UPTR@cMovementBase@Glumer@@V?$allocator@UPTR@cMovementBase@Glumer@@@std@@@std@@QAEXABUPTR@cMovementBase@Glumer@@@Z 10067110 f i cGlumShapeFactory.obj
 0002:00035180       ?push_back@?$vector@UPTR@cMovement_Camera@Glumer@@V?$allocator@UPTR@cMovement_Camera@Glumer@@@std@@@std@@QAEXABUPTR@cMovement_Camera@Glumer@@@Z 10067180 f i cGlumShapeFactory.obj
 0002:000351f0       ?push_back@?$vector@UPTR@cObjectMoveableBase@Glumer@@V?$allocator@UPTR@cObjectMoveableBase@Glumer@@@std@@@std@@QAEXABUPTR@cObjectMoveableBase@Glumer@@@Z 100671f0 f i cGlumShapeFactory.obj
 0002:00035260       ?reserve@?$vector@IV?$allocator@I@std@@@std@@QAEXI@Z 10067260 f i cGlumShapeFactory.obj
 0002:000352f0       ?reserve@?$vector@UPTR@cObjectMoveableBase@Glumer@@V?$allocator@UPTR@cObjectMoveableBase@Glumer@@@std@@@std@@QAEXI@Z 100672f0 f i cGlumShapeFactory.obj
 0002:00035380       ?size@?$_Tree@V?$_Tmap_traits@IUPTR@cGlumShapeBase@Glumer@@U?$less@I@std@@V?$allocator@U?$pair@$$CBIUPTR@cGlumShapeBase@Glumer@@@std@@@5@$0A@@std@@@std@@QBEIXZ 10067380 f i cGlumShapeFactory.obj
 0002:00035420       ?size@?$vector@IV?$allocator@I@std@@@std@@QBEIXZ 10067420 f i cGlumShapeFactory.obj
 0002:000354d0       ?size@?$vector@PAVcObjectBase@Glumer@@V?$allocator@PAVcObjectBase@Glumer@@@std@@@std@@QBEIXZ 100674d0 f i cGlumShapeFactory.obj
 0002:00035580       ?size@?$vector@UPTR@cGlumShape_Console@Glumer@@V?$allocator@UPTR@cGlumShape_Console@Glumer@@@std@@@std@@QBEIXZ 10067580 f i cGlumShapeFactory.obj
 0002:00035630       ?size@?$vector@UPTR@cGlumShape_RegularPolyhedron@Glumer@@V?$allocator@UPTR@cGlumShape_RegularPolyhedron@Glumer@@@std@@@std@@QBEIXZ 10067630 f i cGlumShapeFactory.obj
 0002:000356e0       ?size@?$vector@UPTR@cGlumShape_SwitchGadget@Glumer@@V?$allocator@UPTR@cGlumShape_SwitchGadget@Glumer@@@std@@@std@@QBEIXZ 100676e0 f i cGlumShapeFactory.obj
 0002:00035790       ?size@?$vector@UPTR@cMovementBase@Glumer@@V?$allocator@UPTR@cMovementBase@Glumer@@@std@@@std@@QBEIXZ 10067790 f i cGlumShapeFactory.obj
 0002:00035840       ?size@?$vector@UPTR@cMovement_Camera@Glumer@@V?$allocator@UPTR@cMovement_Camera@Glumer@@@std@@@std@@QBEIXZ 10067840 f i cGlumShapeFactory.obj
 0002:000358f0       ?size@?$vector@UPTR@cObjectMoveableBase@Glumer@@V?$allocator@UPTR@cObjectMoveableBase@Glumer@@@std@@@std@@QBEIXZ 100678f0 f i cGlumShapeFactory.obj
 0002:000359a0       ??$_Copy_backward_memmove@PAUPTR@cMovementBase@Glumer@@PAU123@@std@@YAPAUPTR@cMovementBase@Glumer@@PAU123@00@Z 100679a0 f i cGlumShape_RegularPolyhedron.obj
 0002:00035a30       ??$_Move_backward_unchecked1@PAUPTR@cMovementBase@Glumer@@PAU123@@std@@YAPAUPTR@cMovementBase@Glumer@@PAU123@00U_Trivially_copyable_ptr_iterator_tag@0@@Z 10067a30 f i cGlumShape_RegularPolyhedron.obj
 0002:00035aa0       ??$_Move_backward_unchecked@PAUPTR@cMovementBase@Glumer@@PAU123@@std@@YAPAUPTR@cMovementBase@Glumer@@PAU123@00@Z 10067aa0 f i cGlumShape_RegularPolyhedron.obj
 0002:00035b30       ??$addressof@V?$_Vector_val@U?$_Simple_types@UPTR@cMovementBase@Glumer@@@std@@@std@@@std@@YAPAV?$_Vector_val@U?$_Simple_types@UPTR@cMovementBase@Glumer@@@std@@@0@AAV10@@Z 10067b30 f i cGlumShape_RegularPolyhedron.obj
 0002:00035bc0       ??$construct@UPTR@cMovementBase@Glumer@@U123@@?$_Default_allocator_traits@V?$allocator@UPTR@cMovementBase@Glumer@@@std@@@std@@SAXAAV?$allocator@UPTR@cMovementBase@Glumer@@@1@QAUPTR@cMovementBase@Glumer@@$$QAU345@@Z 10067bc0 f i cGlumShape_RegularPolyhedron.obj
 0002:00035c40       ??$emplace@ABUPTR@cMovementBase@Glumer@@@?$vector@UPTR@cMovementBase@Glumer@@V?$allocator@UPTR@cMovementBase@Glumer@@@std@@@std@@QAE?AV?$_Vector_iterator@V?$_Vector_val@U?$_Simple_types@UPTR@cMovementBase@Glumer@@@std@@@std@@@1@V?$_Vector_const_iterator@V?$_Vector_val@U?$_Simple_types@UPTR@cMovementBase@Glumer@@@std@@@std@@@1@ABUPTR@cMovementBase@Glumer@@@Z 10067c40 f i cGlumShape_RegularPolyhedron.obj
 0002:00035f90       ??$forward@UPTR@cMovementBase@Glumer@@@std@@YA$$QAUPTR@cMovementBase@Glumer@@AAU123@@Z 10067f90 f i cGlumShape_RegularPolyhedron.obj
 0002:00036020       ??$move@AAUPTR@cMovementBase@Glumer@@@std@@YA$$QAUPTR@cMovementBase@Glumer@@AAU123@@Z 10068020 f i cGlumShape_RegularPolyhedron.obj
 0002:000360b0       ??0?$_Vector_const_iterator@V?$_Vector_val@U?$_Simple_types@UPTR@cMovementBase@Glumer@@@std@@@std@@@std@@QAE@$$QAV01@@Z 100680b0 f i cGlumShape_RegularPolyhedron.obj
 0002:00036120       ??0?$_Vector_const_iterator@V?$_Vector_val@U?$_Simple_types@UPTR@cMovementBase@Glumer@@@std@@@std@@@std@@QAE@ABV01@@Z 10068120 f i cGlumShape_RegularPolyhedron.obj
 0002:00036190       ??0?$_Vector_const_iterator@V?$_Vector_val@U?$_Simple_types@UPTR@cMovementBase@Glumer@@@std@@@std@@@std@@QAE@PAUPTR@cMovementBase@Glumer@@PBU_Container_base12@1@@Z 10068190 f i cGlumShape_RegularPolyhedron.obj
 0002:00036210       ??0?$_Vector_iterator@V?$_Vector_val@U?$_Simple_types@UPTR@cMovementBase@Glumer@@@std@@@std@@@std@@QAE@PAUPTR@cMovementBase@Glumer@@PBU_Container_base12@1@@Z 10068210 f i cGlumShape_RegularPolyhedron.obj
 0002:00036280       ??0cTimer_RockMotion@Glumer@@QAE@PAVcGlumShapeBase@1@I@Z 10068280 f i cGlumShape_RegularPolyhedron.obj
 0002:00036360       ??1?$_Vector_const_iterator@V?$_Vector_val@U?$_Simple_types@UPTR@cMovementBase@Glumer@@@std@@@std@@@std@@QAE@XZ 10068360 f i cGlumShape_RegularPolyhedron.obj
 0002:000363b0       ??1?$_Vector_iterator@V?$_Vector_val@U?$_Simple_types@UPTR@cMovementBase@Glumer@@@std@@@std@@@std@@QAE@XZ 100683b0 f i cGlumShape_RegularPolyhedron.obj
 0002:00036400       ??1cTimer_RockMotion@Glumer@@UAE@XZ 10068400 f i cGlumShape_RegularPolyhedron.obj
 0002:000364a0       ??_EcTimer_RockMotion@Glumer@@UAEPAXI@Z 100684a0 f i cGlumShape_RegularPolyhedron.obj
 0002:000364a0       ??_GcTimer_RockMotion@Glumer@@UAEPAXI@Z 100684a0 f i cGlumShape_RegularPolyhedron.obj
 0002:00036510       ?Start@cGlumShape_RegularPolyhedron@Glumer@@UAEXPAVcMovementBase@2@@Z 10068510 f   cGlumShape_RegularPolyhedron.obj
 0002:00036900       ?_Make_iterator@?$_Vector_alloc@U?$_Vec_base_types@UPTR@cMovementBase@Glumer@@V?$allocator@UPTR@cMovementBase@Glumer@@@std@@@std@@@std@@QAE?AV?$_Vector_iterator@V?$_Vector_val@U?$_Simple_types@UPTR@cMovementBase@Glumer@@@std@@@std@@@2@QAUPTR@cMovementBase@Glumer@@@Z 10068900 f i cGlumShape_RegularPolyhedron.obj
 0002:000369c0       ?begin@?$vector@UPTR@cMovementBase@Glumer@@V?$allocator@UPTR@cMovementBase@Glumer@@@std@@@std@@QAE?AV?$_Vector_iterator@V?$_Vector_val@U?$_Simple_types@UPTR@cMovementBase@Glumer@@@std@@@std@@@2@XZ 100689c0 f i cGlumShape_RegularPolyhedron.obj
 0002:00036a80       ?insert@?$vector@UPTR@cMovementBase@Glumer@@V?$allocator@UPTR@cMovementBase@Glumer@@@std@@@std@@QAE?AV?$_Vector_iterator@V?$_Vector_val@U?$_Simple_types@UPTR@cMovementBase@Glumer@@@std@@@std@@@2@V?$_Vector_const_iterator@V?$_Vector_val@U?$_Simple_types@UPTR@cMovementBase@Glumer@@@std@@@std@@@2@ABUPTR@cMovementBase@Glumer@@@Z 10068a80 f i cGlumShape_RegularPolyhedron.obj
 0002:00036b80       ?EventSelected@cGlumShape_SwitchGadget@Glumer@@UAEXXZ 10068b80 f   cGlumShape_SwitchGadget.obj
 0002:00036d10       ?Init@cGlumShape_SwitchGadget@Glumer@@QAEXMP6AXPAVcTimer_PistonMotion@2@PAVcGlumShapeBase@2@M_N@ZP6GXI2@ZP6GXI@Z@Z 10068d10 f   cGlumShape_SwitchGadget.obj
 0002:00036db0       ?Max@cTimer_PistonMotion@Glumer@@QBEMXZ 10068db0 f i cGlumShape_SwitchGadget.obj
 0002:00036e10       ?PistonShift_ButtonClick@cGlumShape_SwitchGadget@Glumer@@SAXPAVcTimer_PistonMotion@2@PAVcGlumShapeBase@2@M_N@Z 10068e10 f   cGlumShape_SwitchGadget.obj
 0002:00036fb0       ?PistonShift_ButtonDoesntKnowWhatItIs@cGlumShape_SwitchGadget@Glumer@@SAXPAVcTimer_PistonMotion@2@PAVcGlumShapeBase@2@M_N@Z 10068fb0 f   cGlumShape_SwitchGadget.obj
 0002:00037130       ?PistonShift_OnOffClick@cGlumShape_SwitchGadget@Glumer@@SAXPAVcTimer_PistonMotion@2@PAVcGlumShapeBase@2@M_N@Z 10069130 f   cGlumShape_SwitchGadget.obj
 0002:00037270       ?PistonShift_OnOffPulse@cGlumShape_SwitchGadget@Glumer@@SAXPAVcTimer_PistonMotion@2@PAVcGlumShapeBase@2@M_N@Z 10069270 f   cGlumShape_SwitchGadget.obj
 0002:00037390       ?TopCount@cTimer_PistonMotion@Glumer@@QBEHXZ 10069390 f i cGlumShape_SwitchGadget.obj
 0002:000373f0       ??YcGluperCenter@Glumer@@QAEXABVcGluperDirection@1@@Z 100693f0 f i cMovement_Camera.obj
 0002:000374f0       ?AddToAngle@cGluperOrientation@Glumer@@QAEXM@Z 100694f0 f i cMovement_Camera.obj
 0002:00037560       ?AddToCenter@cGlumShapeBase@Glumer@@QAEXABVcGluperDirection@2@@Z 10069560 f i cMovement_Camera.obj
 0002:000375d0       ?AddToXYZ@cGluperCenter@Glumer@@QAEXMMM@Z 100695d0 f i cMovement_Camera.obj
 0002:000376d0       ?EventPossition@cMovement_Camera@Glumer@@UAEXXZ 100696d0 f   cMovement_Camera.obj
 0002:000378d0       ?EventTimer@cMovement_Camera@Glumer@@EAEXXZ 100698d0 f   cMovement_Camera.obj
 0002:000379c0       ?GetAngle@cGluperOrientation@Glumer@@QBEMXZ 100699c0 f i cMovement_Camera.obj
 0002:00037a20       ?GetAngleIncrement@cGluperOrientation@Glumer@@QBEMXZ 10069a20 f i cMovement_Camera.obj
 0002:00037a80       ??$_Adl_verify_range1@V?$_Vector_iterator@V?$_Vector_val@U?$_Simple_types@UPTR@cMovementBase@Glumer@@@std@@@std@@@std@@V12@@std@@YAXABV?$_Vector_iterator@V?$_Vector_val@U?$_Simple_types@UPTR@cMovementBase@Glumer@@@std@@@std@@@0@0U?$integral_constant@_N$00@0@@Z 10069a80 f i cGluperCenter.obj
 0002:00037ae0       ??$_Adl_verify_range@V?$_Vector_iterator@V?$_Vector_val@U?$_Simple_types@UPTR@cMovementBase@Glumer@@@std@@@std@@@std@@V12@@std@@YAXABV?$_Vector_iterator@V?$_Vector_val@U?$_Simple_types@UPTR@cMovementBase@Glumer@@@std@@@std@@@0@0@Z 10069ae0 f i cGluperCenter.obj
 0002:00037b60       ??$_Get_unwrapped@V?$_Vector_iterator@V?$_Vector_val@U?$_Simple_types@UPTR@cMovementBase@Glumer@@@std@@@std@@@std@@$0A@@std@@YA@ABV?$_Vector_iterator@V?$_Vector_val@U?$_Simple_types@UPTR@cMovementBase@Glumer@@@std@@@std@@@0@@Z 10069b60 f i cGluperCenter.obj
 0002:00037bc0       ??$for_each@V?$_Vector_iterator@V?$_Vector_val@U?$_Simple_types@UPTR@cMovementBase@Glumer@@@std@@@std@@@std@@P6AXAAUPTR@cMovementBase@Glumer@@@Z@std@@YAP6AXAAUPTR@cMovementBase@Glumer@@@ZV?$_Vector_iterator@V?$_Vector_val@U?$_Simple_types@UPTR@cMovementBase@Glumer@@@std@@@std@@@0@1P6AX0@Z@Z 10069bc0 f i cGluperCenter.obj
 0002:00037cf0       ?EventPossition@cGluperCenter@Glumer@@UAEXXZ 10069cf0 f   cGluperCenter.obj
 0002:00037df0       ?EventPossition@cObjectMoveableBase@Glumer@@QAEXXZ 10069df0 f i cGluperCenter.obj
 0002:00037e90       ?FireEventPossition@cObjectMoveableBase@Glumer@@SAXAAUPTR@cMovementBase@2@@Z 10069e90 f i cGluperCenter.obj
 0002:00037f00       ?_Unwrapped@?$_Vector_iterator@V?$_Vector_val@U?$_Simple_types@UPTR@cMovementBase@Glumer@@@std@@@std@@@std@@QBEPAUPTR@cMovementBase@Glumer@@XZ 10069f00 f i cGluperCenter.obj
 0002:00037f60       ?_Verify_range@std@@YAXABV?$_Vector_const_iterator@V?$_Vector_val@U?$_Simple_types@UPTR@cMovementBase@Glumer@@@std@@@std@@@1@0@Z 10069f60 f i cGluperCenter.obj
 0002:000380d0       ?end@?$vector@UPTR@cMovementBase@Glumer@@V?$allocator@UPTR@cMovementBase@Glumer@@@std@@@std@@QAE?AV?$_Vector_iterator@V?$_Vector_val@U?$_Simple_types@UPTR@cMovementBase@Glumer@@@std@@@std@@@2@XZ 1006a0d0 f i cGluperCenter.obj
 0002:00038190       ?EventPossition@cGluperOrientation@Glumer@@UAEXXZ 1006a190 f   cGluperOrientation.obj
 0002:00038250       ??$?0$$V@?$_Compressed_pair@V?$allocator@UPTR@cMovementBase@Glumer@@@std@@V?$_Vector_val@U?$_Simple_types@UPTR@cMovementBase@Glumer@@@std@@@2@$00@std@@QAE@U_Zero_then_variadic_args_t@1@@Z 1006a250 f i cObjectMoveableBase.obj
 0002:000382c0       ??0?$_Vector_alloc@U?$_Vec_base_types@UPTR@cMovementBase@Glumer@@V?$allocator@UPTR@cMovementBase@Glumer@@@std@@@std@@@std@@QAE@XZ 1006a2c0 f i cObjectMoveableBase.obj
 0002:00038340       ??0?$_Vector_val@U?$_Simple_types@UPTR@cMovementBase@Glumer@@@std@@@std@@QAE@XZ 1006a340 f i cObjectMoveableBase.obj
 0002:000383d0       ??0?$allocator@UPTR@cMovementBase@Glumer@@@std@@QAE@XZ 1006a3d0 f i cObjectMoveableBase.obj
 0002:00038460       ??0?$vector@UPTR@cMovementBase@Glumer@@V?$allocator@UPTR@cMovementBase@Glumer@@@std@@@std@@QAE@XZ 1006a460 f i cObjectMoveableBase.obj
 0002:00038500       ??0cObjectBase@Glumer@@QAE@XZ 1006a500 f i cObjectMoveableBase.obj
 0002:00038560       ??0cObjectMoveableBase@Glumer@@QAE@PAVcObjectBase@1@@Z 1006a560 f   cObjectMoveableBase.obj
 0002:00038650       ?EventShow@cObjectMoveableBase@Glumer@@UAEXXZ 1006a650 f   cObjectMoveableBase.obj
 0002:00038700       ?_Alloc_proxy@?$_Vector_alloc@U?$_Vec_base_types@UPTR@cMovementBase@Glumer@@V?$allocator@UPTR@cMovementBase@Glumer@@@std@@@std@@@std@@QAEXXZ 1006a700 f i cObjectMoveableBase.obj
 0002:00038830       ?_Reallocate_exactly@?$vector@UPTR@cMovementBase@Glumer@@V?$allocator@UPTR@cMovementBase@Glumer@@@std@@@std@@AAEXI@Z 1006a830 f i cObjectMoveableBase.obj
 0002:00038980       ?reserve@?$vector@UPTR@cMovementBase@Glumer@@V?$allocator@UPTR@cMovementBase@Glumer@@@std@@@std@@QAEXI@Z 1006a980 f i cObjectMoveableBase.obj
 0002:00038a10       ??$?0$$V@?$_Compressed_pair@V?$allocator@U?$_Tree_node@U?$pair@$$CBDI@std@@PAX@std@@@std@@V?$_Tree_val@U?$_Tree_simple_types@U?$pair@$$CBDI@std@@@std@@@2@$00@std@@QAE@U_Zero_then_variadic_args_t@1@@Z 1006aa10 f i cPolyLetter.obj
 0002:00038a80       ??$?0ABU?$less@D@std@@U_Zero_then_variadic_args_t@1@@?$_Compressed_pair@U?$less@D@std@@V?$_Compressed_pair@V?$allocator@U?$_Tree_node@U?$pair@$$CBDI@std@@PAX@std@@@std@@V?$_Tree_val@U?$_Tree_simple_types@U?$pair@$$CBDI@std@@@std@@@2@$00@2@$00@std@@QAE@U_One_then_variadic_args_t@1@ABU?$less@D@1@$$QAU_Zero_then_variadic_args_t@1@@Z 1006aa80 f i cPolyLetter.obj
 0002:00038b10       ??$?0U?$_Tree_node@U?$pair@$$CBDI@std@@PAX@std@@@?$allocator@U_Container_proxy@std@@@std@@QAE@ABV?$allocator@U?$_Tree_node@U?$pair@$$CBDI@std@@PAX@std@@@1@@Z 1006ab10 f i cPolyLetter.obj
 0002:00038ba0       ??$_Freenode0@V?$allocator@U?$_Tree_node@U?$pair@$$CBDI@std@@PAX@std@@@std@@@?$_Tree_node@U?$pair@$$CBDI@std@@PAX@std@@SAXAAV?$allocator@U?$_Tree_node@U?$pair@$$CBDI@std@@PAX@std@@@1@PAU01@@Z 1006aba0 f i cPolyLetter.obj
 0002:00038ce0       ??$addressof@PAU?$_Tree_node@U?$pair@$$CBDI@std@@PAX@std@@@std@@YAPAPAU?$_Tree_node@U?$pair@$$CBDI@std@@PAX@0@AAPAU10@@Z 1006ace0 f i cPolyLetter.obj
 0002:00038d70       ??$addressof@U?$pair@$$CBDI@std@@@std@@YAPAU?$pair@$$CBDI@0@AAU10@@Z 1006ad70 f i cPolyLetter.obj
 0002:00038e00       ??$addressof@V?$_Tree_val@U?$_Tree_simple_types@U?$pair@$$CBDI@std@@@std@@@std@@@std@@YAPAV?$_Tree_val@U?$_Tree_simple_types@U?$pair@$$CBDI@std@@@std@@@0@AAV10@@Z 1006ae00 f i cPolyLetter.obj
 0002:00038e90       ??$construct@PAU?$_Tree_node@U?$pair@$$CBDI@std@@PAX@std@@AAPAU12@@?$_Default_allocator_traits@V?$allocator@U?$_Tree_node@U?$pair@$$CBDI@std@@PAX@std@@@std@@@std@@SAXAAV?$allocator@U?$_Tree_node@U?$pair@$$CBDI@std@@PAX@std@@@1@QAPAU?$_Tree_node@U?$pair@$$CBDI@std@@PAX@1@AAPAU31@@Z 1006ae90 f i cPolyLetter.obj
 0002:00038f10       ??$destroy@PAU?$_Tree_node@U?$pair@$$CBDI@std@@PAX@std@@@?$_Default_allocator_traits@V?$allocator@U?$_Tree_node@U?$pair@$$CBDI@std@@PAX@std@@@std@@@std@@SAXAAV?$allocator@U?$_Tree_node@U?$pair@$$CBDI@std@@PAX@std@@@1@QAPAU?$_Tree_node@U?$pair@$$CBDI@std@@PAX@1@@Z 1006af10 f i cPolyLetter.obj
 0002:00038f60       ??$destroy@U?$pair@$$CBDI@std@@@?$_Default_allocator_traits@V?$allocator@U?$_Tree_node@U?$pair@$$CBDI@std@@PAX@std@@@std@@@std@@SAXAAV?$allocator@U?$_Tree_node@U?$pair@$$CBDI@std@@PAX@std@@@1@QAU?$pair@$$CBDI@1@@Z 1006af60 f i cPolyLetter.obj
 0002:00038fb0       ??$forward@AAPAU?$_Tree_node@U?$pair@$$CBDI@std@@PAX@std@@@std@@YAAAPAU?$_Tree_node@U?$pair@$$CBDI@std@@PAX@0@AAPAU10@@Z 1006afb0 f i cPolyLetter.obj
 0002:00039040       ??$forward@ABU?$less@D@std@@@std@@YAABU?$less@D@0@ABU10@@Z 1006b040 f i cPolyLetter.obj
 0002:000390d0       ??0?$_Tree@V?$_Tmap_traits@DIU?$less@D@std@@V?$allocator@U?$pair@$$CBDI@std@@@2@$0A@@std@@@std@@QAE@ABU?$less@D@1@@Z 1006b0d0 f i cPolyLetter.obj
 0002:00039140       ??0?$_Tree_comp_alloc@V?$_Tmap_traits@DIU?$less@D@std@@V?$allocator@U?$pair@$$CBDI@std@@@2@$0A@@std@@@std@@QAE@ABU?$less@D@1@@Z 1006b140 f i cPolyLetter.obj
 0002:000391d0       ??0?$_Tree_const_iterator@V?$_Tree_val@U?$_Tree_simple_types@U?$pair@$$CBDI@std@@@std@@@std@@@std@@QAE@$$QAV01@@Z 1006b1d0 f i cPolyLetter.obj
 0002:00039230       ??0?$_Tree_const_iterator@V?$_Tree_val@U?$_Tree_simple_types@U?$pair@$$CBDI@std@@@std@@@std@@@std@@QAE@ABV01@@Z 1006b230 f i cPolyLetter.obj
 0002:00039290       ??0?$_Tree_const_iterator@V?$_Tree_val@U?$_Tree_simple_types@U?$pair@$$CBDI@std@@@std@@@std@@@std@@QAE@PAU?$_Tree_node@U?$pair@$$CBDI@std@@PAX@1@PBV?$_Tree_val@U?$_Tree_simple_types@U?$pair@$$CBDI@std@@@std@@@1@@Z 1006b290 f i cPolyLetter.obj
 0002:00039300       ??0?$_Tree_iterator@V?$_Tree_val@U?$_Tree_simple_types@U?$pair@$$CBDI@std@@@std@@@std@@@std@@QAE@PAU?$_Tree_node@U?$pair@$$CBDI@std@@PAX@1@PBV?$_Tree_val@U?$_Tree_simple_types@U?$pair@$$CBDI@std@@@std@@@1@@Z 1006b300 f i cPolyLetter.obj
 0002:00039370       ??0?$_Tree_unchecked_const_iterator@V?$_Tree_val@U?$_Tree_simple_types@U?$pair@$$CBDI@std@@@std@@@std@@U_Iterator_base12@2@@std@@QAE@$$QAV01@@Z 1006b370 f i cPolyLetter.obj
 0002:000393e0       ??0?$_Tree_unchecked_const_iterator@V?$_Tree_val@U?$_Tree_simple_types@U?$pair@$$CBDI@std@@@std@@@std@@U_Iterator_base12@2@@std@@QAE@ABV01@@Z 1006b3e0 f i cPolyLetter.obj
 0002:00039450       ??0?$_Tree_unchecked_const_iterator@V?$_Tree_val@U?$_Tree_simple_types@U?$pair@$$CBDI@std@@@std@@@std@@U_Iterator_base12@2@@std@@QAE@PAU?$_Tree_node@U?$pair@$$CBDI@std@@PAX@1@PBV?$_Tree_val@U?$_Tree_simple_types@U?$pair@$$CBDI@std@@@std@@@1@@Z 1006b450 f i cPolyLetter.obj
 0002:000394d0       ??0?$_Tree_val@U?$_Tree_simple_types@U?$pair@$$CBDI@std@@@std@@@std@@QAE@XZ 1006b4d0 f i cPolyLetter.obj
 0002:00039550       ??0?$allocator@U?$_Tree_node@U?$pair@$$CBDI@std@@PAX@std@@@std@@QAE@XZ 1006b550 f i cPolyLetter.obj
 0002:000395e0       ??0?$map@DIU?$less@D@std@@V?$allocator@U?$pair@$$CBDI@std@@@2@@std@@QAE@XZ 1006b5e0 f i cPolyLetter.obj
 0002:00039650       ??1?$_Tree@V?$_Tmap_traits@DIU?$less@D@std@@V?$allocator@U?$pair@$$CBDI@std@@@2@$0A@@std@@@std@@QAE@XZ 1006b650 f i cPolyLetter.obj
 0002:000396f0       ??1?$_Tree_comp_alloc@V?$_Tmap_traits@DIU?$less@D@std@@V?$allocator@U?$pair@$$CBDI@std@@@2@$0A@@std@@@std@@QAE@XZ 1006b6f0 f i cPolyLetter.obj
 0002:000397a0       ??1?$_Tree_const_iterator@V?$_Tree_val@U?$_Tree_simple_types@U?$pair@$$CBDI@std@@@std@@@std@@@std@@QAE@XZ 1006b7a0 f i cPolyLetter.obj
 0002:000397f0       ??1?$_Tree_iterator@V?$_Tree_val@U?$_Tree_simple_types@U?$pair@$$CBDI@std@@@std@@@std@@@std@@QAE@XZ 1006b7f0 f i cPolyLetter.obj
 0002:00039840       ??1?$_Tree_unchecked_const_iterator@V?$_Tree_val@U?$_Tree_simple_types@U?$pair@$$CBDI@std@@@std@@@std@@U_Iterator_base12@2@@std@@QAE@XZ 1006b840 f i cPolyLetter.obj
 0002:00039890       ??1?$map@DIU?$less@D@std@@V?$allocator@U?$pair@$$CBDI@std@@@2@@std@@QAE@XZ 1006b890 f i cPolyLetter.obj
 0002:000398e0       ??8?$_Tree_const_iterator@V?$_Tree_val@U?$_Tree_simple_types@U?$pair@$$CBDI@std@@@std@@@std@@@std@@QBE_NABV01@@Z 1006b8e0 f i cPolyLetter.obj
 0002:00039a00       ??9?$_Tree_const_iterator@V?$_Tree_val@U?$_Tree_simple_types@U?$pair@$$CBDI@std@@@std@@@std@@@std@@QBE_NABV01@@Z 1006ba00 f i cPolyLetter.obj
 0002:00039a90       ??E?$_Tree_const_iterator@V?$_Tree_val@U?$_Tree_simple_types@U?$pair@$$CBDI@std@@@std@@@std@@@std@@QAE?AV01@H@Z 1006ba90 f i cPolyLetter.obj
 0002:00039bc0       ??E?$_Tree_const_iterator@V?$_Tree_val@U?$_Tree_simple_types@U?$pair@$$CBDI@std@@@std@@@std@@@std@@QAEAAV01@XZ 1006bbc0 f i cPolyLetter.obj
 0002:00039d40       ??E?$_Tree_unchecked_const_iterator@V?$_Tree_val@U?$_Tree_simple_types@U?$pair@$$CBDI@std@@@std@@@std@@U_Iterator_base12@2@@std@@QAEAAV01@XZ 1006bd40 f i cPolyLetter.obj
 0002:00039e20       ?DrawLetterInternal@cPolyLetter@Glumer@@CAXPBV12@AADPAPBM22@Z 1006be20 f   cPolyLetter.obj
 0002:00039f10       ?LoadStrokes@cPolyLetter@Glumer@@CAXAADAAH11PAPBM22@Z 1006bf10 f   cPolyLetter.obj
 0002:0003aba0       ?_Alloc_proxy@?$_Tree_comp_alloc@V?$_Tmap_traits@DIU?$less@D@std@@V?$allocator@U?$pair@$$CBDI@std@@@2@$0A@@std@@@std@@QAEXXZ 1006cba0 f i cPolyLetter.obj
 0002:0003acd0       ?_Buyheadnode@?$_Tree_comp_alloc@V?$_Tmap_traits@DIU?$less@D@std@@V?$allocator@U?$pair@$$CBDI@std@@@2@$0A@@std@@@std@@QAEPAU?$_Tree_node@U?$pair@$$CBDI@std@@PAX@2@XZ 1006ccd0 f i cPolyLetter.obj
 0002:0003ae80       ?_Construct@?$_Tree_comp_alloc@V?$_Tmap_traits@DIU?$less@D@std@@V?$allocator@U?$pair@$$CBDI@std@@@2@$0A@@std@@@std@@QAEXXZ 1006ce80 f i cPolyLetter.obj
 0002:0003af80       ?_Erase@?$_Tree@V?$_Tmap_traits@DIU?$less@D@std@@V?$allocator@U?$pair@$$CBDI@std@@@2@$0A@@std@@@std@@IAEXPAU?$_Tree_node@U?$pair@$$CBDI@std@@PAX@2@@Z 1006cf80 f i cPolyLetter.obj
 0002:0003b060       ?_Extract@?$_Tree_val@U?$_Tree_simple_types@U?$pair@$$CBDI@std@@@std@@@std@@QAEPAU?$_Tree_node@U?$pair@$$CBDI@std@@PAX@2@V?$_Tree_const_iterator@V?$_Tree_val@U?$_Tree_simple_types@U?$pair@$$CBDI@std@@@std@@@std@@@2@@Z 1006d060 f i cPolyLetter.obj
 0002:0003b700       ?_Free_proxy@?$_Tree_comp_alloc@V?$_Tmap_traits@DIU?$less@D@std@@V?$allocator@U?$pair@$$CBDI@std@@@2@$0A@@std@@@std@@QAEXXZ 1006d700 f i cPolyLetter.obj
 0002:0003b800       ?_Freeheadnode@?$_Tree_comp_alloc@V?$_Tmap_traits@DIU?$less@D@std@@V?$allocator@U?$pair@$$CBDI@std@@@2@$0A@@std@@@std@@QAEXPAU?$_Tree_node@U?$pair@$$CBDI@std@@PAX@2@@Z 1006d800 f i cPolyLetter.obj
 0002:0003b870       ?_Get_data@?$_Tree_comp_alloc@V?$_Tmap_traits@DIU?$less@D@std@@V?$allocator@U?$pair@$$CBDI@std@@@2@$0A@@std@@@std@@QAEAAV?$_Tree_val@U?$_Tree_simple_types@U?$pair@$$CBDI@std@@@std@@@2@XZ 1006d870 f i cPolyLetter.obj
 0002:0003b910       ?_Get_data@?$_Tree_comp_alloc@V?$_Tmap_traits@DIU?$less@D@std@@V?$allocator@U?$pair@$$CBDI@std@@@2@$0A@@std@@@std@@QBEABV?$_Tree_val@U?$_Tree_simple_types@U?$pair@$$CBDI@std@@@std@@@2@XZ 1006d910 f i cPolyLetter.obj
 0002:0003b9b0       ?_Get_first@?$_Compressed_pair@V?$allocator@U?$_Tree_node@U?$pair@$$CBDI@std@@PAX@std@@@std@@V?$_Tree_val@U?$_Tree_simple_types@U?$pair@$$CBDI@std@@@std@@@2@$00@std@@QAEAAV?$allocator@U?$_Tree_node@U?$pair@$$CBDI@std@@PAX@std@@@2@XZ 1006d9b0 f i cPolyLetter.obj
 0002:0003ba40       ?_Get_second@?$_Compressed_pair@U?$less@D@std@@V?$_Compressed_pair@V?$allocator@U?$_Tree_node@U?$pair@$$CBDI@std@@PAX@std@@@std@@V?$_Tree_val@U?$_Tree_simple_types@U?$pair@$$CBDI@std@@@std@@@2@$00@2@$00@std@@QAEAAV?$_Compressed_pair@V?$allocator@U?$_Tree_node@U?$pair@$$CBDI@std@@PAX@std@@@std@@V?$_Tree_val@U?$_Tree_simple_types@U?$pair@$$CBDI@std@@@std@@@2@$00@2@XZ 1006da40 f i cPolyLetter.obj
 0002:0003bad0       ?_Get_second@?$_Compressed_pair@U?$less@D@std@@V?$_Compressed_pair@V?$allocator@U?$_Tree_node@U?$pair@$$CBDI@std@@PAX@std@@@std@@V?$_Tree_val@U?$_Tree_simple_types@U?$pair@$$CBDI@std@@@std@@@2@$00@2@$00@std@@QBEABV?$_Compressed_pair@V?$allocator@U?$_Tree_node@U?$pair@$$CBDI@std@@PAX@std@@@std@@V?$_Tree_val@U?$_Tree_simple_types@U?$pair@$$CBDI@std@@@std@@@2@$00@2@XZ 1006dad0 f i cPolyLetter.obj
 0002:0003bb60       ?_Get_second@?$_Compressed_pair@V?$allocator@U?$_Tree_node@U?$pair@$$CBDI@std@@PAX@std@@@std@@V?$_Tree_val@U?$_Tree_simple_types@U?$pair@$$CBDI@std@@@std@@@2@$00@std@@QAEAAV?$_Tree_val@U?$_Tree_simple_types@U?$pair@$$CBDI@std@@@std@@@2@XZ 1006db60 f i cPolyLetter.obj
 0002:0003bbf0       ?_Get_second@?$_Compressed_pair@V?$allocator@U?$_Tree_node@U?$pair@$$CBDI@std@@PAX@std@@@std@@V?$_Tree_val@U?$_Tree_simple_types@U?$pair@$$CBDI@std@@@std@@@2@$00@std@@QBEABV?$_Tree_val@U?$_Tree_simple_types@U?$pair@$$CBDI@std@@@std@@@2@XZ 1006dbf0 f i cPolyLetter.obj
 0002:0003bc80       ?_Getal@?$_Tree_comp_alloc@V?$_Tmap_traits@DIU?$less@D@std@@V?$allocator@U?$pair@$$CBDI@std@@@2@$0A@@std@@@std@@QAEAAV?$allocator@U?$_Tree_node@U?$pair@$$CBDI@std@@PAX@std@@@2@XZ 1006dc80 f i cPolyLetter.obj
 0002:0003bd20       ?_Getpfirst@?$_Tree_comp_alloc@V?$_Tmap_traits@DIU?$less@D@std@@V?$allocator@U?$pair@$$CBDI@std@@@2@$0A@@std@@@std@@QBEPAPAU_Iterator_base12@2@XZ 1006dd20 f i cPolyLetter.obj
 0002:0003bd90       ?_Lmost@?$_Tree_val@U?$_Tree_simple_types@U?$pair@$$CBDI@std@@@std@@@std@@QBEAAPAU?$_Tree_node@U?$pair@$$CBDI@std@@PAX@2@XZ 1006dd90 f i cPolyLetter.obj
 0002:0003bdf0       ?_Lrotate@?$_Tree_val@U?$_Tree_simple_types@U?$pair@$$CBDI@std@@@std@@@std@@QAEXPAU?$_Tree_node@U?$pair@$$CBDI@std@@PAX@2@@Z 1006ddf0 f i cPolyLetter.obj
 0002:0003bf00       ?_Max@?$_Tree_val@U?$_Tree_simple_types@U?$pair@$$CBDI@std@@@std@@@std@@SAPAU?$_Tree_node@U?$pair@$$CBDI@std@@PAX@2@PAU32@@Z 1006df00 f i cPolyLetter.obj
 0002:0003bf70       ?_Min@?$_Tree_val@U?$_Tree_simple_types@U?$pair@$$CBDI@std@@@std@@@std@@SAPAU?$_Tree_node@U?$pair@$$CBDI@std@@PAX@2@PAU32@@Z 1006df70 f i cPolyLetter.obj
 0002:0003bfe0       ?_Myproxy@?$_Tree_comp_alloc@V?$_Tmap_traits@DIU?$less@D@std@@V?$allocator@U?$pair@$$CBDI@std@@@2@$0A@@std@@@std@@QAEAAPAU_Container_proxy@2@XZ 1006dfe0 f i cPolyLetter.obj
 0002:0003c070       ?_Orphan_all@?$_Tree_comp_alloc@V?$_Tmap_traits@DIU?$less@D@std@@V?$allocator@U?$pair@$$CBDI@std@@@2@$0A@@std@@@std@@QAEXXZ 1006e070 f i cPolyLetter.obj
 0002:0003c0e0       ?_Orphan_ptr@?$_Tree@V?$_Tmap_traits@DIU?$less@D@std@@V?$allocator@U?$pair@$$CBDI@std@@@2@$0A@@std@@@std@@IAEXPAU?$_Tree_node@U?$pair@$$CBDI@std@@PAX@2@@Z 1006e0e0 f i cPolyLetter.obj
 0002:0003c270       ?_Rmost@?$_Tree_val@U?$_Tree_simple_types@U?$pair@$$CBDI@std@@@std@@@std@@QBEAAPAU?$_Tree_node@U?$pair@$$CBDI@std@@PAX@2@XZ 1006e270 f i cPolyLetter.obj
 0002:0003c2d0       ?_Root@?$_Tree_val@U?$_Tree_simple_types@U?$pair@$$CBDI@std@@@std@@@std@@QBEAAPAU?$_Tree_node@U?$pair@$$CBDI@std@@PAX@2@XZ 1006e2d0 f i cPolyLetter.obj
 0002:0003c330       ?_Rrotate@?$_Tree_val@U?$_Tree_simple_types@U?$pair@$$CBDI@std@@@std@@@std@@QAEXPAU?$_Tree_node@U?$pair@$$CBDI@std@@PAX@2@@Z 1006e330 f i cPolyLetter.obj
 0002:0003c440       ?_Tidy@?$_Tree@V?$_Tmap_traits@DIU?$less@D@std@@V?$allocator@U?$pair@$$CBDI@std@@@2@$0A@@std@@@std@@IAEXXZ 1006e440 f i cPolyLetter.obj
 0002:0003c5c0       ?allocate@?$allocator@U?$_Tree_node@U?$pair@$$CBDI@std@@PAX@std@@@std@@QAEPAU?$_Tree_node@U?$pair@$$CBDI@std@@PAX@2@I@Z 1006e5c0 f i cPolyLetter.obj
 0002:0003c630       ?begin@?$_Tree@V?$_Tmap_traits@DIU?$less@D@std@@V?$allocator@U?$pair@$$CBDI@std@@@2@$0A@@std@@@std@@QAE?AV?$_Tree_iterator@V?$_Tree_val@U?$_Tree_simple_types@U?$pair@$$CBDI@std@@@std@@@std@@@2@XZ 1006e630 f i cPolyLetter.obj
 0002:0003c700       ?clear@?$_Tree@V?$_Tmap_traits@DIU?$less@D@std@@V?$allocator@U?$pair@$$CBDI@std@@@2@$0A@@std@@@std@@QAEXXZ 1006e700 f i cPolyLetter.obj
 0002:0003c800       ?deallocate@?$_Default_allocator_traits@V?$allocator@U?$_Tree_node@U?$pair@$$CBDI@std@@PAX@std@@@std@@@std@@SAXAAV?$allocator@U?$_Tree_node@U?$pair@$$CBDI@std@@PAX@std@@@2@QAU?$_Tree_node@U?$pair@$$CBDI@std@@PAX@2@I@Z 1006e800 f i cPolyLetter.obj
 0002:0003c860       ?deallocate@?$allocator@U?$_Tree_node@U?$pair@$$CBDI@std@@PAX@std@@@std@@QAEXQAU?$_Tree_node@U?$pair@$$CBDI@std@@PAX@2@I@Z 1006e860 f i cPolyLetter.obj
 0002:0003c8d0       ?end@?$_Tree@V?$_Tmap_traits@DIU?$less@D@std@@V?$allocator@U?$pair@$$CBDI@std@@@2@$0A@@std@@@std@@QAE?AV?$_Tree_iterator@V?$_Tree_val@U?$_Tree_simple_types@U?$pair@$$CBDI@std@@@std@@@std@@@2@XZ 1006e8d0 f i cPolyLetter.obj
 0002:0003c990       ?erase@?$_Tree@V?$_Tmap_traits@DIU?$less@D@std@@V?$allocator@U?$pair@$$CBDI@std@@@2@$0A@@std@@@std@@QAE?AV?$_Tree_iterator@V?$_Tree_val@U?$_Tree_simple_types@U?$pair@$$CBDI@std@@@std@@@std@@@2@V?$_Tree_const_iterator@V?$_Tree_val@U?$_Tree_simple_types@U?$pair@$$CBDI@std@@@std@@@std@@@2@0@Z 1006e990 f i cPolyLetter.obj
 0002:0003ccc0       ?erase@?$_Tree@V?$_Tmap_traits@DIU?$less@D@std@@V?$allocator@U?$pair@$$CBDI@std@@@2@$0A@@std@@@std@@QAE?AV?$_Tree_iterator@V?$_Tree_val@U?$_Tree_simple_types@U?$pair@$$CBDI@std@@@std@@@std@@@2@V?$_Tree_const_iterator@V?$_Tree_val@U?$_Tree_simple_types@U?$pair@$$CBDI@std@@@std@@@std@@@2@@Z 1006ecc0 f i cPolyLetter.obj
 0002:0003cf60       ??$?0$$V@?$_Compressed_pair@V?$allocator@V?$basic_string@DU?$char_traits@D@std@@V?$allocator@D@2@@std@@@std@@V?$_Vector_val@U?$_Simple_types@V?$basic_string@DU?$char_traits@D@std@@V?$allocator@D@2@@std@@@std@@@2@$00@std@@QAE@U_Zero_then_variadic_args_t@1@@Z 1006ef60 f i cGlumShape_Console.obj
 0002:0003cfd0       ??$?0AAV?$_Tree_iterator@V?$_Tree_val@U?$_Tree_simple_types@U?$pair@$$CBDI@std@@@std@@@std@@@std@@_N$0A@@?$pair@V?$_Tree_iterator@V?$_Tree_val@U?$_Tree_simple_types@U?$pair@$$CBDI@std@@@std@@@std@@@std@@_N@std@@QAE@AAV?$_Tree_iterator@V?$_Tree_val@U?$_Tree_simple_types@U?$pair@$$CBDI@std@@@std@@@std@@@1@$$QA_N@Z 1006efd0 f i cGlumShape_Console.obj
 0002:0003d090       ??$?0ABD$$Z$$V@?$pair@$$CBDI@std@@QAE@Upiecewise_construct_t@1@V?$tuple@ABD@1@V?$tuple@$$V@1@@Z 1006f090 f i cGlumShape_Console.obj
 0002:0003d110       ??$?0ABD$0A@@?$tuple@ABD@std@@QAE@ABD@Z 1006f110 f i cGlumShape_Console.obj
 0002:0003d1c0       ??$?0ABD@?$_Tuple_val@ABD@std@@QAE@ABD@Z 1006f1c0 f i cGlumShape_Console.obj
 0002:0003d230       ??$?0D@?$allocator@U_Container_proxy@std@@@std@@QAE@ABV?$allocator@D@1@@Z 1006f230 f i cGlumShape_Console.obj
 0002:0003d2c0       ??$?0U?$integral_constant@_N$00@std@@@_Unused_parameter@std@@QAE@$$QAU?$integral_constant@_N$00@1@@Z 1006f2c0 f i cGlumShape_Console.obj
 0002:0003d350       ??$?0U_Exact_args_t@std@@ABD$$V$0A@@?$tuple@ABD@std@@QAE@U_Exact_args_t@1@ABD@Z 1006f350 f i cGlumShape_Console.obj
 0002:0003d3e0       ??$?0V?$_Tree_iterator@V?$_Tree_val@U?$_Tree_simple_types@U?$pair@$$CBDI@std@@@std@@@std@@@std@@_N$0A@@?$pair@V?$_Tree_iterator@V?$_Tree_val@U?$_Tree_simple_types@U?$pair@$$CBDI@std@@@std@@@std@@@std@@_N@std@@QAE@$$QAV?$_Tree_iterator@V?$_Tree_val@U?$_Tree_simple_types@U?$pair@$$CBDI@std@@@std@@@std@@@1@$$QA_N@Z 1006f3e0 f i cGlumShape_Console.obj
 0002:0003d4a0       ??$?0V?$allocator@D@std@@$$V@?$_Compressed_pair@V?$allocator@D@std@@V?$_String_val@U?$_Simple_types@D@std@@@2@$00@std@@QAE@U_One_then_variadic_args_t@1@$$QAV?$allocator@D@1@@Z 1006f4a0 f i cGlumShape_Console.obj
 0002:0003d510       ??$?0V?$allocator@D@std@@X@?$_String_alloc@U?$_String_base_types@DV?$allocator@D@std@@@std@@@std@@QAE@$$QAV?$allocator@D@1@@Z 1006f510 f i cGlumShape_Console.obj
 0002:0003d5e0       ??$?0V?$basic_string@DU?$char_traits@D@std@@V?$allocator@D@2@@std@@@?$allocator@U_Container_proxy@std@@@std@@QAE@ABV?$allocator@V?$basic_string@DU?$char_traits@D@std@@V?$allocator@D@2@@std@@@1@@Z 1006f5e0 f i cGlumShape_Console.obj
 0002:0003d670       ??$?0V?$tuple@ABD@std@@V?$tuple@$$V@1@$0A@$$Z$S@?$pair@$$CBDI@std@@QAE@AAV?$tuple@ABD@1@AAV?$tuple@$$V@1@U?$integer_sequence@I$0A@@1@U?$integer_sequence@I$S@1@@Z 1006f670 f i cGlumShape_Console.obj
 0002:0003d700       ??$_Adl_verify_range1@V?$_String_iterator@V?$_String_val@U?$_Simple_types@D@std@@@std@@@std@@V12@@std@@YAXABV?$_String_iterator@V?$_String_val@U?$_Simple_types@D@std@@@std@@@0@0U?$integral_constant@_N$00@0@@Z 1006f700 f i cGlumShape_Console.obj
 0002:0003d760       ??$_Adl_verify_range1@V?$_Vector_iterator@V?$_Vector_val@U?$_Simple_types@V?$basic_string@DU?$char_traits@D@std@@V?$allocator@D@2@@std@@@std@@@std@@@std@@V12@@std@@YAXABV?$_Vector_iterator@V?$_Vector_val@U?$_Simple_types@V?$basic_string@DU?$char_traits@D@std@@V?$allocator@D@2@@std@@@std@@@std@@@0@0U?$integral_constant@_N$00@0@@Z 1006f760 f i cGlumShape_Console.obj
 0002:0003d7c0       ??$_Adl_verify_range@V?$_String_iterator@V?$_String_val@U?$_Simple_types@D@std@@@std@@@std@@V12@@std@@YAXABV?$_String_iterator@V?$_String_val@U?$_Simple_types@D@std@@@std@@@0@0@Z 1006f7c0 f i cGlumShape_Console.obj
 0002:0003d840       ??$_Adl_verify_range@V?$_Vector_iterator@V?$_Vector_val@U?$_Simple_types@V?$basic_string@DU?$char_traits@D@std@@V?$allocator@D@2@@std@@@std@@@std@@@std@@V12@@std@@YAXABV?$_Vector_iterator@V?$_Vector_val@U?$_Simple_types@V?$basic_string@DU?$char_traits@D@std@@V?$allocator@D@2@@std@@@std@@@std@@@0@0@Z 1006f840 f i cGlumShape_Console.obj
 0002:0003d8c0       ??$_Advance1@PAV?$basic_string@DU?$char_traits@D@std@@V?$allocator@D@2@@std@@H@std@@YAXAAPAV?$basic_string@DU?$char_traits@D@std@@V?$allocator@D@2@@0@HUrandom_access_iterator_tag@0@@Z 1006f8c0 f i cGlumShape_Console.obj
 0002:0003d920       ??$_Assign_range@PAV?$basic_string@DU?$char_traits@D@std@@V?$allocator@D@2@@std@@@?$vector@V?$basic_string@DU?$char_traits@D@std@@V?$allocator@D@2@@std@@V?$allocator@V?$basic_string@DU?$char_traits@D@std@@V?$allocator@D@2@@std@@@2@@std@@AAEXPAV?$basic_string@DU?$char_traits@D@std@@V?$allocator@D@2@@1@0Uforward_iterator_tag@1@@Z 1006f920 f i cGlumShape_Console.obj
 0002:0003db70       ??$_Buy_if_not_node@AAU?$pair@$$CBDI@std@@@?$_Tree@V?$_Tmap_traits@DIU?$less@D@std@@V?$allocator@U?$pair@$$CBDI@std@@@2@$0A@@std@@@std@@IAEPAU?$_Tree_node@U?$pair@$$CBDI@std@@PAX@1@PAU21@AAU?$pair@$$CBDI@1@@Z 1006fb70 f i cGlumShape_Console.obj
 0002:0003dbd0       ??$_Buynode@ABUpiecewise_construct_t@std@@V?$tuple@ABD@2@V?$tuple@$$V@2@@?$_Tree_comp_alloc@V?$_Tmap_traits@DIU?$less@D@std@@V?$allocator@U?$pair@$$CBDI@std@@@2@$0A@@std@@@std@@QAEPAU?$_Tree_node@U?$pair@$$CBDI@std@@PAX@1@ABUpiecewise_construct_t@1@$$QAV?$tuple@ABD@1@$$QAV?$tuple@$$V@1@@Z 1006fbd0 f i cGlumShape_Console.obj
 0002:0003dd20       ??$_Const_cast@$$CBD@std@@YA@PBD@Z 1006fd20 f i cGlumShape_Console.obj
 0002:0003dd70       ??$_Convert_size@I@std@@YAII@Z 1006fd70 f i cGlumShape_Console.obj
 0002:0003ddc0       ??$_Copy_unchecked1@PAV?$basic_string@DU?$char_traits@D@std@@V?$allocator@D@2@@std@@PAV12@@std@@YAPAV?$basic_string@DU?$char_traits@D@std@@V?$allocator@D@2@@0@PAV10@00U_General_ptr_iterator_tag@0@@Z 1006fdc0 f i cGlumShape_Console.obj
 0002:0003de50       ??$_Copy_unchecked@PAV?$basic_string@DU?$char_traits@D@std@@V?$allocator@D@2@@std@@PAV12@@std@@YAPAV?$basic_string@DU?$char_traits@D@std@@V?$allocator@D@2@@0@PAV10@00@Z 1006fe50 f i cGlumShape_Console.obj
 0002:0003dee0       ??$_Debug_lt_pred@AAU?$less@D@std@@ABDABD@std@@YA_NAAU?$less@D@0@ABD1@Z 1006fee0 f i cGlumShape_Console.obj
 0002:0003dff0       ??$_Debug_lt_pred@ABU?$less@D@std@@ABDABD@std@@YA_NABU?$less@D@0@ABD1@Z 1006fff0 f i cGlumShape_Console.obj
 0002:0003e100       ??$_Destroy_range1@V?$allocator@V?$basic_string@DU?$char_traits@D@std@@V?$allocator@D@2@@std@@@std@@@std@@YAXPAV?$basic_string@DU?$char_traits@D@std@@V?$allocator@D@2@@0@0AAV?$allocator@V?$basic_string@DU?$char_traits@D@std@@V?$allocator@D@2@@std@@@0@U?$integral_constant@_N$0A@@0@@Z 10070100 f i cGlumShape_Console.obj
 0002:0003e190       ??$_Destroy_range@V?$allocator@V?$basic_string@DU?$char_traits@D@std@@V?$allocator@D@2@@std@@@std@@@std@@YAXPAV?$basic_string@DU?$char_traits@D@std@@V?$allocator@D@2@@0@0AAV?$allocator@V?$basic_string@DU?$char_traits@D@std@@V?$allocator@D@2@@std@@@0@@Z 10070190 f i cGlumShape_Console.obj
 0002:0003e210       ??$_Distance1@PAV?$basic_string@DU?$char_traits@D@std@@V?$allocator@D@2@@std@@@std@@YAHPAV?$basic_string@DU?$char_traits@D@std@@V?$allocator@D@2@@0@0Urandom_access_iterator_tag@0@@Z 10070210 f i cGlumShape_Console.obj
 0002:0003e270       ??$_Emplace_back@AAV?$basic_string@DU?$char_traits@D@std@@V?$allocator@D@2@@std@@@?$_Uninitialized_backout_al@PAV?$basic_string@DU?$char_traits@D@std@@V?$allocator@D@2@@std@@V?$allocator@V?$basic_string@DU?$char_traits@D@std@@V?$allocator@D@2@@std@@@2@@std@@QAEXAAV?$basic_string@DU?$char_traits@D@std@@V?$allocator@D@2@@1@@Z 10070270 f i cGlumShape_Console.obj
 0002:0003e310       ??$_Emplace_back@V?$basic_string@DU?$char_traits@D@std@@V?$allocator@D@2@@std@@@?$_Uninitialized_backout_al@PAV?$basic_string@DU?$char_traits@D@std@@V?$allocator@D@2@@std@@V?$allocator@V?$basic_string@DU?$char_traits@D@std@@V?$allocator@D@2@@std@@@2@@std@@QAEX$$QAV?$basic_string@DU?$char_traits@D@std@@V?$allocator@D@2@@1@@Z 10070310 f i cGlumShape_Console.obj
 0002:0003e3b0       ??$_Get_size_of_n@$00@std@@YAII@Z 100703b0 f i cGlumShape_Console.obj
 0002:0003e400       ??$_Get_size_of_n@$0BM@@std@@YAII@Z 10070400 f i cGlumShape_Console.obj
 0002:0003e480       ??$_Get_unwrapped@V?$_String_iterator@V?$_String_val@U?$_Simple_types@D@std@@@std@@@std@@$0A@@std@@YA@ABV?$_String_iterator@V?$_String_val@U?$_Simple_types@D@std@@@std@@@0@@Z 10070480 f i cGlumShape_Console.obj
 0002:0003e4e0       ??$_Get_unwrapped@V?$_Vector_iterator@V?$_Vector_val@U?$_Simple_types@V?$basic_string@DU?$char_traits@D@std@@V?$allocator@D@2@@std@@@std@@@std@@@std@@$0A@@std@@YA@ABV?$_Vector_iterator@V?$_Vector_val@U?$_Simple_types@V?$basic_string@DU?$char_traits@D@std@@V?$allocator@D@2@@std@@@std@@@std@@@0@@Z 100704e0 f i cGlumShape_Console.obj
 0002:0003e540       ??$_Get_unwrapped@V?$basic_string@DU?$char_traits@D@std@@V?$allocator@D@2@@std@@@std@@YAPAV?$basic_string@DU?$char_traits@D@std@@V?$allocator@D@2@@0@QAV10@@Z 10070540 f i cGlumShape_Console.obj
 0002:0003e590       ??$_Get_unwrapped_n@V?$basic_string@DU?$char_traits@D@std@@V?$allocator@D@2@@std@@H$0A@@std@@YAPAV?$basic_string@DU?$char_traits@D@std@@V?$allocator@D@2@@0@QAV10@H@Z 10070590 f i cGlumShape_Console.obj
 0002:0003e5e0       ??$_Idl_distance1@PAV?$basic_string@DU?$char_traits@D@std@@V?$allocator@D@2@@std@@PAV12@@std@@YAHABQAV?$basic_string@DU?$char_traits@D@std@@V?$allocator@D@2@@0@0Urandom_access_iterator_tag@0@@Z 100705e0 f i cGlumShape_Console.obj
 0002:0003e650       ??$_Idl_distance@PAV?$basic_string@DU?$char_traits@D@std@@V?$allocator@D@2@@std@@PAV12@@std@@YA@ABQAV?$basic_string@DU?$char_traits@D@std@@V?$allocator@D@2@@0@0@Z 10070650 f i cGlumShape_Console.obj
 0002:0003e6c0       ??$_Insert_at@AAU?$pair@$$CBDI@std@@PAU?$_Tree_node@U?$pair@$$CBDI@std@@PAX@2@@?$_Tree@V?$_Tmap_traits@DIU?$less@D@std@@V?$allocator@U?$pair@$$CBDI@std@@@2@$0A@@std@@@std@@IAE?AV?$_Tree_iterator@V?$_Tree_val@U?$_Tree_simple_types@U?$pair@$$CBDI@std@@@std@@@std@@@1@_NPAU?$_Tree_node@U?$pair@$$CBDI@std@@PAX@1@AAU?$pair@$$CBDI@1@1@Z 100706c0 f i cGlumShape_Console.obj
 0002:0003ea50       ??$_Insert_hint@AAU?$pair@$$CBDI@std@@PAU?$_Tree_node@U?$pair@$$CBDI@std@@PAX@2@@?$_Tree@V?$_Tmap_traits@DIU?$less@D@std@@V?$allocator@U?$pair@$$CBDI@std@@@2@$0A@@std@@@std@@IAE?AV?$_Tree_iterator@V?$_Tree_val@U?$_Tree_simple_types@U?$pair@$$CBDI@std@@@std@@@std@@@1@V?$_Tree_const_iterator@V?$_Tree_val@U?$_Tree_simple_types@U?$pair@$$CBDI@std@@@std@@@std@@@1@AAU?$pair@$$CBDI@1@PAU?$_Tree_node@U?$pair@$$CBDI@std@@PAX@1@@Z 10070a50 f i cGlumShape_Console.obj
 0002:0003fc60       ??$_Insert_nohint@AAU?$pair@$$CBDI@std@@PAU?$_Tree_node@U?$pair@$$CBDI@std@@PAX@2@@?$_Tree@V?$_Tmap_traits@DIU?$less@D@std@@V?$allocator@U?$pair@$$CBDI@std@@@2@$0A@@std@@@std@@IAE?AU?$pair@V?$_Tree_iterator@V?$_Tree_val@U?$_Tree_simple_types@U?$pair@$$CBDI@std@@@std@@@std@@@std@@_N@1@_NAAU?$pair@$$CBDI@1@PAU?$_Tree_node@U?$pair@$$CBDI@std@@PAX@1@@Z 10071c60 f i cGlumShape_Console.obj
 0002:00040250       ??$_Kfn@$$CBDI@?$_Tmap_traits@DIU?$less@D@std@@V?$allocator@U?$pair@$$CBDI@std@@@2@$0A@@std@@SAABDABU?$pair@$$CBDI@1@@Z 10072250 f i cGlumShape_Console.obj
 0002:000402a0       ??$_Lbound@D@?$_Tree@V?$_Tmap_traits@DIU?$less@D@std@@V?$allocator@U?$pair@$$CBDI@std@@@2@$0A@@std@@@std@@IBEPAU?$_Tree_node@U?$pair@$$CBDI@std@@PAX@1@ABD@Z 100722a0 f i cGlumShape_Console.obj
 0002:00040370       ??$_Max_value@I@std@@YAABIABI0@Z 10072370 f i cGlumShape_Console.obj
 0002:00040430       ??$_Pocca@V?$allocator@D@std@@@std@@YAXAAV?$allocator@D@0@ABV10@@Z 10072430 f i cGlumShape_Console.obj
 0002:00040500       ??$_Pocca@V?$allocator@D@std@@@std@@YAXAAV?$allocator@D@0@ABV10@U?$integral_constant@_N$0A@@0@@Z 10072500 f i cGlumShape_Console.obj
 0002:00040580       ??$_Ptr_copy_cat@V?$basic_string@DU?$char_traits@D@std@@V?$allocator@D@2@@std@@V12@@std@@YA?AU_General_ptr_iterator_tag@0@ABQAV?$basic_string@DU?$char_traits@D@std@@V?$allocator@D@2@@0@0@Z 10072580 f i cGlumShape_Console.obj
 0002:000405e0       ??$_Ptr_move_cat@V?$basic_string@DU?$char_traits@D@std@@V?$allocator@D@2@@std@@V12@@std@@YA?AU_General_ptr_iterator_tag@0@ABQAV?$basic_string@DU?$char_traits@D@std@@V?$allocator@D@2@@0@0@Z 100725e0 f i cGlumShape_Console.obj
 0002:000407e0       ??$_Refancy@PAD$0A@@std@@YAPADPAD@Z 100727e0 f i cGlumShape_Console.obj
 0002:00040830       ??$_Seek_wrapped@V?$basic_string@DU?$char_traits@D@std@@V?$allocator@D@2@@std@@@std@@YAXAAPAV?$basic_string@DU?$char_traits@D@std@@V?$allocator@D@2@@0@QAV10@@Z 10072830 f i cGlumShape_Console.obj
 0002:00040890       ??$_Try_emplace@ABD$$V@?$map@DIU?$less@D@std@@V?$allocator@U?$pair@$$CBDI@std@@@2@@std@@QAE?AU?$pair@V?$_Tree_iterator@V?$_Tree_val@U?$_Tree_simple_types@U?$pair@$$CBDI@std@@@std@@@std@@@std@@_N@1@ABD@Z 10072890 f i cGlumShape_Console.obj
 0002:00040bc0       ??$_Ucopy@PAV?$basic_string@DU?$char_traits@D@std@@V?$allocator@D@2@@std@@@?$vector@V?$basic_string@DU?$char_traits@D@std@@V?$allocator@D@2@@std@@V?$allocator@V?$basic_string@DU?$char_traits@D@std@@V?$allocator@D@2@@std@@@2@@std@@AAEPAV?$basic_string@DU?$char_traits@D@std@@V?$allocator@D@2@@1@PAV21@00@Z 10072bc0 f i cGlumShape_Console.obj
 0002:00040c40       ??$_Unfancy@D@std@@YAPADPAD@Z 10072c40 f i cGlumShape_Console.obj
 0002:00040c90       ??$_Unfancy@V?$basic_string@DU?$char_traits@D@std@@V?$allocator@D@2@@std@@@std@@YAPAV?$basic_string@DU?$char_traits@D@std@@V?$allocator@D@2@@0@PAV10@@Z 10072c90 f i cGlumShape_Console.obj
 0002:00040ce0       ??$_Uninitialized_copy@PAV?$basic_string@DU?$char_traits@D@std@@V?$allocator@D@2@@std@@PAV12@V?$allocator@V?$basic_string@DU?$char_traits@D@std@@V?$allocator@D@2@@std@@@2@@std@@YAPAV?$basic_string@DU?$char_traits@D@std@@V?$allocator@D@2@@0@QAV10@0PAV10@AAV?$allocator@V?$basic_string@DU?$char_traits@D@std@@V?$allocator@D@2@@std@@@0@@Z 10072ce0 f i cGlumShape_Console.obj
 0002:00040e50       ??$_Uninitialized_copy_al_unchecked@PAV?$basic_string@DU?$char_traits@D@std@@V?$allocator@D@2@@std@@PAV12@V?$allocator@V?$basic_string@DU?$char_traits@D@std@@V?$allocator@D@2@@std@@@2@@std@@YAPAV?$basic_string@DU?$char_traits@D@std@@V?$allocator@D@2@@0@PAV10@QAV10@1AAV?$allocator@V?$basic_string@DU?$char_traits@D@std@@V?$allocator@D@2@@std@@@0@U_General_ptr_iterator_tag@0@U_Unused_parameter@0@@Z 10072e50 f i cGlumShape_Console.obj
 0002:00040f80       ??$_Uninitialized_move@PAV?$basic_string@DU?$char_traits@D@std@@V?$allocator@D@2@@std@@PAV12@V?$allocator@V?$basic_string@DU?$char_traits@D@std@@V?$allocator@D@2@@std@@@2@@std@@YAPAV?$basic_string@DU?$char_traits@D@std@@V?$allocator@D@2@@0@QAV10@0PAV10@AAV?$allocator@V?$basic_string@DU?$char_traits@D@std@@V?$allocator@D@2@@std@@@0@@Z 10072f80 f i cGlumShape_Console.obj
 0002:000410f0       ??$_Uninitialized_move_al_unchecked@PAV?$basic_string@DU?$char_traits@D@std@@V?$allocator@D@2@@std@@PAV12@V?$allocator@V?$basic_string@DU?$char_traits@D@std@@V?$allocator@D@2@@std@@@2@@std@@YAPAV?$basic_string@DU?$char_traits@D@std@@V?$allocator@D@2@@0@PAV10@QAV10@1AAV?$allocator@V?$basic_string@DU?$char_traits@D@std@@V?$allocator@D@2@@std@@@0@U_General_ptr_iterator_tag@0@U_Unused_parameter@0@@Z 100730f0 f i cGlumShape_Console.obj
 0002:00041230       ??$addressof@$$CBV?$basic_string@DU?$char_traits@D@std@@V?$allocator@D@2@@std@@@std@@YAPBV?$basic_string@DU?$char_traits@D@std@@V?$allocator@D@2@@0@ABV10@@Z 10073230 f i cGlumShape_Console.obj
 0002:000412c0       ??$addressof@PAD@std@@YAPAPADAAPAD@Z 100732c0 f i cGlumShape_Console.obj
 0002:00041350       ??$addressof@V?$_String_val@U?$_Simple_types@D@std@@@std@@@std@@YAPAV?$_String_val@U?$_Simple_types@D@std@@@0@AAV10@@Z 10073350 f i cGlumShape_Console.obj
 0002:000413e0       ??$addressof@V?$_Vector_val@U?$_Simple_types@V?$basic_string@DU?$char_traits@D@std@@V?$allocator@D@2@@std@@@std@@@std@@@std@@YAPAV?$_Vector_val@U?$_Simple_types@V?$basic_string@DU?$char_traits@D@std@@V?$allocator@D@2@@std@@@std@@@0@AAV10@@Z 100733e0 f i cGlumShape_Console.obj
 0002:00041470       ??$advance@PAV?$basic_string@DU?$char_traits@D@std@@V?$allocator@D@2@@std@@H@std@@YAXAAPAV?$basic_string@DU?$char_traits@D@std@@V?$allocator@D@2@@0@H@Z 10073470 f i cGlumShape_Console.obj
 0002:000414e0       ??$assign@V?$_Vector_iterator@V?$_Vector_val@U?$_Simple_types@V?$basic_string@DU?$char_traits@D@std@@V?$allocator@D@2@@std@@@std@@@std@@@std@@X@?$vector@V?$basic_string@DU?$char_traits@D@std@@V?$allocator@D@2@@std@@V?$allocator@V?$basic_string@DU?$char_traits@D@std@@V?$allocator@D@2@@std@@@2@@std@@QAEXV?$_Vector_iterator@V?$_Vector_val@U?$_Simple_types@V?$basic_string@DU?$char_traits@D@std@@V?$allocator@D@2@@std@@@std@@@std@@@1@0@Z 100734e0 f i cGlumShape_Console.obj
 0002:000415e0       ??$construct@PADABQAD@?$_Default_allocator_traits@V?$allocator@D@std@@@std@@SAXAAV?$allocator@D@1@QAPADABQAD@Z 100735e0 f i cGlumShape_Console.obj
 0002:00041660       ??$construct@U?$pair@$$CBDI@std@@ABUpiecewise_construct_t@2@V?$tuple@ABD@2@V?$tuple@$$V@2@@?$_Default_allocator_traits@V?$allocator@U?$_Tree_node@U?$pair@$$CBDI@std@@PAX@std@@@std@@@std@@SAXAAV?$allocator@U?$_Tree_node@U?$pair@$$CBDI@std@@PAX@std@@@1@QAU?$pair@$$CBDI@1@ABUpiecewise_construct_t@1@$$QAV?$tuple@ABD@1@$$QAV?$tuple@$$V@1@@Z 10073660 f i cGlumShape_Console.obj
 0002:00041730       ??$construct@V?$basic_string@DU?$char_traits@D@std@@V?$allocator@D@2@@std@@AAV12@@?$_Default_allocator_traits@V?$allocator@V?$basic_string@DU?$char_traits@D@std@@V?$allocator@D@2@@std@@@std@@@std@@SAXAAV?$allocator@V?$basic_string@DU?$char_traits@D@std@@V?$allocator@D@2@@std@@@1@QAV?$basic_string@DU?$char_traits@D@std@@V?$allocator@D@2@@1@AAV31@@Z 10073730 f i cGlumShape_Console.obj
 0002:000417c0       ??$construct@V?$basic_string@DU?$char_traits@D@std@@V?$allocator@D@2@@std@@V12@@?$_Default_allocator_traits@V?$allocator@V?$basic_string@DU?$char_traits@D@std@@V?$allocator@D@2@@std@@@std@@@std@@SAXAAV?$allocator@V?$basic_string@DU?$char_traits@D@std@@V?$allocator@D@2@@std@@@1@QAV?$basic_string@DU?$char_traits@D@std@@V?$allocator@D@2@@1@$$QAV31@@Z 100737c0 f i cGlumShape_Console.obj
 0002:00041850       ??$destroy@PAD@?$_Default_allocator_traits@V?$allocator@D@std@@@std@@SAXAAV?$allocator@D@1@QAPAD@Z 10073850 f i cGlumShape_Console.obj
 0002:000418a0       ??$destroy@V?$basic_string@DU?$char_traits@D@std@@V?$allocator@D@2@@std@@@?$_Default_allocator_traits@V?$allocator@V?$basic_string@DU?$char_traits@D@std@@V?$allocator@D@2@@std@@@std@@@std@@SAXAAV?$allocator@V?$basic_string@DU?$char_traits@D@std@@V?$allocator@D@2@@std@@@1@QAV?$basic_string@DU?$char_traits@D@std@@V?$allocator@D@2@@1@@Z 100738a0 f i cGlumShape_Console.obj
 0002:00041900       ??$distance@PAV?$basic_string@DU?$char_traits@D@std@@V?$allocator@D@2@@std@@@std@@YAHPAV?$basic_string@DU?$char_traits@D@std@@V?$allocator@D@2@@0@0@Z 10073900 f i cGlumShape_Console.obj
 0002:00041970       ??$emplace_hint@ABUpiecewise_construct_t@std@@V?$tuple@ABD@2@V?$tuple@$$V@2@@?$_Tree@V?$_Tmap_traits@DIU?$less@D@std@@V?$allocator@U?$pair@$$CBDI@std@@@2@$0A@@std@@@std@@QAE?AV?$_Tree_iterator@V?$_Tree_val@U?$_Tree_simple_types@U?$pair@$$CBDI@std@@@std@@@std@@@1@V?$_Tree_const_iterator@V?$_Tree_val@U?$_Tree_simple_types@U?$pair@$$CBDI@std@@@std@@@std@@@1@ABUpiecewise_construct_t@1@$$QAV?$tuple@ABD@1@$$QAV?$tuple@$$V@1@@Z 10073970 f i cGlumShape_Console.obj
 0002:00041ac0       ??$for_each@V?$_String_iterator@V?$_String_val@U?$_Simple_types@D@std@@@std@@@std@@VcPolyLetter@Glumer@@@std@@YA?AVcPolyLetter@Glumer@@V?$_String_iterator@V?$_String_val@U?$_Simple_types@D@std@@@std@@@0@0V12@@Z 10073ac0 f i cGlumShape_Console.obj
 0002:00041c00       ??$forward@AAU?$pair@$$CBDI@std@@@std@@YAAAU?$pair@$$CBDI@0@AAU10@@Z 10073c00 f i cGlumShape_Console.obj
 0002:00041c90       ??$forward@AAV?$_Tree_iterator@V?$_Tree_val@U?$_Tree_simple_types@U?$pair@$$CBDI@std@@@std@@@std@@@std@@@std@@YAAAV?$_Tree_iterator@V?$_Tree_val@U?$_Tree_simple_types@U?$pair@$$CBDI@std@@@std@@@std@@@0@AAV10@@Z 10073c90 f i cGlumShape_Console.obj
 0002:00041d20       ??$forward@AAV?$basic_string@DU?$char_traits@D@std@@V?$allocator@D@2@@std@@@std@@YAAAV?$basic_string@DU?$char_traits@D@std@@V?$allocator@D@2@@0@AAV10@@Z 10073d20 f i cGlumShape_Console.obj
 0002:00041db0       ??$forward@ABD@std@@YAABDABD@Z 10073db0 f i cGlumShape_Console.obj
 0002:00041e40       ??$forward@ABQAD@std@@YAABQADABQAD@Z 10073e40 f i cGlumShape_Console.obj
 0002:00041ed0       ??$forward@V?$_Tree_iterator@V?$_Tree_val@U?$_Tree_simple_types@U?$pair@$$CBDI@std@@@std@@@std@@@std@@@std@@YA$$QAV?$_Tree_iterator@V?$_Tree_val@U?$_Tree_simple_types@U?$pair@$$CBDI@std@@@std@@@std@@@0@AAV10@@Z 10073ed0 f i cGlumShape_Console.obj
 0002:00041f60       ??$forward@V?$allocator@D@std@@@std@@YA$$QAV?$allocator@D@0@AAV10@@Z 10073f60 f i cGlumShape_Console.obj
 0002:00041ff0       ??$forward@V?$basic_string@DU?$char_traits@D@std@@V?$allocator@D@2@@std@@@std@@YA$$QAV?$basic_string@DU?$char_traits@D@std@@V?$allocator@D@2@@0@AAV10@@Z 10073ff0 f i cGlumShape_Console.obj
 0002:00042080       ??$forward@V?$tuple@ABD@std@@@std@@YA$$QAV?$tuple@ABD@0@AAV10@@Z 10074080 f i cGlumShape_Console.obj
 0002:00042110       ??$forward_as_tuple@ABD@std@@YA?AV?$tuple@ABD@0@ABD@Z 10074110 f i cGlumShape_Console.obj
 0002:000421b0       ??$get@$0A@ABD@std@@YAABD$$QAV?$tuple@ABD@0@@Z 100741b0 f i cGlumShape_Console.obj
 0002:00042250       ??$move@AAV?$allocator@D@std@@@std@@YA$$QAV?$allocator@D@0@AAV10@@Z 10074250 f i cGlumShape_Console.obj
 0002:000422e0       ??$move@AAV?$basic_string@DU?$char_traits@D@std@@V?$allocator@D@2@@std@@@std@@YA$$QAV?$basic_string@DU?$char_traits@D@std@@V?$allocator@D@2@@0@AAV10@@Z 100742e0 f i cGlumShape_Console.obj
 0002:00042370       ??$move@AAV?$tuple@ABD@std@@@std@@YA$$QAV?$tuple@ABD@0@AAV10@@Z 10074370 f i cGlumShape_Console.obj
 0002:00042400       ??$next@PAV?$basic_string@DU?$char_traits@D@std@@V?$allocator@D@2@@std@@@std@@YAPAV?$basic_string@DU?$char_traits@D@std@@V?$allocator@D@2@@0@PAV10@H@Z 10074400 f i cGlumShape_Console.obj
 0002:00042470       ??$try_emplace@$$V@?$map@DIU?$less@D@std@@V?$allocator@U?$pair@$$CBDI@std@@@2@@std@@QAE?AU?$pair@V?$_Tree_iterator@V?$_Tree_val@U?$_Tree_simple_types@U?$pair@$$CBDI@std@@@std@@@std@@@std@@_N@1@ABD@Z 10074470 f i cGlumShape_Console.obj
 0002:00042500       ??0?$_String_const_iterator@V?$_String_val@U?$_Simple_types@D@std@@@std@@@std@@QAE@PBDPBU_Container_base12@1@@Z 10074500 f i cGlumShape_Console.obj
 0002:00042580       ??0?$_String_iterator@V?$_String_val@U?$_Simple_types@D@std@@@std@@@std@@QAE@PADPBU_Container_base12@1@@Z 10074580 f i cGlumShape_Console.obj
 0002:000425f0       ??0?$_String_val@U?$_Simple_types@D@std@@@std@@QAE@XZ 100745f0 f i cGlumShape_Console.obj
 0002:00042680       ??0?$_Tree_const_iterator@V?$_Tree_val@U?$_Tree_simple_types@U?$pair@$$CBDI@std@@@std@@@std@@@std@@QAE@XZ 10074680 f i cGlumShape_Console.obj
 0002:000426e0       ??0?$_Tree_iterator@V?$_Tree_val@U?$_Tree_simple_types@U?$pair@$$CBDI@std@@@std@@@std@@@std@@QAE@$$QAV01@@Z 100746e0 f i cGlumShape_Console.obj
 0002:00042740       ??0?$_Tree_iterator@V?$_Tree_val@U?$_Tree_simple_types@U?$pair@$$CBDI@std@@@std@@@std@@@std@@QAE@ABV01@@Z 10074740 f i cGlumShape_Console.obj
 0002:000427a0       ??0?$_Tree_unchecked_const_iterator@V?$_Tree_val@U?$_Tree_simple_types@U?$pair@$$CBDI@std@@@std@@@std@@U_Iterator_base12@2@@std@@QAE@XZ 100747a0 f i cGlumShape_Console.obj
 0002:00042810       ??0?$_Uninitialized_backout_al@PAV?$basic_string@DU?$char_traits@D@std@@V?$allocator@D@2@@std@@V?$allocator@V?$basic_string@DU?$char_traits@D@std@@V?$allocator@D@2@@std@@@2@@std@@QAE@PAV?$basic_string@DU?$char_traits@D@std@@V?$allocator@D@2@@1@AAV?$allocator@V?$basic_string@DU?$char_traits@D@std@@V?$allocator@D@2@@std@@@1@@Z 10074810 f i cGlumShape_Console.obj
 0002:00042890       ??0?$_Vector_alloc@U?$_Vec_base_types@V?$basic_string@DU?$char_traits@D@std@@V?$allocator@D@2@@std@@V?$allocator@V?$basic_string@DU?$char_traits@D@std@@V?$allocator@D@2@@std@@@2@@std@@@std@@QAE@XZ 10074890 f i cGlumShape_Console.obj
 0002:00042910       ??0?$_Vector_const_iterator@V?$_Vector_val@U?$_Simple_types@V?$basic_string@DU?$char_traits@D@std@@V?$allocator@D@2@@std@@@std@@@std@@@std@@QAE@PAV?$basic_string@DU?$char_traits@D@std@@V?$allocator@D@2@@1@PBU_Container_base12@1@@Z 10074910 f i cGlumShape_Console.obj
 0002:00042990       ??0?$_Vector_iterator@V?$_Vector_val@U?$_Simple_types@V?$basic_string@DU?$char_traits@D@std@@V?$allocator@D@2@@std@@@std@@@std@@@std@@QAE@PAV?$basic_string@DU?$char_traits@D@std@@V?$allocator@D@2@@1@PBU_Container_base12@1@@Z 10074990 f i cGlumShape_Console.obj
 0002:00042a00       ??0?$_Vector_val@U?$_Simple_types@V?$basic_string@DU?$char_traits@D@std@@V?$allocator@D@2@@std@@@std@@@std@@QAE@XZ 10074a00 f i cGlumShape_Console.obj
 0002:00042a90       ??0?$allocator@V?$basic_string@DU?$char_traits@D@std@@V?$allocator@D@2@@std@@@std@@QAE@XZ 10074a90 f i cGlumShape_Console.obj
 0002:00042b20       ??0?$basic_string@DU?$char_traits@D@std@@V?$allocator@D@2@@std@@QAE@$$QAV01@@Z 10074b20 f i cGlumShape_Console.obj
 0002:00042c00       ??0?$basic_string@DU?$char_traits@D@std@@V?$allocator@D@2@@std@@QAE@ABV01@@Z 10074c00 f i cGlumShape_Console.obj
 0002:00042ce0       ??0?$tuple@ABD@std@@QAE@$$QAV01@@Z 10074ce0 f i cGlumShape_Console.obj
 0002:00042d90       ??0?$vector@V?$basic_string@DU?$char_traits@D@std@@V?$allocator@D@2@@std@@V?$allocator@V?$basic_string@DU?$char_traits@D@std@@V?$allocator@D@2@@std@@@2@@std@@QAE@XZ 10074d90 f i cGlumShape_Console.obj
 0002:00042e30       ??0_Bxty@?$_String_val@U?$_Simple_types@D@std@@@std@@QAE@XZ 10074e30 f i cGlumShape_Console.obj
 0002:00042e90       ??0cGlumShape_Console@Glumer@@QAE@IPAVcHUD_Colour@1@M@Z 10074e90 f   cGlumShape_Console.obj
 0002:00043090       ??0cPolyLetter@Glumer@@QAE@PAVcHUD_Colour@1@AAH11@Z 10075090 f i cGlumShape_Console.obj
 0002:00043120       ??1?$_Compressed_pair@V?$allocator@D@std@@V?$_String_val@U?$_Simple_types@D@std@@@2@$00@std@@QAE@XZ 10075120 f i cGlumShape_Console.obj
 0002:00043170       ??1?$_String_alloc@U?$_String_base_types@DV?$allocator@D@std@@@std@@@std@@QAE@XZ 10075170 f i cGlumShape_Console.obj
 0002:00043210       ??1?$_String_const_iterator@V?$_String_val@U?$_Simple_types@D@std@@@std@@@std@@QAE@XZ 10075210 f i cGlumShape_Console.obj
 0002:00043260       ??1?$_String_iterator@V?$_String_val@U?$_Simple_types@D@std@@@std@@@std@@QAE@XZ 10075260 f i cGlumShape_Console.obj
 0002:000432b0       ??1?$_String_val@U?$_Simple_types@D@std@@@std@@QAE@XZ 100752b0 f i cGlumShape_Console.obj
 0002:00043310       ??1?$_Uninitialized_backout_al@PAV?$basic_string@DU?$char_traits@D@std@@V?$allocator@D@2@@std@@V?$allocator@V?$basic_string@DU?$char_traits@D@std@@V?$allocator@D@2@@std@@@2@@std@@QAE@XZ 10075310 f i cGlumShape_Console.obj
 0002:000433c0       ??1?$_Vector_alloc@U?$_Vec_base_types@V?$basic_string@DU?$char_traits@D@std@@V?$allocator@D@2@@std@@V?$allocator@V?$basic_string@DU?$char_traits@D@std@@V?$allocator@D@2@@std@@@2@@std@@@std@@QAE@XZ 100753c0 f i cGlumShape_Console.obj
 0002:00043450       ??1?$_Vector_const_iterator@V?$_Vector_val@U?$_Simple_types@V?$basic_string@DU?$char_traits@D@std@@V?$allocator@D@2@@std@@@std@@@std@@@std@@QAE@XZ 10075450 f i cGlumShape_Console.obj
 0002:000434a0       ??1?$_Vector_iterator@V?$_Vector_val@U?$_Simple_types@V?$basic_string@DU?$char_traits@D@std@@V?$allocator@D@2@@std@@@std@@@std@@@std@@QAE@XZ 100754a0 f i cGlumShape_Console.obj
 0002:000434f0       ??1?$basic_string@DU?$char_traits@D@std@@V?$allocator@D@2@@std@@QAE@XZ 100754f0 f i cGlumShape_Console.obj
 0002:00043590       ??1?$pair@V?$_Tree_iterator@V?$_Tree_val@U?$_Tree_simple_types@U?$pair@$$CBDI@std@@@std@@@std@@@std@@_N@std@@QAE@XZ 10075590 f i cGlumShape_Console.obj
 0002:000435e0       ??1?$vector@V?$basic_string@DU?$char_traits@D@std@@V?$allocator@D@2@@std@@V?$allocator@V?$basic_string@DU?$char_traits@D@std@@V?$allocator@D@2@@std@@@2@@std@@QAE@XZ 100755e0 f i cGlumShape_Console.obj
 0002:00043680       ??1_Bxty@?$_String_val@U?$_Simple_types@D@std@@@std@@QAE@XZ 10075680 f i cGlumShape_Console.obj
 0002:00043710       ??1cGlumShape_Console@Glumer@@UAE@XZ 10075710 f i cGlumShape_Console.obj
 0002:000438a0       ??4?$_Tree_const_iterator@V?$_Tree_val@U?$_Tree_simple_types@U?$pair@$$CBDI@std@@@std@@@std@@@std@@QAEAAV01@ABV01@@Z 100758a0 f i cGlumShape_Console.obj
 0002:00043900       ??4?$_Tree_unchecked_const_iterator@V?$_Tree_val@U?$_Tree_simple_types@U?$pair@$$CBDI@std@@@std@@@std@@U_Iterator_base12@2@@std@@QAEAAV01@ABV01@@Z 10075900 f i cGlumShape_Console.obj
 0002:00043970       ??4?$basic_string@DU?$char_traits@D@std@@V?$allocator@D@2@@std@@QAEAAV01@ABV01@@Z 10075970 f i cGlumShape_Console.obj
 0002:00043a30       ??A?$map@DIU?$less@D@std@@V?$allocator@U?$pair@$$CBDI@std@@@2@@std@@QAEAAIABD@Z 10075a30 f i cGlumShape_Console.obj
 0002:00043b30       ??A?$vector@V?$basic_string@DU?$char_traits@D@std@@V?$allocator@D@2@@std@@V?$allocator@V?$basic_string@DU?$char_traits@D@std@@V?$allocator@D@2@@std@@@2@@std@@QAEAAV?$basic_string@DU?$char_traits@D@std@@V?$allocator@D@2@@1@I@Z 10075b30 f i cGlumShape_Console.obj
 0002:00043c30       ??C?$_Tree_iterator@V?$_Tree_val@U?$_Tree_simple_types@U?$pair@$$CBDI@std@@@std@@@std@@@std@@QBEPAU?$pair@$$CBDI@1@XZ 10075c30 f i cGlumShape_Console.obj
 0002:00043ca0       ??D?$_Tree_const_iterator@V?$_Tree_val@U?$_Tree_simple_types@U?$pair@$$CBDI@std@@@std@@@std@@@std@@QBEABU?$pair@$$CBDI@1@XZ 10075ca0 f i cGlumShape_Console.obj
 0002:00043e20       ??D?$_Tree_iterator@V?$_Tree_val@U?$_Tree_simple_types@U?$pair@$$CBDI@std@@@std@@@std@@@std@@QBEAAU?$pair@$$CBDI@1@XZ 10075e20 f i cGlumShape_Console.obj
 0002:00043e80       ??F?$_Tree_const_iterator@V?$_Tree_val@U?$_Tree_simple_types@U?$pair@$$CBDI@std@@@std@@@std@@@std@@QAEAAV01@XZ 10075e80 f i cGlumShape_Console.obj
 0002:00044000       ??F?$_Tree_iterator@V?$_Tree_val@U?$_Tree_simple_types@U?$pair@$$CBDI@std@@@std@@@std@@@std@@QAEAAV01@XZ 10076000 f i cGlumShape_Console.obj
 0002:00044060       ??F?$_Tree_unchecked_const_iterator@V?$_Tree_val@U?$_Tree_simple_types@U?$pair@$$CBDI@std@@@std@@@std@@U_Iterator_base12@2@@std@@QAEAAV01@XZ 10076060 f i cGlumShape_Console.obj
 0002:00044210       ??R?$less@D@std@@QBE_NABD0@Z 10076210 f i cGlumShape_Console.obj
 0002:000442a0       ??RcPolyLetter@Glumer@@QBE_NAAD@Z 100762a0 f i cGlumShape_Console.obj
 0002:00044694       ??_EcGlumShape_Console@Glumer@@WBI@AEPAXI@Z 10076694 f i cGlumShape_Console.obj
 0002:000446a0       ??_G?$basic_string@DU?$char_traits@D@std@@V?$allocator@D@2@@std@@QAEPAXI@Z 100766a0 f i cGlumShape_Console.obj
 0002:00044710       ??_EcGlumShape_Console@Glumer@@UAEPAXI@Z 10076710 f i cGlumShape_Console.obj
 0002:00044710       ??_GcGlumShape_Console@Glumer@@UAEPAXI@Z 10076710 f i cGlumShape_Console.obj
 0002:00044790       ?DrawLine@cGlumShape_Console@Glumer@@AAEXAAV?$basic_string@DU?$char_traits@D@std@@V?$allocator@D@2@@std@@@Z 10076790 f i cGlumShape_Console.obj
 0002:000448f0       ?EventShow@cGlumShape_Console@Glumer@@UAEXXZ 100768f0 f i cGlumShape_Console.obj
 0002:00044bf0       ?Start@cGlumShape_Console@Glumer@@UAEXPAVcMovementBase@2@@Z 10076bf0 f i cGlumShape_Console.obj
 0002:00044e50       ?Stop@cGlumShape_Console@Glumer@@UAEXXZ 10076e50 f i cGlumShape_Console.obj
 0002:00044ed0       ?_Alloc_proxy@?$_String_alloc@U?$_String_base_types@DV?$allocator@D@std@@@std@@@std@@QAEXXZ 10076ed0 f i cGlumShape_Console.obj
 0002:00045000       ?_Alloc_proxy@?$_Vector_alloc@U?$_Vec_base_types@V?$basic_string@DU?$char_traits@D@std@@V?$allocator@D@2@@std@@V?$allocator@V?$basic_string@DU?$char_traits@D@std@@V?$allocator@D@2@@std@@@2@@std@@@std@@QAEXXZ 10077000 f i cGlumShape_Console.obj
 0002:00045130       ?_Assign_rv_contents_with_alloc_always_equal@?$basic_string@DU?$char_traits@D@std@@V?$allocator@D@2@@std@@QAEX$$QAV12@U?$integral_constant@_N$00@2@@Z 10077130 f i cGlumShape_Console.obj
 0002:00045250       ?_Buy@?$vector@V?$basic_string@DU?$char_traits@D@std@@V?$allocator@D@2@@std@@V?$allocator@V?$basic_string@DU?$char_traits@D@std@@V?$allocator@D@2@@std@@@2@@std@@AAE_NI@Z 10077250 f i cGlumShape_Console.obj
 0002:00045360       ?_Buynode0@?$_Tree_comp_alloc@V?$_Tmap_traits@DIU?$less@D@std@@V?$allocator@U?$pair@$$CBDI@std@@@2@$0A@@std@@@std@@QAEPAU?$_Tree_node@U?$pair@$$CBDI@std@@PAX@2@XZ 10077360 f i cGlumShape_Console.obj
 0002:000454e0       ?_Calculate_growth@?$basic_string@DU?$char_traits@D@std@@V?$allocator@D@2@@std@@QBEII@Z 100774e0 f i cGlumShape_Console.obj
 0002:00045600       ?_Calculate_growth@?$vector@V?$basic_string@DU?$char_traits@D@std@@V?$allocator@D@2@@std@@V?$allocator@V?$basic_string@DU?$char_traits@D@std@@V?$allocator@D@2@@std@@@2@@std@@ABEII@Z 10077600 f i cGlumShape_Console.obj
 0002:000456b0       ?_Change_array@?$vector@V?$basic_string@DU?$char_traits@D@std@@V?$allocator@D@2@@std@@V?$allocator@V?$basic_string@DU?$char_traits@D@std@@V?$allocator@D@2@@std@@@2@@std@@AAEXQAV?$basic_string@DU?$char_traits@D@std@@V?$allocator@D@2@@2@II@Z 100776b0 f i cGlumShape_Console.obj
 0002:000457b0       ?_Compare@?$_Tree@V?$_Tmap_traits@DIU?$less@D@std@@V?$allocator@U?$pair@$$CBDI@std@@@2@$0A@@std@@@std@@IBE_NABD0@Z 100777b0 f i cGlumShape_Console.obj
 0002:00045830       ?_Construct_lv_contents@?$basic_string@DU?$char_traits@D@std@@V?$allocator@D@2@@std@@QAEXABV12@@Z 10077830 f i cGlumShape_Console.obj
 0002:00045a10       ?_Copy_alloc@?$_String_alloc@U?$_String_base_types@DV?$allocator@D@std@@@std@@@std@@QAEXABV?$allocator@D@2@@Z 10077a10 f i cGlumShape_Console.obj
 0002:00045ab0       ?_Destroy@?$vector@V?$basic_string@DU?$char_traits@D@std@@V?$allocator@D@2@@std@@V?$allocator@V?$basic_string@DU?$char_traits@D@std@@V?$allocator@D@2@@std@@@2@@std@@AAEXPAV?$basic_string@DU?$char_traits@D@std@@V?$allocator@D@2@@2@0@Z 10077ab0 f i cGlumShape_Console.obj
 0002:00045b30       ?_Destroy_if_node@?$_Tree@V?$_Tmap_traits@DIU?$less@D@std@@V?$allocator@U?$pair@$$CBDI@std@@@2@$0A@@std@@@std@@IAEXPAU?$_Tree_node@U?$pair@$$CBDI@std@@PAX@2@@Z 10077b30 f i cGlumShape_Console.obj
 0002:00045bd0       ?_Free_proxy@?$_String_alloc@U?$_String_base_types@DV?$allocator@D@std@@@std@@@std@@QAEXXZ 10077bd0 f i cGlumShape_Console.obj
 0002:00045cd0       ?_Free_proxy@?$_Vector_alloc@U?$_Vec_base_types@V?$basic_string@DU?$char_traits@D@std@@V?$allocator@D@2@@std@@V?$allocator@V?$basic_string@DU?$char_traits@D@std@@V?$allocator@D@2@@std@@@2@@std@@@std@@QAEXXZ 10077cd0 f i cGlumShape_Console.obj
 0002:00045dd0       ?_Freenode0@?$_Tree_comp_alloc@V?$_Tmap_traits@DIU?$less@D@std@@V?$allocator@U?$pair@$$CBDI@std@@@2@$0A@@std@@@std@@QAEXPAU?$_Tree_node@U?$pair@$$CBDI@std@@PAX@2@@Z 10077dd0 f i cGlumShape_Console.obj
 0002:00045e40       ?_Get_data@?$_String_alloc@U?$_String_base_types@DV?$allocator@D@std@@@std@@@std@@QAEAAV?$_String_val@U?$_Simple_types@D@std@@@2@XZ 10077e40 f i cGlumShape_Console.obj
 0002:00045ed0       ?_Get_data@?$_String_alloc@U?$_String_base_types@DV?$allocator@D@std@@@std@@@std@@QBEABV?$_String_val@U?$_Simple_types@D@std@@@2@XZ 10077ed0 f i cGlumShape_Console.obj
 0002:00045f60       ?_Get_data@?$_Vector_alloc@U?$_Vec_base_types@V?$basic_string@DU?$char_traits@D@std@@V?$allocator@D@2@@std@@V?$allocator@V?$basic_string@DU?$char_traits@D@std@@V?$allocator@D@2@@std@@@2@@std@@@std@@QAEAAV?$_Vector_val@U?$_Simple_types@V?$basic_string@DU?$char_traits@D@std@@V?$allocator@D@2@@std@@@std@@@2@XZ 10077f60 f i cGlumShape_Console.obj
 0002:00045ff0       ?_Get_data@?$_Vector_alloc@U?$_Vec_base_types@V?$basic_string@DU?$char_traits@D@std@@V?$allocator@D@2@@std@@V?$allocator@V?$basic_string@DU?$char_traits@D@std@@V?$allocator@D@2@@std@@@2@@std@@@std@@QBEABV?$_Vector_val@U?$_Simple_types@V?$basic_string@DU?$char_traits@D@std@@V?$allocator@D@2@@std@@@std@@@2@XZ 10077ff0 f i cGlumShape_Console.obj
 0002:00046080       ?_Get_first@?$_Compressed_pair@U?$less@D@std@@V?$_Compressed_pair@V?$allocator@U?$_Tree_node@U?$pair@$$CBDI@std@@PAX@std@@@std@@V?$_Tree_val@U?$_Tree_simple_types@U?$pair@$$CBDI@std@@@std@@@2@$00@2@$00@std@@QAEAAU?$less@D@2@XZ 10078080 f i cGlumShape_Console.obj
 0002:00046110       ?_Get_first@?$_Compressed_pair@U?$less@D@std@@V?$_Compressed_pair@V?$allocator@U?$_Tree_node@U?$pair@$$CBDI@std@@PAX@std@@@std@@V?$_Tree_val@U?$_Tree_simple_types@U?$pair@$$CBDI@std@@@std@@@2@$00@2@$00@std@@QBEABU?$less@D@2@XZ 10078110 f i cGlumShape_Console.obj
 0002:000461a0       ?_Get_first@?$_Compressed_pair@V?$allocator@D@std@@V?$_String_val@U?$_Simple_types@D@std@@@2@$00@std@@QAEAAV?$allocator@D@2@XZ 100781a0 f i cGlumShape_Console.obj
 0002:00046230       ?_Get_first@?$_Compressed_pair@V?$allocator@D@std@@V?$_String_val@U?$_Simple_types@D@std@@@2@$00@std@@QBEABV?$allocator@D@2@XZ 10078230 f i cGlumShape_Console.obj
 0002:000462c0       ?_Get_first@?$_Compressed_pair@V?$allocator@U?$_Tree_node@U?$pair@$$CBDI@std@@PAX@std@@@std@@V?$_Tree_val@U?$_Tree_simple_types@U?$pair@$$CBDI@std@@@std@@@2@$00@std@@QBEABV?$allocator@U?$_Tree_node@U?$pair@$$CBDI@std@@PAX@std@@@2@XZ 100782c0 f i cGlumShape_Console.obj
 0002:00046350       ?_Get_first@?$_Compressed_pair@V?$allocator@V?$basic_string@DU?$char_traits@D@std@@V?$allocator@D@2@@std@@@std@@V?$_Vector_val@U?$_Simple_types@V?$basic_string@DU?$char_traits@D@std@@V?$allocator@D@2@@std@@@std@@@2@$00@std@@QAEAAV?$allocator@V?$basic_string@DU?$char_traits@D@std@@V?$allocator@D@2@@std@@@2@XZ 10078350 f i cGlumShape_Console.obj
 0002:000463e0       ?_Get_first@?$_Compressed_pair@V?$allocator@V?$basic_string@DU?$char_traits@D@std@@V?$allocator@D@2@@std@@@std@@V?$_Vector_val@U?$_Simple_types@V?$basic_string@DU?$char_traits@D@std@@V?$allocator@D@2@@std@@@std@@@2@$00@std@@QBEABV?$allocator@V?$basic_string@DU?$char_traits@D@std@@V?$allocator@D@2@@std@@@2@XZ 100783e0 f i cGlumShape_Console.obj
 0002:00046470       ?_Get_second@?$_Compressed_pair@V?$allocator@D@std@@V?$_String_val@U?$_Simple_types@D@std@@@2@$00@std@@QAEAAV?$_String_val@U?$_Simple_types@D@std@@@2@XZ 10078470 f i cGlumShape_Console.obj
 0002:00046500       ?_Get_second@?$_Compressed_pair@V?$allocator@D@std@@V?$_String_val@U?$_Simple_types@D@std@@@2@$00@std@@QBEABV?$_String_val@U?$_Simple_types@D@std@@@2@XZ 10078500 f i cGlumShape_Console.obj
 0002:00046590       ?_Get_second@?$_Compressed_pair@V?$allocator@V?$basic_string@DU?$char_traits@D@std@@V?$allocator@D@2@@std@@@std@@V?$_Vector_val@U?$_Simple_types@V?$basic_string@DU?$char_traits@D@std@@V?$allocator@D@2@@std@@@std@@@2@$00@std@@QAEAAV?$_Vector_val@U?$_Simple_types@V?$basic_string@DU?$char_traits@D@std@@V?$allocator@D@2@@std@@@std@@@2@XZ 10078590 f i cGlumShape_Console.obj
 0002:00046620       ?_Get_second@?$_Compressed_pair@V?$allocator@V?$basic_string@DU?$char_traits@D@std@@V?$allocator@D@2@@std@@@std@@V?$_Vector_val@U?$_Simple_types@V?$basic_string@DU?$char_traits@D@std@@V?$allocator@D@2@@std@@@std@@@2@$00@std@@QBEABV?$_Vector_val@U?$_Simple_types@V?$basic_string@DU?$char_traits@D@std@@V?$allocator@D@2@@std@@@std@@@2@XZ 10078620 f i cGlumShape_Console.obj
 0002:000466b0       ?_Getal@?$_String_alloc@U?$_String_base_types@DV?$allocator@D@std@@@std@@@std@@QAEAAV?$allocator@D@2@XZ 100786b0 f i cGlumShape_Console.obj
 0002:00046740       ?_Getal@?$_String_alloc@U?$_String_base_types@DV?$allocator@D@std@@@std@@@std@@QBEABV?$allocator@D@2@XZ 10078740 f i cGlumShape_Console.obj
 0002:000467d0       ?_Getal@?$_Tree_comp_alloc@V?$_Tmap_traits@DIU?$less@D@std@@V?$allocator@U?$pair@$$CBDI@std@@@2@$0A@@std@@@std@@QBEABV?$allocator@U?$_Tree_node@U?$pair@$$CBDI@std@@PAX@std@@@2@XZ 100787d0 f i cGlumShape_Console.obj
 0002:00046870       ?_Getal@?$_Vector_alloc@U?$_Vec_base_types@V?$basic_string@DU?$char_traits@D@std@@V?$allocator@D@2@@std@@V?$allocator@V?$basic_string@DU?$char_traits@D@std@@V?$allocator@D@2@@std@@@2@@std@@@std@@QAEAAV?$allocator@V?$basic_string@DU?$char_traits@D@std@@V?$allocator@D@2@@std@@@2@XZ 10078870 f i cGlumShape_Console.obj
 0002:00046900       ?_Getal@?$_Vector_alloc@U?$_Vec_base_types@V?$basic_string@DU?$char_traits@D@std@@V?$allocator@D@2@@std@@V?$allocator@V?$basic_string@DU?$char_traits@D@std@@V?$allocator@D@2@@std@@@2@@std@@@std@@QBEABV?$allocator@V?$basic_string@DU?$char_traits@D@std@@V?$allocator@D@2@@std@@@2@XZ 10078900 f i cGlumShape_Console.obj
 0002:00046990       ?_Getcomp@?$_Tree_comp_alloc@V?$_Tmap_traits@DIU?$less@D@std@@V?$allocator@U?$pair@$$CBDI@std@@@2@$0A@@std@@@std@@QAEAAU?$less@D@2@XZ 10078990 f i cGlumShape_Console.obj
 0002:00046a20       ?_Getcomp@?$_Tree_comp_alloc@V?$_Tmap_traits@DIU?$less@D@std@@V?$allocator@U?$pair@$$CBDI@std@@@2@$0A@@std@@@std@@QBEABU?$less@D@2@XZ 10078a20 f i cGlumShape_Console.obj
 0002:00046ab0       ?_Key@?$_Tree@V?$_Tmap_traits@DIU?$less@D@std@@V?$allocator@U?$pair@$$CBDI@std@@@2@$0A@@std@@@std@@IBEABDPAU?$_Tree_node@U?$pair@$$CBDI@std@@PAX@2@@Z 10078ab0 f i cGlumShape_Console.obj
 0002:00046b20       ?_Kfn@?$_Tree@V?$_Tmap_traits@DIU?$less@D@std@@V?$allocator@U?$pair@$$CBDI@std@@@2@$0A@@std@@@std@@IBEABDABU?$pair@$$CBDI@2@@Z 10078b20 f i cGlumShape_Console.obj
 0002:00046b90       ?_Large_string_engaged@?$_String_val@U?$_Simple_types@D@std@@@std@@QBE_NXZ 10078b90 f i cGlumShape_Console.obj
 0002:00046c10       ?_Myend@?$_Vector_alloc@U?$_Vec_base_types@V?$basic_string@DU?$char_traits@D@std@@V?$allocator@D@2@@std@@V?$allocator@V?$basic_string@DU?$char_traits@D@std@@V?$allocator@D@2@@std@@@2@@std@@@std@@QAEAAPAV?$basic_string@DU?$char_traits@D@std@@V?$allocator@D@2@@2@XZ 10078c10 f i cGlumShape_Console.obj
 0002:00046cb0       ?_Myend@?$_Vector_alloc@U?$_Vec_base_types@V?$basic_string@DU?$char_traits@D@std@@V?$allocator@D@2@@std@@V?$allocator@V?$basic_string@DU?$char_traits@D@std@@V?$allocator@D@2@@std@@@2@@std@@@std@@QBEABQAV?$basic_string@DU?$char_traits@D@std@@V?$allocator@D@2@@2@XZ 10078cb0 f i cGlumShape_Console.obj
 0002:00046d50       ?_Myfirst@?$_Vector_alloc@U?$_Vec_base_types@V?$basic_string@DU?$char_traits@D@std@@V?$allocator@D@2@@std@@V?$allocator@V?$basic_string@DU?$char_traits@D@std@@V?$allocator@D@2@@std@@@2@@std@@@std@@QAEAAPAV?$basic_string@DU?$char_traits@D@std@@V?$allocator@D@2@@2@XZ 10078d50 f i cGlumShape_Console.obj
 0002:00046df0       ?_Myfirst@?$_Vector_alloc@U?$_Vec_base_types@V?$basic_string@DU?$char_traits@D@std@@V?$allocator@D@2@@std@@V?$allocator@V?$basic_string@DU?$char_traits@D@std@@V?$allocator@D@2@@std@@@2@@std@@@std@@QBEABQAV?$basic_string@DU?$char_traits@D@std@@V?$allocator@D@2@@2@XZ 10078df0 f i cGlumShape_Console.obj
 0002:00046e90       ?_Mylast@?$_Vector_alloc@U?$_Vec_base_types@V?$basic_string@DU?$char_traits@D@std@@V?$allocator@D@2@@std@@V?$allocator@V?$basic_string@DU?$char_traits@D@std@@V?$allocator@D@2@@std@@@2@@std@@@std@@QAEAAPAV?$basic_string@DU?$char_traits@D@std@@V?$allocator@D@2@@2@XZ 10078e90 f i cGlumShape_Console.obj
 0002:00046f30       ?_Mylast@?$_Vector_alloc@U?$_Vec_base_types@V?$basic_string@DU?$char_traits@D@std@@V?$allocator@D@2@@std@@V?$allocator@V?$basic_string@DU?$char_traits@D@std@@V?$allocator@D@2@@std@@@2@@std@@@std@@QBEABQAV?$basic_string@DU?$char_traits@D@std@@V?$allocator@D@2@@2@XZ 10078f30 f i cGlumShape_Console.obj
 0002:00046fd0       ?_Myproxy@?$_String_alloc@U?$_String_base_types@DV?$allocator@D@std@@@std@@@std@@QAEAAPAU_Container_proxy@2@XZ 10078fd0 f i cGlumShape_Console.obj
 0002:00047060       ?_Myproxy@?$_Vector_alloc@U?$_Vec_base_types@V?$basic_string@DU?$char_traits@D@std@@V?$allocator@D@2@@std@@V?$allocator@V?$basic_string@DU?$char_traits@D@std@@V?$allocator@D@2@@std@@@2@@std@@@std@@QAEAAPAU_Container_proxy@2@XZ 10079060 f i cGlumShape_Console.obj
 0002:000470f0       ?_Myptr@?$_String_val@U?$_Simple_types@D@std@@@std@@QAEPADXZ 100790f0 f i cGlumShape_Console.obj
 0002:00047180       ?_Myptr@?$_String_val@U?$_Simple_types@D@std@@@std@@QBEPBDXZ 10079180 f i cGlumShape_Console.obj
 0002:00047210       ?_Orphan_all@?$_String_alloc@U?$_String_base_types@DV?$allocator@D@std@@@std@@@std@@QAEXXZ 10079210 f i cGlumShape_Console.obj
 0002:00047280       ?_Orphan_all@?$_Vector_alloc@U?$_Vec_base_types@V?$basic_string@DU?$char_traits@D@std@@V?$allocator@D@2@@std@@V?$allocator@V?$basic_string@DU?$char_traits@D@std@@V?$allocator@D@2@@std@@@2@@std@@@std@@QAEXXZ 10079280 f i cGlumShape_Console.obj
 0002:000472f0       ?_Reallocate_exactly@?$vector@V?$basic_string@DU?$char_traits@D@std@@V?$allocator@D@2@@std@@V?$allocator@V?$basic_string@DU?$char_traits@D@std@@V?$allocator@D@2@@std@@@2@@std@@AAEXI@Z 100792f0 f i cGlumShape_Console.obj
 0002:00047440       ?_Release@?$_Uninitialized_backout_al@PAV?$basic_string@DU?$char_traits@D@std@@V?$allocator@D@2@@std@@V?$allocator@V?$basic_string@DU?$char_traits@D@std@@V?$allocator@D@2@@std@@@2@@std@@QAEPAV?$basic_string@DU?$char_traits@D@std@@V?$allocator@D@2@@2@XZ 10079440 f i cGlumShape_Console.obj
 0002:000474b0       ?_Swap_all@?$_String_alloc@U?$_String_base_types@DV?$allocator@D@std@@@std@@@std@@QAEXAAV12@@Z 100794b0 f i cGlumShape_Console.obj
 0002:00047530       ?_Swap_all@_Container_base12@std@@QAEXAAU12@@Z 10079530 f i cGlumShape_Console.obj
 0002:00047670       ?_Tidy@?$vector@V?$basic_string@DU?$char_traits@D@std@@V?$allocator@D@2@@std@@V?$allocator@V?$basic_string@DU?$char_traits@D@std@@V?$allocator@D@2@@std@@@2@@std@@AAEXXZ 10079670 f i cGlumShape_Console.obj
 0002:00047770       ?_Tidy_deallocate@?$basic_string@DU?$char_traits@D@std@@V?$allocator@D@2@@std@@QAEXXZ 10079770 f i cGlumShape_Console.obj
 0002:00047890       ?_Tidy_init@?$basic_string@DU?$char_traits@D@std@@V?$allocator@D@2@@std@@QAEXXZ 10079890 f i cGlumShape_Console.obj
 0002:00047940       ?_Umove_if_noexcept1@?$vector@V?$basic_string@DU?$char_traits@D@std@@V?$allocator@D@2@@std@@V?$allocator@V?$basic_string@DU?$char_traits@D@std@@V?$allocator@D@2@@std@@@2@@std@@AAEXPAV?$basic_string@DU?$char_traits@D@std@@V?$allocator@D@2@@2@00U?$integral_constant@_N$00@2@@Z 10079940 f i cGlumShape_Console.obj
 0002:000479c0       ?_Umove_if_noexcept@?$vector@V?$basic_string@DU?$char_traits@D@std@@V?$allocator@D@2@@std@@V?$allocator@V?$basic_string@DU?$char_traits@D@std@@V?$allocator@D@2@@std@@@2@@std@@AAEXPAV?$basic_string@DU?$char_traits@D@std@@V?$allocator@D@2@@2@00@Z 100799c0 f i cGlumShape_Console.obj
 0002:00047a40       ?_Unwrapped@?$_String_iterator@V?$_String_val@U?$_Simple_types@D@std@@@std@@@std@@QBEPADXZ 10079a40 f i cGlumShape_Console.obj
 0002:00047ab0       ?_Unwrapped@?$_Vector_iterator@V?$_Vector_val@U?$_Simple_types@V?$basic_string@DU?$char_traits@D@std@@V?$allocator@D@2@@std@@@std@@@std@@@std@@QBEPAV?$basic_string@DU?$char_traits@D@std@@V?$allocator@D@2@@2@XZ 10079ab0 f i cGlumShape_Console.obj
 0002:00047b10       ?_Verify_range@std@@YAXABV?$_String_const_iterator@V?$_String_val@U?$_Simple_types@D@std@@@std@@@1@0@Z 10079b10 f i cGlumShape_Console.obj
 0002:00047c80       ?_Verify_range@std@@YAXABV?$_Vector_const_iterator@V?$_Vector_val@U?$_Simple_types@V?$basic_string@DU?$char_traits@D@std@@V?$allocator@D@2@@std@@@std@@@std@@@1@0@Z 10079c80 f i cGlumShape_Console.obj
 0002:00047df0       ?_Xlen@?$basic_string@DU?$char_traits@D@std@@V?$allocator@D@2@@std@@SAXXZ 10079df0 f i cGlumShape_Console.obj
 0002:00047e50       ?_Xlength@?$vector@V?$basic_string@DU?$char_traits@D@std@@V?$allocator@D@2@@std@@V?$allocator@V?$basic_string@DU?$char_traits@D@std@@V?$allocator@D@2@@std@@@2@@std@@CAXXZ 10079e50 f i cGlumShape_Console.obj
 0002:00047eb0       ?allocate@?$allocator@D@std@@QAEPADI@Z 10079eb0 f i cGlumShape_Console.obj
 0002:00047f20       ?allocate@?$allocator@V?$basic_string@DU?$char_traits@D@std@@V?$allocator@D@2@@std@@@std@@QAEPAV?$basic_string@DU?$char_traits@D@std@@V?$allocator@D@2@@2@I@Z 10079f20 f i cGlumShape_Console.obj
 0002:00047f90       ?assign@?$basic_string@DU?$char_traits@D@std@@V?$allocator@D@2@@std@@QAEAAV12@QBDI@Z 10079f90 f i cGlumShape_Console.obj
 0002:00048090       ?assign@?$char_traits@D@std@@SAXAADABD@Z 1007a090 f i cGlumShape_Console.obj
 0002:00048120       ?begin@?$basic_string@DU?$char_traits@D@std@@V?$allocator@D@2@@std@@QAE?AV?$_String_iterator@V?$_String_val@U?$_Simple_types@D@std@@@std@@@2@XZ 1007a120 f i cGlumShape_Console.obj
 0002:000481f0       ?begin@?$vector@V?$basic_string@DU?$char_traits@D@std@@V?$allocator@D@2@@std@@V?$allocator@V?$basic_string@DU?$char_traits@D@std@@V?$allocator@D@2@@std@@@2@@std@@QAE?AV?$_Vector_iterator@V?$_Vector_val@U?$_Simple_types@V?$basic_string@DU?$char_traits@D@std@@V?$allocator@D@2@@std@@@std@@@std@@@2@XZ 1007a1f0 f i cGlumShape_Console.obj
 0002:000482b0       ?capacity@?$vector@V?$basic_string@DU?$char_traits@D@std@@V?$allocator@D@2@@std@@V?$allocator@V?$basic_string@DU?$char_traits@D@std@@V?$allocator@D@2@@std@@@2@@std@@QBEIXZ 1007a2b0 f i cGlumShape_Console.obj
 0002:00048360       ?copy@?$char_traits@D@std@@SAPADQADQBDI@Z 1007a360 f i cGlumShape_Console.obj
 0002:00048400       ?deallocate@?$allocator@D@std@@QAEXQADI@Z 1007a400 f i cGlumShape_Console.obj
 0002:00048470       ?deallocate@?$allocator@V?$basic_string@DU?$char_traits@D@std@@V?$allocator@D@2@@std@@@std@@QAEXQAV?$basic_string@DU?$char_traits@D@std@@V?$allocator@D@2@@2@I@Z 1007a470 f i cGlumShape_Console.obj
 0002:000484e0       ?end@?$basic_string@DU?$char_traits@D@std@@V?$allocator@D@2@@std@@QAE?AV?$_String_iterator@V?$_String_val@U?$_Simple_types@D@std@@@std@@@2@XZ 1007a4e0 f i cGlumShape_Console.obj
 0002:000485c0       ?end@?$vector@V?$basic_string@DU?$char_traits@D@std@@V?$allocator@D@2@@std@@V?$allocator@V?$basic_string@DU?$char_traits@D@std@@V?$allocator@D@2@@std@@@2@@std@@QAE?AV?$_Vector_iterator@V?$_Vector_val@U?$_Simple_types@V?$basic_string@DU?$char_traits@D@std@@V?$allocator@D@2@@std@@@std@@@std@@@2@XZ 1007a5c0 f i cGlumShape_Console.obj
 0002:00048680       ?find@?$_Tree@V?$_Tmap_traits@DIU?$less@D@std@@V?$allocator@U?$pair@$$CBDI@std@@@2@$0A@@std@@@std@@QAE?AV?$_Tree_iterator@V?$_Tree_val@U?$_Tree_simple_types@U?$pair@$$CBDI@std@@@std@@@std@@@2@ABD@Z 1007a680 f i cGlumShape_Console.obj
 0002:00048940       ?lower_bound@?$_Tree@V?$_Tmap_traits@DIU?$less@D@std@@V?$allocator@U?$pair@$$CBDI@std@@@2@$0A@@std@@@std@@QAE?AV?$_Tree_iterator@V?$_Tree_val@U?$_Tree_simple_types@U?$pair@$$CBDI@std@@@std@@@std@@@2@ABD@Z 1007a940 f i cGlumShape_Console.obj
 0002:000489f0       ?max_size@?$_Default_allocator_traits@V?$allocator@D@std@@@std@@SAIABV?$allocator@D@2@@Z 1007a9f0 f i cGlumShape_Console.obj
 0002:00048a80       ?max_size@?$_Default_allocator_traits@V?$allocator@U?$_Tree_node@U?$pair@$$CBDI@std@@PAX@std@@@std@@@std@@SAIABV?$allocator@U?$_Tree_node@U?$pair@$$CBDI@std@@PAX@std@@@2@@Z 1007aa80 f i cGlumShape_Console.obj
 0002:00048b10       ?max_size@?$_Default_allocator_traits@V?$allocator@V?$basic_string@DU?$char_traits@D@std@@V?$allocator@D@2@@std@@@std@@@std@@SAIABV?$allocator@V?$basic_string@DU?$char_traits@D@std@@V?$allocator@D@2@@std@@@2@@Z 1007ab10 f i cGlumShape_Console.obj
 0002:00048ba0       ?max_size@?$_Tree@V?$_Tmap_traits@DIU?$less@D@std@@V?$allocator@U?$pair@$$CBDI@std@@@2@$0A@@std@@@std@@QBEIXZ 1007aba0 f i cGlumShape_Console.obj
 0002:00048c40       ?max_size@?$basic_string@DU?$char_traits@D@std@@V?$allocator@D@2@@std@@QBEIXZ 1007ac40 f i cGlumShape_Console.obj
 0002:00048d90       ?max_size@?$vector@V?$basic_string@DU?$char_traits@D@std@@V?$allocator@D@2@@std@@V?$allocator@V?$basic_string@DU?$char_traits@D@std@@V?$allocator@D@2@@std@@@2@@std@@QBEIXZ 1007ad90 f i cGlumShape_Console.obj
 0002:00048e60       ?move@?$char_traits@D@std@@SAPADQADQBDI@Z 1007ae60 f i cGlumShape_Console.obj
 0002:00048f00       ?pointer_to@?$pointer_traits@PAU?$pair@$$CBDI@std@@@std@@SAPAU?$pair@$$CBDI@2@AAU32@@Z 1007af00 f i cGlumShape_Console.obj
 0002:00048f60       ?reserve@?$vector@V?$basic_string@DU?$char_traits@D@std@@V?$allocator@D@2@@std@@V?$allocator@V?$basic_string@DU?$char_traits@D@std@@V?$allocator@D@2@@std@@@2@@std@@QAEXI@Z 1007af60 f i cGlumShape_Console.obj
 0002:00048ff0       ?select_on_container_copy_construction@?$_Default_allocator_traits@V?$allocator@D@std@@@std@@SA?AV?$allocator@D@2@ABV32@@Z 1007aff0 f i cGlumShape_Console.obj
 0002:00049040       ?size@?$_Tree@V?$_Tmap_traits@DIU?$less@D@std@@V?$allocator@U?$pair@$$CBDI@std@@@2@$0A@@std@@@std@@QBEIXZ 1007b040 f i cGlumShape_Console.obj
 0002:000490e0       ?size@?$vector@V?$basic_string@DU?$char_traits@D@std@@V?$allocator@D@2@@std@@V?$allocator@V?$basic_string@DU?$char_traits@D@std@@V?$allocator@D@2@@std@@@2@@std@@QBEIXZ 1007b0e0 f i cGlumShape_Console.obj
 0002:00049190       ??$_Adl_verify_range1@V?$_Vector_iterator@V?$_Vector_val@U?$_Simple_types@PAVcObjectBase@Glumer@@@std@@@std@@@std@@V12@@std@@YAXABV?$_Vector_iterator@V?$_Vector_val@U?$_Simple_types@PAVcObjectBase@Glumer@@@std@@@std@@@0@0U?$integral_constant@_N$00@0@@Z 1007b190 f i cSelectableBase.obj
 0002:000491f0       ??$_Adl_verify_range@V?$_Vector_iterator@V?$_Vector_val@U?$_Simple_types@PAVcObjectBase@Glumer@@@std@@@std@@@std@@V12@@std@@YAXABV?$_Vector_iterator@V?$_Vector_val@U?$_Simple_types@PAVcObjectBase@Glumer@@@std@@@std@@@0@0@Z 1007b1f0 f i cSelectableBase.obj
 0002:00049270       ??$_Get_unwrapped@V?$_Vector_iterator@V?$_Vector_val@U?$_Simple_types@PAVcObjectBase@Glumer@@@std@@@std@@@std@@$0A@@std@@YA@ABV?$_Vector_iterator@V?$_Vector_val@U?$_Simple_types@PAVcObjectBase@Glumer@@@std@@@std@@@0@@Z 1007b270 f i cSelectableBase.obj
 0002:000492d0       ??$for_each@V?$_Vector_iterator@V?$_Vector_val@U?$_Simple_types@PAVcObjectBase@Glumer@@@std@@@std@@@std@@P6AXPAVcObjectBase@Glumer@@@Z@std@@YAP6AXPAVcObjectBase@Glumer@@@ZV?$_Vector_iterator@V?$_Vector_val@U?$_Simple_types@PAVcObjectBase@Glumer@@@std@@@std@@@0@1P6AX0@Z@Z 1007b2d0 f i cSelectableBase.obj
 0002:00049400       ??0?$_Vector_const_iterator@V?$_Vector_val@U?$_Simple_types@I@std@@@std@@@std@@QAE@XZ 1007b400 f i cSelectableBase.obj
 0002:00049470       ??0?$_Vector_const_iterator@V?$_Vector_val@U?$_Simple_types@PAVcObjectBase@Glumer@@@std@@@std@@@std@@QAE@$$QAV01@@Z 1007b470 f i cSelectableBase.obj
 0002:000494e0       ??0?$_Vector_const_iterator@V?$_Vector_val@U?$_Simple_types@PAVcObjectBase@Glumer@@@std@@@std@@@std@@QAE@ABV01@@Z 1007b4e0 f i cSelectableBase.obj
 0002:00049550       ??0?$_Vector_const_iterator@V?$_Vector_val@U?$_Simple_types@PAVcObjectBase@Glumer@@@std@@@std@@@std@@QAE@PAPAVcObjectBase@Glumer@@PBU_Container_base12@1@@Z 1007b550 f i cSelectableBase.obj
 0002:000495d0       ??0?$_Vector_iterator@V?$_Vector_val@U?$_Simple_types@I@std@@@std@@@std@@QAE@XZ 1007b5d0 f i cSelectableBase.obj
 0002:00049630       ??0?$_Vector_iterator@V?$_Vector_val@U?$_Simple_types@PAVcObjectBase@Glumer@@@std@@@std@@@std@@QAE@$$QAV01@@Z 1007b630 f i cSelectableBase.obj
 0002:00049690       ??0?$_Vector_iterator@V?$_Vector_val@U?$_Simple_types@PAVcObjectBase@Glumer@@@std@@@std@@@std@@QAE@ABV01@@Z 1007b690 f i cSelectableBase.obj
 0002:000496f0       ??0?$_Vector_iterator@V?$_Vector_val@U?$_Simple_types@PAVcObjectBase@Glumer@@@std@@@std@@@std@@QAE@PAPAVcObjectBase@Glumer@@PBU_Container_base12@1@@Z 1007b6f0 f i cSelectableBase.obj
 0002:00049760       ??0cSelectableBase@Glumer@@QAE@I@Z 1007b760 f   cSelectableBase.obj
 0002:000497e0       ??1?$_Vector_const_iterator@V?$_Vector_val@U?$_Simple_types@PAVcObjectBase@Glumer@@@std@@@std@@@std@@QAE@XZ 1007b7e0 f i cSelectableBase.obj
 0002:00049830       ??1?$_Vector_iterator@V?$_Vector_val@U?$_Simple_types@PAVcObjectBase@Glumer@@@std@@@std@@@std@@QAE@XZ 1007b830 f i cSelectableBase.obj
 0002:00049880       ??4?$_Vector_const_iterator@V?$_Vector_val@U?$_Simple_types@I@std@@@std@@@std@@QAEAAV01@$$QAV01@@Z 1007b880 f i cSelectableBase.obj
 0002:000498f0       ??4?$_Vector_iterator@V?$_Vector_val@U?$_Simple_types@I@std@@@std@@@std@@QAEAAV01@$$QAV01@@Z 1007b8f0 f i cSelectableBase.obj
 0002:00049950       ??D?$_Vector_const_iterator@V?$_Vector_val@U?$_Simple_types@PAVcObjectBase@Glumer@@@std@@@std@@@std@@QBEABQAVcObjectBase@Glumer@@XZ 1007b950 f i cSelectableBase.obj
 0002:00049ad0       ??D?$_Vector_iterator@V?$_Vector_val@U?$_Simple_types@PAVcObjectBase@Glumer@@@std@@@std@@@std@@QBEAAPAVcObjectBase@Glumer@@XZ 1007bad0 f i cSelectableBase.obj
 0002:00049b30       ??E?$_Vector_const_iterator@V?$_Vector_val@U?$_Simple_types@PAVcObjectBase@Glumer@@@std@@@std@@@std@@QAEAAV01@XZ 1007bb30 f i cSelectableBase.obj
 0002:00049cb0       ??E?$_Vector_iterator@V?$_Vector_val@U?$_Simple_types@PAVcObjectBase@Glumer@@@std@@@std@@@std@@QAE?AV01@H@Z 1007bcb0 f i cSelectableBase.obj
 0002:00049de0       ??E?$_Vector_iterator@V?$_Vector_val@U?$_Simple_types@PAVcObjectBase@Glumer@@@std@@@std@@@std@@QAEAAV01@XZ 1007bde0 f i cSelectableBase.obj
 0002:00049e40       ?DrawSelectionArea@cSelectableBase@Glumer@@QAEXXZ 1007be40 f i cSelectableBase.obj
 0002:00049ee0       ?EventClick@cSelectableBase@Glumer@@SA_NPAVcMutexWrapper@TimerWrapper@@AAV?$vector@PAVcObjectBase@Glumer@@V?$allocator@PAVcObjectBase@Glumer@@@std@@@std@@AAV?$vector@IV?$allocator@I@std@@@6@IIH@Z 1007bee0 f   cSelectableBase.obj
 0002:0004a670       ?FireEventShow@cSelectableBase@Glumer@@SAXPAVcObjectBase@2@@Z 1007c670 f i cSelectableBase.obj
 0002:0004a700       ?GetName@cSelectableBase@Glumer@@QBEIXZ 1007c700 f i cSelectableBase.obj
 0002:0004a760       ?_Unwrapped@?$_Vector_iterator@V?$_Vector_val@U?$_Simple_types@PAVcObjectBase@Glumer@@@std@@@std@@@std@@QBEPAPAVcObjectBase@Glumer@@XZ 1007c760 f i cSelectableBase.obj
 0002:0004a7c0       ?_Verify_range@std@@YAXABV?$_Vector_const_iterator@V?$_Vector_val@U?$_Simple_types@PAVcObjectBase@Glumer@@@std@@@std@@@1@0@Z 1007c7c0 f i cSelectableBase.obj
 0002:0004a930       ?begin@?$vector@PAVcObjectBase@Glumer@@V?$allocator@PAVcObjectBase@Glumer@@@std@@@std@@QAE?AV?$_Vector_iterator@V?$_Vector_val@U?$_Simple_types@PAVcObjectBase@Glumer@@@std@@@std@@@2@XZ 1007c930 f i cSelectableBase.obj
 0002:0004a9f0       ?end@?$vector@PAVcObjectBase@Glumer@@V?$allocator@PAVcObjectBase@Glumer@@@std@@@std@@QAE?AV?$_Vector_iterator@V?$_Vector_val@U?$_Simple_types@PAVcObjectBase@Glumer@@@std@@@std@@@2@XZ 1007c9f0 f i cSelectableBase.obj
 0002:0004aab0       ?EventTimer@cTimer_RockMotion@Glumer@@UAEXXZ 1007cab0 f   cTimer_RockMotion.obj
 0002:0004ab70       ?FactoryGetOrientation@cGlumShapeBase@Glumer@@QAEAAVcGluperOrientation@2@XZ 1007cb70 f i cTimer_RockMotion.obj
 0002:0004abd0       ?GetDirection@cGlumShapeBase@Glumer@@QBEABVcGluperDirection@2@XZ 1007cbd0 f i cTimer_RockMotion.obj
 0002:0004ac70       ?GetOrientation@cGlumShapeBase@Glumer@@QBEABVcGluperOrientation@2@XZ 1007cc70 f i cTimer_RockMotion.obj
 0002:0004ad10       ?NormaliseDirection@cGlumShapeBase@Glumer@@SAXXZ 1007cd10 f i cTimer_RockMotion.obj
 0002:0004ad60       ?NormaliseOrientation@cGlumShapeBase@Glumer@@QAEXXZ 1007cd60 f i cTimer_RockMotion.obj
 0002:0004af80       ?NormaliseValue@cGlumShapeBase@Glumer@@SA_NMAAM@Z 1007cf80 f i cTimer_RockMotion.obj
 0002:0004b030       _glPerspectiveProxy@16     1007d030 f   Glu.obj
 0002:0004b0d0       _glhFrustumf2@28           1007d0d0 f   Glu.obj
 0002:0004b350       _glhPerspectivef2@20       1007d350 f   Glu.obj
 0002:0004b470       _gluLookAtProxy@36         1007d470 f   Glu.obj
 0002:0004b560       _tanf                      1007d560 f i Glu.obj
 0002:0004b5e0       ??$?0$$V@?$_Compressed_pair@V?$allocator@D@std@@V?$_String_val@U?$_Simple_types@D@std@@@2@$00@std@@QAE@U_Zero_then_variadic_args_t@1@@Z 1007d5e0 f i Glumer.obj
 0002:0004b650       ??$?0ABV?$allocator@D@std@@$$V@?$_Compressed_pair@V?$allocator@D@std@@V?$_String_val@U?$_Simple_types@D@std@@@2@$00@std@@QAE@U_One_then_variadic_args_t@1@ABV?$allocator@D@1@@Z 1007d650 f i Glumer.obj
 0002:0004b6c0       ??$?0ABV?$allocator@D@std@@X@?$_String_alloc@U?$_String_base_types@DV?$allocator@D@std@@@std@@@std@@QAE@ABV?$allocator@D@1@@Z 1007d6c0 f i Glumer.obj
 0002:0004b790       ??$_Adl_verify_range1@V?$_Vector_iterator@V?$_Vector_val@U?$_Simple_types@I@std@@@std@@@std@@V12@@std@@YAXABV?$_Vector_iterator@V?$_Vector_val@U?$_Simple_types@I@std@@@std@@@0@0U?$integral_constant@_N$00@0@@Z 1007d790 f i Glumer.obj
 0002:0004b7f0       ??$_Adl_verify_range1@V?$_Vector_iterator@V?$_Vector_val@U?$_Simple_types@UPTR@cGlumShape_Console@Glumer@@@std@@@std@@@std@@V12@@std@@YAXABV?$_Vector_iterator@V?$_Vector_val@U?$_Simple_types@UPTR@cGlumShape_Console@Glumer@@@std@@@std@@@0@0U?$integral_constant@_N$00@0@@Z 1007d7f0 f i Glumer.obj
 0002:0004b850       ??$_Adl_verify_range1@V?$_Vector_iterator@V?$_Vector_val@U?$_Simple_types@UPTR@cGlumShape_RegularPolyhedron@Glumer@@@std@@@std@@@std@@V12@@std@@YAXABV?$_Vector_iterator@V?$_Vector_val@U?$_Simple_types@UPTR@cGlumShape_RegularPolyhedron@Glumer@@@std@@@std@@@0@0U?$integral_constant@_N$00@0@@Z 1007d850 f i Glumer.obj
 0002:0004b8b0       ??$_Adl_verify_range@V?$_Vector_iterator@V?$_Vector_val@U?$_Simple_types@I@std@@@std@@@std@@V12@@std@@YAXABV?$_Vector_iterator@V?$_Vector_val@U?$_Simple_types@I@std@@@std@@@0@0@Z 1007d8b0 f i Glumer.obj
 0002:0004b930       ??$_Adl_verify_range@V?$_Vector_iterator@V?$_Vector_val@U?$_Simple_types@UPTR@cGlumShape_Console@Glumer@@@std@@@std@@@std@@V12@@std@@YAXABV?$_Vector_iterator@V?$_Vector_val@U?$_Simple_types@UPTR@cGlumShape_Console@Glumer@@@std@@@std@@@0@0@Z 1007d930 f i Glumer.obj
 0002:0004b9b0       ??$_Adl_verify_range@V?$_Vector_iterator@V?$_Vector_val@U?$_Simple_types@UPTR@cGlumShape_RegularPolyhedron@Glumer@@@std@@@std@@@std@@V12@@std@@YAXABV?$_Vector_iterator@V?$_Vector_val@U?$_Simple_types@UPTR@cGlumShape_RegularPolyhedron@Glumer@@@std@@@std@@@0@0@Z 1007d9b0 f i Glumer.obj
 0002:0004ba30       ??$_Const_cast@$$CBI@std@@YA@PBI@Z 1007da30 f i Glumer.obj
 0002:0004ba80       ??$_Const_cast@$$CBUPTR@cObjectMoveableBase@Glumer@@@std@@YA@PBUPTR@cObjectMoveableBase@Glumer@@@Z 1007da80 f i Glumer.obj
 0002:0004bad0       ??$_Const_cast@$$CBV?$basic_string@DU?$char_traits@D@std@@V?$allocator@D@2@@std@@@std@@YA@PBV?$basic_string@DU?$char_traits@D@std@@V?$allocator@D@2@@0@@Z 1007dad0 f i Glumer.obj
 0002:0004bb20       ??$_Copy_backward_memmove@PAUPTR@cGlumShape_Console@Glumer@@PAU123@@std@@YAPAUPTR@cGlumShape_Console@Glumer@@PAU123@00@Z 1007db20 f i Glumer.obj
 0002:0004bbb0       ??$_Copy_backward_memmove@PAUPTR@cGlumShape_RegularPolyhedron@Glumer@@PAU123@@std@@YAPAUPTR@cGlumShape_RegularPolyhedron@Glumer@@PAU123@00@Z 1007dbb0 f i Glumer.obj
 0002:0004bc40       ??$_Emplace_back@$$V@?$_Uninitialized_backout_al@PAV?$basic_string@DU?$char_traits@D@std@@V?$allocator@D@2@@std@@V?$allocator@V?$basic_string@DU?$char_traits@D@std@@V?$allocator@D@2@@std@@@2@@std@@QAEXXZ 1007dc40 f i Glumer.obj
 0002:0004bcd0       ??$_Emplace_back_with_unused_capacity@AAUPTR@cGlumShape_Console@Glumer@@@?$vector@UPTR@cGlumShape_Console@Glumer@@V?$allocator@UPTR@cGlumShape_Console@Glumer@@@std@@@std@@AAE@AAUPTR@cGlumShape_Console@Glumer@@@Z 1007dcd0 f i Glumer.obj
 0002:0004bdd0       ??$_Emplace_back_with_unused_capacity@AAUPTR@cGlumShape_RegularPolyhedron@Glumer@@@?$vector@UPTR@cGlumShape_RegularPolyhedron@Glumer@@V?$allocator@UPTR@cGlumShape_RegularPolyhedron@Glumer@@@std@@@std@@AAE@AAUPTR@cGlumShape_RegularPolyhedron@Glumer@@@Z 1007ddd0 f i Glumer.obj
 0002:0004bed0       ??$_Emplace_back_with_unused_capacity@ABV?$basic_string@DU?$char_traits@D@std@@V?$allocator@D@2@@std@@@?$vector@V?$basic_string@DU?$char_traits@D@std@@V?$allocator@D@2@@std@@V?$allocator@V?$basic_string@DU?$char_traits@D@std@@V?$allocator@D@2@@std@@@2@@std@@AAE@ABV?$basic_string@DU?$char_traits@D@std@@V?$allocator@D@2@@1@@Z 1007ded0 f i Glumer.obj
 0002:0004bfd0       ??$_Emplace_reallocate@AAUPTR@cGlumShape_Console@Glumer@@@?$vector@UPTR@cGlumShape_Console@Glumer@@V?$allocator@UPTR@cGlumShape_Console@Glumer@@@std@@@std@@QAEPAUPTR@cGlumShape_Console@Glumer@@QAU234@AAU234@@Z 1007dfd0 f i Glumer.obj
 0002:0004c260       ??$_Emplace_reallocate@AAUPTR@cGlumShape_RegularPolyhedron@Glumer@@@?$vector@UPTR@cGlumShape_RegularPolyhedron@Glumer@@V?$allocator@UPTR@cGlumShape_RegularPolyhedron@Glumer@@@std@@@std@@QAEPAUPTR@cGlumShape_RegularPolyhedron@Glumer@@QAU234@AAU234@@Z 1007e260 f i Glumer.obj
 0002:0004c4f0       ??$_Emplace_reallocate@ABV?$basic_string@DU?$char_traits@D@std@@V?$allocator@D@2@@std@@@?$vector@V?$basic_string@DU?$char_traits@D@std@@V?$allocator@D@2@@std@@V?$allocator@V?$basic_string@DU?$char_traits@D@std@@V?$allocator@D@2@@std@@@2@@std@@QAEPAV?$basic_string@DU?$char_traits@D@std@@V?$allocator@D@2@@1@QAV21@ABV21@@Z 1007e4f0 f i Glumer.obj
 0002:0004c790       ??$_Find_unchecked1@PAII@std@@YAPAIPAIQAIABIU?$integral_constant@_N$0A@@0@@Z 1007e790 f i Glumer.obj
 0002:0004c810       ??$_Find_unchecked1@PAUPTR@cGlumShape_Console@Glumer@@I@std@@YAPAUPTR@cGlumShape_Console@Glumer@@PAU123@QAU123@ABIU?$integral_constant@_N$0A@@0@@Z 1007e810 f i Glumer.obj
 0002:0004c8a0       ??$_Find_unchecked1@PAUPTR@cGlumShape_RegularPolyhedron@Glumer@@I@std@@YAPAUPTR@cGlumShape_RegularPolyhedron@Glumer@@PAU123@QAU123@ABIU?$integral_constant@_N$0A@@0@@Z 1007e8a0 f i Glumer.obj
 0002:0004c930       ??$_Find_unchecked@PAII@std@@YAPAIQAI0ABI@Z 1007e930 f i Glumer.obj
 0002:0004c9b0       ??$_Find_unchecked@PAUPTR@cGlumShape_Console@Glumer@@I@std@@YAPAUPTR@cGlumShape_Console@Glumer@@QAU123@0ABI@Z 1007e9b0 f i Glumer.obj
 0002:0004ca30       ??$_Find_unchecked@PAUPTR@cGlumShape_RegularPolyhedron@Glumer@@I@std@@YAPAUPTR@cGlumShape_RegularPolyhedron@Glumer@@QAU123@0ABI@Z 1007ea30 f i Glumer.obj
 0002:0004cab0       ??$_Get_unwrapped@V?$_Vector_iterator@V?$_Vector_val@U?$_Simple_types@I@std@@@std@@@std@@$0A@@std@@YA@ABV?$_Vector_iterator@V?$_Vector_val@U?$_Simple_types@I@std@@@std@@@0@@Z 1007eab0 f i Glumer.obj
 0002:0004cb10       ??$_Get_unwrapped@V?$_Vector_iterator@V?$_Vector_val@U?$_Simple_types@UPTR@cGlumShape_Console@Glumer@@@std@@@std@@@std@@$0A@@std@@YA@ABV?$_Vector_iterator@V?$_Vector_val@U?$_Simple_types@UPTR@cGlumShape_Console@Glumer@@@std@@@std@@@0@@Z 1007eb10 f i Glumer.obj
 0002:0004cb70       ??$_Get_unwrapped@V?$_Vector_iterator@V?$_Vector_val@U?$_Simple_types@UPTR@cGlumShape_RegularPolyhedron@Glumer@@@std@@@std@@@std@@$0A@@std@@YA@ABV?$_Vector_iterator@V?$_Vector_val@U?$_Simple_types@UPTR@cGlumShape_RegularPolyhedron@Glumer@@@std@@@std@@@0@@Z 1007eb70 f i Glumer.obj
 0002:0004cbd0       ??$_Get_unwrapped_n@V?$_Vector_iterator@V?$_Vector_val@U?$_Simple_types@V?$basic_string@DU?$char_traits@D@std@@V?$allocator@D@2@@std@@@std@@@std@@@std@@H$0A@@std@@YA@ABV?$_Vector_iterator@V?$_Vector_val@U?$_Simple_types@V?$basic_string@DU?$char_traits@D@std@@V?$allocator@D@2@@std@@@std@@@std@@@0@H@Z 1007ebd0 f i Glumer.obj
 0002:0004cce0       ??$_Idl_distance1@V?$_Vector_iterator@V?$_Vector_val@U?$_Simple_types@V?$basic_string@DU?$char_traits@D@std@@V?$allocator@D@2@@std@@@std@@@std@@@std@@PAV?$basic_string@DU?$char_traits@D@std@@V?$allocator@D@2@@2@@std@@YAHABQAV?$basic_string@DU?$char_traits@D@std@@V?$allocator@D@2@@0@0Urandom_access_iterator_tag@0@@Z 1007ece0 f i Glumer.obj
 0002:0004cd50       ??$_Idl_distance@V?$_Vector_iterator@V?$_Vector_val@U?$_Simple_types@V?$basic_string@DU?$char_traits@D@std@@V?$allocator@D@2@@std@@@std@@@std@@@std@@PAV?$basic_string@DU?$char_traits@D@std@@V?$allocator@D@2@@2@@std@@YA@ABQAV?$basic_string@DU?$char_traits@D@std@@V?$allocator@D@2@@0@0@Z 1007ed50 f i Glumer.obj
 0002:0004cdc0       ??$_Move_backward_unchecked1@PAUPTR@cGlumShape_Console@Glumer@@PAU123@@std@@YAPAUPTR@cGlumShape_Console@Glumer@@PAU123@00U_Trivially_copyable_ptr_iterator_tag@0@@Z 1007edc0 f i Glumer.obj
 0002:0004ce30       ??$_Move_backward_unchecked1@PAUPTR@cGlumShape_RegularPolyhedron@Glumer@@PAU123@@std@@YAPAUPTR@cGlumShape_RegularPolyhedron@Glumer@@PAU123@00U_Trivially_copyable_ptr_iterator_tag@0@@Z 1007ee30 f i Glumer.obj
 0002:0004cea0       ??$_Move_backward_unchecked@PAUPTR@cGlumShape_Console@Glumer@@PAU123@@std@@YAPAUPTR@cGlumShape_Console@Glumer@@PAU123@00@Z 1007eea0 f i Glumer.obj
 0002:0004cf30       ??$_Move_backward_unchecked@PAUPTR@cGlumShape_RegularPolyhedron@Glumer@@PAU123@@std@@YAPAUPTR@cGlumShape_RegularPolyhedron@Glumer@@PAU123@00@Z 1007ef30 f i Glumer.obj
 0002:0004cfc0       ??$_Move_unchecked1@PAUPTR@cObjectMoveableBase@Glumer@@PAU123@@std@@YAPAUPTR@cObjectMoveableBase@Glumer@@PAU123@00U_Trivially_copyable_ptr_iterator_tag@0@@Z 1007efc0 f i Glumer.obj
 0002:0004d030       ??$_Move_unchecked@PAUPTR@cObjectMoveableBase@Glumer@@PAU123@@std@@YAPAUPTR@cObjectMoveableBase@Glumer@@PAU123@00@Z 1007f030 f i Glumer.obj
 0002:0004d510       ??$_Seek_wrapped@V?$_Vector_iterator@V?$_Vector_val@U?$_Simple_types@I@std@@@std@@@std@@PAI$0A@@std@@YAXAAV?$_Vector_iterator@V?$_Vector_val@U?$_Simple_types@I@std@@@std@@@0@ABQAI@Z 1007f510 f i Glumer.obj
 0002:0004d570       ??$_Seek_wrapped@V?$_Vector_iterator@V?$_Vector_val@U?$_Simple_types@UPTR@cGlumShape_Console@Glumer@@@std@@@std@@@std@@PAUPTR@cGlumShape_Console@Glumer@@$0A@@std@@YAXAAV?$_Vector_iterator@V?$_Vector_val@U?$_Simple_types@UPTR@cGlumShape_Console@Glumer@@@std@@@std@@@0@ABQAUPTR@cGlumShape_Console@Glumer@@@Z 1007f570 f i Glumer.obj
 0002:0004d5d0       ??$_Seek_wrapped@V?$_Vector_iterator@V?$_Vector_val@U?$_Simple_types@UPTR@cGlumShape_RegularPolyhedron@Glumer@@@std@@@std@@@std@@PAUPTR@cGlumShape_RegularPolyhedron@Glumer@@$0A@@std@@YAXAAV?$_Vector_iterator@V?$_Vector_val@U?$_Simple_types@UPTR@cGlumShape_RegularPolyhedron@Glumer@@@std@@@std@@@0@ABQAUPTR@cGlumShape_RegularPolyhedron@Glumer@@@Z 1007f5d0 f i Glumer.obj
 0002:0004d630       ??$_Seek_wrapped@V?$_Vector_iterator@V?$_Vector_val@U?$_Simple_types@V?$basic_string@DU?$char_traits@D@std@@V?$allocator@D@2@@std@@@std@@@std@@@std@@PAV?$basic_string@DU?$char_traits@D@std@@V?$allocator@D@2@@2@$0A@@std@@YAXAAV?$_Vector_iterator@V?$_Vector_val@U?$_Simple_types@V?$basic_string@DU?$char_traits@D@std@@V?$allocator@D@2@@std@@@std@@@std@@@0@ABQAV?$basic_string@DU?$char_traits@D@std@@V?$allocator@D@2@@0@@Z 1007f630 f i Glumer.obj
 0002:0004d690       ??$_Traits_find@U?$char_traits@D@std@@@std@@YAIQBDII0I@Z 1007f690 f i Glumer.obj
 0002:0004d7d0       ??$_Uninitialized_value_construct_n1@PAV?$basic_string@DU?$char_traits@D@std@@V?$allocator@D@2@@std@@IV?$allocator@V?$basic_string@DU?$char_traits@D@std@@V?$allocator@D@2@@std@@@2@@std@@YAPAV?$basic_string@DU?$char_traits@D@std@@V?$allocator@D@2@@0@QAV10@IAAV?$allocator@V?$basic_string@DU?$char_traits@D@std@@V?$allocator@D@2@@std@@@0@U?$integral_constant@_N$0A@@0@@Z 1007f7d0 f i Glumer.obj
 0002:0004d900       ??$_Uninitialized_value_construct_n@PAV?$basic_string@DU?$char_traits@D@std@@V?$allocator@D@2@@std@@IV?$allocator@V?$basic_string@DU?$char_traits@D@std@@V?$allocator@D@2@@std@@@2@@std@@YAPAV?$basic_string@DU?$char_traits@D@std@@V?$allocator@D@2@@0@PAV10@IAAV?$allocator@V?$basic_string@DU?$char_traits@D@std@@V?$allocator@D@2@@std@@@0@@Z 1007f900 f i Glumer.obj
 0002:0004d980       ??$bind1st@VMessageCodeFound@cGlumShape_Console@Glumer@@V?$basic_string@DU?$char_traits@D@std@@V?$allocator@D@2@@std@@@std@@YA?AV?$binder1st@VMessageCodeFound@cGlumShape_Console@Glumer@@@0@ABVMessageCodeFound@cGlumShape_Console@Glumer@@ABV?$basic_string@DU?$char_traits@D@std@@V?$allocator@D@2@@0@@Z 1007f980 f i Glumer.obj
 0002:0004dab0       ??$construct@UPTR@cGlumShape_Console@Glumer@@AAU123@@?$_Default_allocator_traits@V?$allocator@UPTR@cGlumShape_Console@Glumer@@@std@@@std@@SAXAAV?$allocator@UPTR@cGlumShape_Console@Glumer@@@1@QAUPTR@cGlumShape_Console@Glumer@@AAU345@@Z 1007fab0 f i Glumer.obj
 0002:0004db30       ??$construct@UPTR@cGlumShape_Console@Glumer@@U123@@?$_Default_allocator_traits@V?$allocator@UPTR@cGlumShape_Console@Glumer@@@std@@@std@@SAXAAV?$allocator@UPTR@cGlumShape_Console@Glumer@@@1@QAUPTR@cGlumShape_Console@Glumer@@$$QAU345@@Z 1007fb30 f i Glumer.obj
 0002:0004dbb0       ??$construct@UPTR@cGlumShape_RegularPolyhedron@Glumer@@AAU123@@?$_Default_allocator_traits@V?$allocator@UPTR@cGlumShape_RegularPolyhedron@Glumer@@@std@@@std@@SAXAAV?$allocator@UPTR@cGlumShape_RegularPolyhedron@Glumer@@@1@QAUPTR@cGlumShape_RegularPolyhedron@Glumer@@AAU345@@Z 1007fbb0 f i Glumer.obj
 0002:0004dc30       ??$construct@UPTR@cGlumShape_RegularPolyhedron@Glumer@@U123@@?$_Default_allocator_traits@V?$allocator@UPTR@cGlumShape_RegularPolyhedron@Glumer@@@std@@@std@@SAXAAV?$allocator@UPTR@cGlumShape_RegularPolyhedron@Glumer@@@1@QAUPTR@cGlumShape_RegularPolyhedron@Glumer@@$$QAU345@@Z 1007fc30 f i Glumer.obj
 0002:0004dcb0       ??$construct@V?$basic_string@DU?$char_traits@D@std@@V?$allocator@D@2@@std@@$$V@?$_Default_allocator_traits@V?$allocator@V?$basic_string@DU?$char_traits@D@std@@V?$allocator@D@2@@std@@@std@@@std@@SAXAAV?$allocator@V?$basic_string@DU?$char_traits@D@std@@V?$allocator@D@2@@std@@@1@QAV?$basic_string@DU?$char_traits@D@std@@V?$allocator@D@2@@1@@Z 1007fcb0 f i Glumer.obj
 0002:0004dd30       ??$construct@V?$basic_string@DU?$char_traits@D@std@@V?$allocator@D@2@@std@@ABV12@@?$_Default_allocator_traits@V?$allocator@V?$basic_string@DU?$char_traits@D@std@@V?$allocator@D@2@@std@@@std@@@std@@SAXAAV?$allocator@V?$basic_string@DU?$char_traits@D@std@@V?$allocator@D@2@@std@@@1@QAV?$basic_string@DU?$char_traits@D@std@@V?$allocator@D@2@@1@ABV31@@Z 1007fd30 f i Glumer.obj
 0002:0004ddc0       ??$copy@V?$_Vector_iterator@V?$_Vector_val@U?$_Simple_types@V?$basic_string@DU?$char_traits@D@std@@V?$allocator@D@2@@std@@@std@@@std@@@std@@V12@@std@@YA?AV?$_Vector_iterator@V?$_Vector_val@U?$_Simple_types@V?$basic_string@DU?$char_traits@D@std@@V?$allocator@D@2@@std@@@std@@@std@@@0@V10@00@Z 1007fdc0 f i Glumer.obj
 0002:0004dfa0       ??$destroy@I@?$_Default_allocator_traits@V?$allocator@I@std@@@std@@SAXAAV?$allocator@I@1@QAI@Z 1007ffa0 f i Glumer.obj
 0002:0004dff0       ??$destroy@PAVcObjectBase@Glumer@@@?$_Default_allocator_traits@V?$allocator@PAVcObjectBase@Glumer@@@std@@@std@@SAXAAV?$allocator@PAVcObjectBase@Glumer@@@1@QAPAVcObjectBase@Glumer@@@Z 1007fff0 f i Glumer.obj
 0002:0004e040       ??$destroy@UPTR@cGlumShape_Console@Glumer@@@?$_Default_allocator_traits@V?$allocator@UPTR@cGlumShape_Console@Glumer@@@std@@@std@@SAXAAV?$allocator@UPTR@cGlumShape_Console@Glumer@@@1@QAUPTR@cGlumShape_Console@Glumer@@@Z 10080040 f i Glumer.obj
 0002:0004e090       ??$destroy@UPTR@cGlumShape_RegularPolyhedron@Glumer@@@?$_Default_allocator_traits@V?$allocator@UPTR@cGlumShape_RegularPolyhedron@Glumer@@@std@@@std@@SAXAAV?$allocator@UPTR@cGlumShape_RegularPolyhedron@Glumer@@@1@QAUPTR@cGlumShape_RegularPolyhedron@Glumer@@@Z 10080090 f i Glumer.obj
 0002:0004e0e0       ??$destroy@UPTR@cObjectMoveableBase@Glumer@@@?$_Default_allocator_traits@V?$allocator@UPTR@cObjectMoveableBase@Glumer@@@std@@@std@@SAXAAV?$allocator@UPTR@cObjectMoveableBase@Glumer@@@1@QAUPTR@cObjectMoveableBase@Glumer@@@Z 100800e0 f i Glumer.obj
 0002:0004e130       ??$emplace@AAUPTR@cGlumShape_Console@Glumer@@@?$vector@UPTR@cGlumShape_Console@Glumer@@V?$allocator@UPTR@cGlumShape_Console@Glumer@@@std@@@std@@QAE?AV?$_Vector_iterator@V?$_Vector_val@U?$_Simple_types@UPTR@cGlumShape_Console@Glumer@@@std@@@std@@@1@V?$_Vector_const_iterator@V?$_Vector_val@U?$_Simple_types@UPTR@cGlumShape_Console@Glumer@@@std@@@std@@@1@AAUPTR@cGlumShape_Console@Glumer@@@Z 10080130 f i Glumer.obj
 0002:0004e480       ??$emplace@AAUPTR@cGlumShape_RegularPolyhedron@Glumer@@@?$vector@UPTR@cGlumShape_RegularPolyhedron@Glumer@@V?$allocator@UPTR@cGlumShape_RegularPolyhedron@Glumer@@@std@@@std@@QAE?AV?$_Vector_iterator@V?$_Vector_val@U?$_Simple_types@UPTR@cGlumShape_RegularPolyhedron@Glumer@@@std@@@std@@@1@V?$_Vector_const_iterator@V?$_Vector_val@U?$_Simple_types@UPTR@cGlumShape_RegularPolyhedron@Glumer@@@std@@@std@@@1@AAUPTR@cGlumShape_RegularPolyhedron@Glumer@@@Z 10080480 f i Glumer.obj
 0002:0004e7d0       ??$emplace_back@ABV?$basic_string@DU?$char_traits@D@std@@V?$allocator@D@2@@std@@@?$vector@V?$basic_string@DU?$char_traits@D@std@@V?$allocator@D@2@@std@@V?$allocator@V?$basic_string@DU?$char_traits@D@std@@V?$allocator@D@2@@std@@@2@@std@@QAE@ABV?$basic_string@DU?$char_traits@D@std@@V?$allocator@D@2@@1@@Z 100807d0 f i Glumer.obj
 0002:0004e880       ??$erase@V?$_Tree_iterator@V?$_Tree_val@U?$_Tree_simple_types@U?$pair@$$CBIUPTR@cGlumShapeBase@Glumer@@@std@@@std@@@std@@@std@@X@?$_Tree@V?$_Tmap_traits@IUPTR@cGlumShapeBase@Glumer@@U?$less@I@std@@V?$allocator@U?$pair@$$CBIUPTR@cGlumShapeBase@Glumer@@@std@@@5@$0A@@std@@@std@@QAE?AV?$_Tree_iterator@V?$_Tree_val@U?$_Tree_simple_types@U?$pair@$$CBIUPTR@cGlumShapeBase@Glumer@@@std@@@std@@@std@@@1@V21@@Z 10080880 f i Glumer.obj
 0002:0004e980       ??$find@V?$_Vector_iterator@V?$_Vector_val@U?$_Simple_types@I@std@@@std@@@std@@I@std@@YA?AV?$_Vector_iterator@V?$_Vector_val@U?$_Simple_types@I@std@@@std@@@0@V10@V10@ABI@Z 10080980 f i Glumer.obj
 0002:0004eac0       ??$find@V?$_Vector_iterator@V?$_Vector_val@U?$_Simple_types@UPTR@cGlumShape_Console@Glumer@@@std@@@std@@@std@@I@std@@YA?AV?$_Vector_iterator@V?$_Vector_val@U?$_Simple_types@UPTR@cGlumShape_Console@Glumer@@@std@@@std@@@0@V10@V10@ABI@Z 10080ac0 f i Glumer.obj
 0002:0004ec00       ??$find@V?$_Vector_iterator@V?$_Vector_val@U?$_Simple_types@UPTR@cGlumShape_RegularPolyhedron@Glumer@@@std@@@std@@@std@@I@std@@YA?AV?$_Vector_iterator@V?$_Vector_val@U?$_Simple_types@UPTR@cGlumShape_RegularPolyhedron@Glumer@@@std@@@std@@@0@V10@V10@ABI@Z 10080c00 f i Glumer.obj
 0002:0004ed40       ??$find_if@V?$_Vector_iterator@V?$_Vector_val@U?$_Simple_types@UPTR@cGlumShape_Console@Glumer@@@std@@@std@@@std@@VcBlank@?$cGlumShapeFactory_ShapeContainer@VcGlumShape_Console@Glumer@@@Glumer@@@std@@YA?AV?$_Vector_iterator@V?$_Vector_val@U?$_Simple_types@UPTR@cGlumShape_Console@Glumer@@@std@@@std@@@0@V10@V10@VcBlank@?$cGlumShapeFactory_ShapeContainer@VcGlumShape_Console@Glumer@@@Glumer@@@Z 10080d40 f i Glumer.obj
 0002:0004eee0       ??$find_if@V?$_Vector_iterator@V?$_Vector_val@U?$_Simple_types@UPTR@cGlumShape_RegularPolyhedron@Glumer@@@std@@@std@@@std@@VcBlank@?$cGlumShapeFactory_ShapeContainer@VcGlumShape_RegularPolyhedron@Glumer@@@Glumer@@@std@@YA?AV?$_Vector_iterator@V?$_Vector_val@U?$_Simple_types@UPTR@cGlumShape_RegularPolyhedron@Glumer@@@std@@@std@@@0@V10@V10@VcBlank@?$cGlumShapeFactory_ShapeContainer@VcGlumShape_RegularPolyhedron@Glumer@@@Glumer@@@Z 10080ee0 f i Glumer.obj
 0002:0004f080       ??$find_if@V?$_Vector_iterator@V?$_Vector_val@U?$_Simple_types@V?$basic_string@DU?$char_traits@D@std@@V?$allocator@D@2@@std@@@std@@@std@@@std@@V?$binder1st@VMessageCodeFound@cGlumShape_Console@Glumer@@@2@@std@@YA?AV?$_Vector_iterator@V?$_Vector_val@U?$_Simple_types@V?$basic_string@DU?$char_traits@D@std@@V?$allocator@D@2@@std@@@std@@@std@@@0@V10@V10@V?$binder1st@VMessageCodeFound@cGlumShape_Console@Glumer@@@0@@Z 10081080 f i Glumer.obj
 0002:0004f230       ??$forward@AAUPTR@cGlumShape_Console@Glumer@@@std@@YAAAUPTR@cGlumShape_Console@Glumer@@AAU123@@Z 10081230 f i Glumer.obj
 0002:0004f2c0       ??$forward@AAUPTR@cGlumShape_RegularPolyhedron@Glumer@@@std@@YAAAUPTR@cGlumShape_RegularPolyhedron@Glumer@@AAU123@@Z 100812c0 f i Glumer.obj
 0002:0004f350       ??$forward@ABV?$allocator@D@std@@@std@@YAABV?$allocator@D@0@ABV10@@Z 10081350 f i Glumer.obj
 0002:0004f3e0       ??$forward@ABV?$basic_string@DU?$char_traits@D@std@@V?$allocator@D@2@@std@@@std@@YAABV?$basic_string@DU?$char_traits@D@std@@V?$allocator@D@2@@0@ABV10@@Z 100813e0 f i Glumer.obj
 0002:0004f470       ??$forward@UPTR@cGlumShape_Console@Glumer@@@std@@YA$$QAUPTR@cGlumShape_Console@Glumer@@AAU123@@Z 10081470 f i Glumer.obj
 0002:0004f500       ??$forward@UPTR@cGlumShape_RegularPolyhedron@Glumer@@@std@@YA$$QAUPTR@cGlumShape_RegularPolyhedron@Glumer@@AAU123@@Z 10081500 f i Glumer.obj
 0002:0004f590       ??$move@AAPAVcObjectBase@Glumer@@@std@@YA$$QAPAVcObjectBase@Glumer@@AAPAV12@@Z 10081590 f i Glumer.obj
 0002:0004f620       ??$move@AAUPTR@cGlumShape_Console@Glumer@@@std@@YA$$QAUPTR@cGlumShape_Console@Glumer@@AAU123@@Z 10081620 f i Glumer.obj
 0002:0004f6b0       ??$move@AAUPTR@cGlumShape_RegularPolyhedron@Glumer@@@std@@YA$$QAUPTR@cGlumShape_RegularPolyhedron@Glumer@@AAU123@@Z 100816b0 f i Glumer.obj
 0002:0004f740       ??$swap@IX@std@@YAXAAI0@Z  10081740 f i Glumer.obj
 0002:0004f840       ??$swap@PAVcObjectBase@Glumer@@X@std@@YAXAAPAVcObjectBase@Glumer@@0@Z 10081840 f i Glumer.obj
 0002:0004f940       ??$swap@UPTR@cGlumShape_Console@Glumer@@X@std@@YAXAAUPTR@cGlumShape_Console@Glumer@@0@Z 10081940 f i Glumer.obj
 0002:0004fa40       ??$swap@UPTR@cGlumShape_RegularPolyhedron@Glumer@@X@std@@YAXAAUPTR@cGlumShape_RegularPolyhedron@Glumer@@0@Z 10081a40 f i Glumer.obj
 0002:0004fbb0       ??0?$_String_alloc@U?$_String_base_types@DV?$allocator@D@std@@@std@@@std@@QAE@XZ 10081bb0 f i Glumer.obj
 0002:0004fc70       ??0?$_Vector_const_iterator@V?$_Vector_val@U?$_Simple_types@UPTR@cGlumShape_Console@Glumer@@@std@@@std@@@std@@QAE@XZ 10081c70 f i Glumer.obj
 0002:0004fce0       ??0?$_Vector_const_iterator@V?$_Vector_val@U?$_Simple_types@UPTR@cGlumShape_RegularPolyhedron@Glumer@@@std@@@std@@@std@@QAE@XZ 10081ce0 f i Glumer.obj
 0002:0004fd50       ??0?$_Vector_const_iterator@V?$_Vector_val@U?$_Simple_types@UPTR@cObjectMoveableBase@Glumer@@@std@@@std@@@std@@QAE@$$QAV01@@Z 10081d50 f i Glumer.obj
 0002:0004fdc0       ??0?$_Vector_const_iterator@V?$_Vector_val@U?$_Simple_types@UPTR@cObjectMoveableBase@Glumer@@@std@@@std@@@std@@QAE@ABV01@@Z 10081dc0 f i Glumer.obj
 0002:0004fe30       ??0?$_Vector_const_iterator@V?$_Vector_val@U?$_Simple_types@V?$basic_string@DU?$char_traits@D@std@@V?$allocator@D@2@@std@@@std@@@std@@@std@@QAE@$$QAV01@@Z 10081e30 f i Glumer.obj
 0002:0004fea0       ??0?$_Vector_const_iterator@V?$_Vector_val@U?$_Simple_types@V?$basic_string@DU?$char_traits@D@std@@V?$allocator@D@2@@std@@@std@@@std@@@std@@QAE@ABV01@@Z 10081ea0 f i Glumer.obj
 0002:0004ff10       ??0?$_Vector_iterator@V?$_Vector_val@U?$_Simple_types@UPTR@cGlumShape_Console@Glumer@@@std@@@std@@@std@@QAE@XZ 10081f10 f i Glumer.obj
 0002:0004ff70       ??0?$_Vector_iterator@V?$_Vector_val@U?$_Simple_types@UPTR@cGlumShape_RegularPolyhedron@Glumer@@@std@@@std@@@std@@QAE@XZ 10081f70 f i Glumer.obj
 0002:0004ffd0       ??0?$_Vector_iterator@V?$_Vector_val@U?$_Simple_types@UPTR@cObjectMoveableBase@Glumer@@@std@@@std@@@std@@QAE@$$QAV01@@Z 10081fd0 f i Glumer.obj
 0002:00050030       ??0?$_Vector_iterator@V?$_Vector_val@U?$_Simple_types@UPTR@cObjectMoveableBase@Glumer@@@std@@@std@@@std@@QAE@ABV01@@Z 10082030 f i Glumer.obj
 0002:00050090       ??0?$_Vector_iterator@V?$_Vector_val@U?$_Simple_types@V?$basic_string@DU?$char_traits@D@std@@V?$allocator@D@2@@std@@@std@@@std@@@std@@QAE@$$QAV01@@Z 10082090 f i Glumer.obj
 0002:000500f0       ??0?$_Vector_iterator@V?$_Vector_val@U?$_Simple_types@V?$basic_string@DU?$char_traits@D@std@@V?$allocator@D@2@@std@@@std@@@std@@@std@@QAE@ABV01@@Z 100820f0 f i Glumer.obj
 0002:00050150       ??0?$allocator@D@std@@QAE@XZ 10082150 f i Glumer.obj
 0002:000501e0       ??0?$basic_string@DU?$char_traits@D@std@@V?$allocator@D@2@@std@@QAE@ABV01@IIABV?$allocator@D@1@@Z 100821e0 f i Glumer.obj
 0002:000502b0       ??0?$basic_string@DU?$char_traits@D@std@@V?$allocator@D@2@@std@@QAE@QBD@Z 100822b0 f i Glumer.obj
 0002:00050370       ??0?$basic_string@DU?$char_traits@D@std@@V?$allocator@D@2@@std@@QAE@XZ 10082370 f i Glumer.obj
 0002:00050410       ??0?$binder1st@VMessageCodeFound@cGlumShape_Console@Glumer@@@std@@QAE@ABVMessageCodeFound@cGlumShape_Console@Glumer@@ABV?$basic_string@DU?$char_traits@D@std@@V?$allocator@D@2@@1@@Z 10082410 f i Glumer.obj
 0002:00050480       ??0cHUD_Colour@Glumer@@QAE@XZ 10082480 f i Glumer.obj
 0002:00050500       ??1?$binder1st@VMessageCodeFound@cGlumShape_Console@Glumer@@@std@@QAE@XZ 10082500 f i Glumer.obj
 0002:00050560       ??1cGlumShapeFactory@Glumer@@QAE@XZ 10082560 f i Glumer.obj
 0002:00050610       ??1cGlumShapeFactoryState@Glumer@@QAE@XZ 10082610 f i Glumer.obj
 0002:000506c0       ??8?$_Vector_const_iterator@V?$_Vector_val@U?$_Simple_types@PAVcObjectBase@Glumer@@@std@@@std@@@std@@QBE_NABV01@@Z 100826c0 f i Glumer.obj
 0002:00050760       ??8?$_Vector_const_iterator@V?$_Vector_val@U?$_Simple_types@UPTR@cObjectMoveableBase@Glumer@@@std@@@std@@@std@@QBE_NABV01@@Z 10082760 f i Glumer.obj
 0002:00050800       ??8?$_Vector_const_iterator@V?$_Vector_val@U?$_Simple_types@V?$basic_string@DU?$char_traits@D@std@@V?$allocator@D@2@@std@@@std@@@std@@@std@@QBE_NABV01@@Z 10082800 f i Glumer.obj
 0002:000508a0       ??8PTR@cGlumShape_Console@Glumer@@QAE_NI@Z 100828a0 f i Glumer.obj
 0002:00050930       ??8PTR@cGlumShape_RegularPolyhedron@Glumer@@QAE_NI@Z 10082930 f i Glumer.obj
 0002:000509c0       ??9?$_Vector_const_iterator@V?$_Vector_val@U?$_Simple_types@PAVcObjectBase@Glumer@@@std@@@std@@@std@@QBE_NABV01@@Z 100829c0 f i Glumer.obj
 0002:00050a50       ??9?$_Vector_const_iterator@V?$_Vector_val@U?$_Simple_types@UPTR@cObjectMoveableBase@Glumer@@@std@@@std@@@std@@QBE_NABV01@@Z 10082a50 f i Glumer.obj
 0002:00050ae0       ??C?$_Vector_const_iterator@V?$_Vector_val@U?$_Simple_types@UPTR@cObjectMoveableBase@Glumer@@@std@@@std@@@std@@QBEPBUPTR@cObjectMoveableBase@Glumer@@XZ 10082ae0 f i Glumer.obj
 0002:00050c60       ??C?$_Vector_const_iterator@V?$_Vector_val@U?$_Simple_types@V?$basic_string@DU?$char_traits@D@std@@V?$allocator@D@2@@std@@@std@@@std@@@std@@QBEPBV?$basic_string@DU?$char_traits@D@std@@V?$allocator@D@2@@1@XZ 10082c60 f i Glumer.obj
 0002:00050de0       ??C?$_Vector_iterator@V?$_Vector_val@U?$_Simple_types@UPTR@cObjectMoveableBase@Glumer@@@std@@@std@@@std@@QBEPAUPTR@cObjectMoveableBase@Glumer@@XZ 10082de0 f i Glumer.obj
 0002:00050e50       ??C?$_Vector_iterator@V?$_Vector_val@U?$_Simple_types@V?$basic_string@DU?$char_traits@D@std@@V?$allocator@D@2@@std@@@std@@@std@@@std@@QBEPAV?$basic_string@DU?$char_traits@D@std@@V?$allocator@D@2@@1@XZ 10082e50 f i Glumer.obj
 0002:00050ec0       ??E?$_Vector_const_iterator@V?$_Vector_val@U?$_Simple_types@UPTR@cObjectMoveableBase@Glumer@@@std@@@std@@@std@@QAEAAV01@XZ 10082ec0 f i Glumer.obj
 0002:00051040       ??E?$_Vector_iterator@V?$_Vector_val@U?$_Simple_types@UPTR@cObjectMoveableBase@Glumer@@@std@@@std@@@std@@QAE?AV01@H@Z 10083040 f i Glumer.obj
 0002:00051170       ??E?$_Vector_iterator@V?$_Vector_val@U?$_Simple_types@UPTR@cObjectMoveableBase@Glumer@@@std@@@std@@@std@@QAEAAV01@XZ 10083170 f i Glumer.obj
 0002:000511d0       ??H?$_Vector_iterator@V?$_Vector_val@U?$_Simple_types@V?$basic_string@DU?$char_traits@D@std@@V?$allocator@D@2@@std@@@std@@@std@@@std@@QBE?AV01@H@Z 100831d0 f i Glumer.obj
 0002:00051410       ??R?$binder1st@VMessageCodeFound@cGlumShape_Console@Glumer@@@std@@QBE_NAAV?$basic_string@DU?$char_traits@D@std@@V?$allocator@D@2@@1@@Z 10083410 f i Glumer.obj
 0002:00051480       ??RMessageCodeFound@cGlumShape_Console@Glumer@@QBE_NABV?$basic_string@DU?$char_traits@D@std@@V?$allocator@D@2@@std@@0@Z 10083480 f i Glumer.obj
 0002:00051550       ??RcBlank@?$cGlumShapeFactory_ShapeContainer@VcGlumShape_Console@Glumer@@@Glumer@@QAE_NUPTR@cGlumShape_Console@2@@Z 10083550 f i Glumer.obj
 0002:000515d0       ??RcBlank@?$cGlumShapeFactory_ShapeContainer@VcGlumShape_RegularPolyhedron@Glumer@@@Glumer@@QAE_NUPTR@cGlumShape_RegularPolyhedron@2@@Z 100835d0 f i Glumer.obj
 0002:00051650       ??Y?$_Vector_const_iterator@V?$_Vector_val@U?$_Simple_types@V?$basic_string@DU?$char_traits@D@std@@V?$allocator@D@2@@std@@@std@@@std@@@std@@QAEAAV01@H@Z 10083650 f i Glumer.obj
 0002:000516d0       ??Y?$_Vector_iterator@V?$_Vector_val@U?$_Simple_types@V?$basic_string@DU?$char_traits@D@std@@V?$allocator@D@2@@std@@@std@@@std@@@std@@QAEAAV01@H@Z 100836d0 f i Glumer.obj
 0002:00051740       ?AddCode@cGlumShape_Console@Glumer@@QAEXV?$basic_string@DU?$char_traits@D@std@@V?$allocator@D@2@@std@@@Z 10083740 f i Glumer.obj
 0002:00051b10       ?AddMessage@cGlumShape_Console@Glumer@@QAEXV?$basic_string@DU?$char_traits@D@std@@V?$allocator@D@2@@std@@@Z 10083b10 f i Glumer.obj
 0002:00051c30       ?AddToAngleIncrement@cGluperOrientation@Glumer@@QAEXM@Z 10083c30 f i Glumer.obj
 0002:00051ca0       ?AddToAngleXYZ@cGluperOrientation@Glumer@@QAEXMMM@Z 10083ca0 f i Glumer.obj
 0002:00051d50       ?AddToXYZ@cGluperDirection@Glumer@@QAEXMMM@Z 10083d50 f i Glumer.obj
 0002:00051e00       ?Delete@?$cGlumShapeFactory_ShapeContainer@VcGlumShape_Console@Glumer@@@Glumer@@SAXV?$_Vector_iterator@V?$_Vector_val@U?$_Simple_types@UPTR@cGlumShape_Console@Glumer@@@std@@@std@@@std@@@Z 10083e00 f i Glumer.obj
 0002:000520b0       ?Delete@?$cGlumShapeFactory_ShapeContainer@VcGlumShape_RegularPolyhedron@Glumer@@@Glumer@@SAXV?$_Vector_iterator@V?$_Vector_val@U?$_Simple_types@UPTR@cGlumShape_RegularPolyhedron@Glumer@@@std@@@std@@@std@@@Z 100840b0 f i Glumer.obj
 0002:00052360       ?Delete@cGlumShapeFactory@Glumer@@QAEXUPTR@cGlumShapeBase@2@I@Z 10084360 f i Glumer.obj
 0002:000523f0       ?DrawListDelete@cGlumShapeFactoryState@Glumer@@QAEXUPTR@cObjectMoveableBase@2@I@Z 100843f0 f i Glumer.obj
 0002:00052710       ?FactoryGetCenter@cGlumShapeBase@Glumer@@QAEAAVcGluperCenter@2@XZ 10084710 f i Glumer.obj
 0002:00052770       ?FactoryGetDirection@cGlumShapeBase@Glumer@@QAEAAVcGluperDirection@2@XZ 10084770 f i Glumer.obj
 0002:000527d0       ?FactoryListDelete@cGlumShapeFactoryState@Glumer@@QAEXUPTR@cGlumShapeBase@2@I@Z 100847d0 f i Glumer.obj
 0002:00052a90       ?FactoryLock@cGlumShapeFactory@Glumer@@QAEPAVcMutexWrapper@TimerWrapper@@XZ 10084a90 f i Glumer.obj
 0002:00052af0       ?FactorySetDeleted@cGlumShapeBase@Glumer@@QAEX_N@Z 10084af0 f i Glumer.obj
 0002:00052b70       ?FactorySetInvisible@cGlumShapeBase@Glumer@@QAEX_N@Z 10084b70 f i Glumer.obj
 0002:00052be0       ?Get@?$cGlumShapeFactory_ShapeContainer@VcGlumShape_Console@Glumer@@@Glumer@@SA?AV?$_Vector_iterator@V?$_Vector_val@U?$_Simple_types@UPTR@cGlumShape_Console@Glumer@@@std@@@std@@@std@@IAA_N@Z 10084be0 f i Glumer.obj
 0002:00052e90       ?Get@?$cGlumShapeFactory_ShapeContainer@VcGlumShape_RegularPolyhedron@Glumer@@@Glumer@@SA?AV?$_Vector_iterator@V?$_Vector_val@U?$_Simple_types@UPTR@cGlumShape_RegularPolyhedron@Glumer@@@std@@@std@@@std@@IAA_N@Z 10084e90 f i Glumer.obj
 0002:00053140       ?Get@cGlumShapeFactory@Glumer@@QAE?AUPTR@cGlumShapeBase@2@I@Z 10085140 f i Glumer.obj
 0002:000533b0       ?GetCamera@cGlumShapeFactory@Glumer@@QAEPAVcMovementBase@2@XZ 100853b0 f i Glumer.obj
 0002:00053410       ?GetCenter@cGlumShapeBase@Glumer@@QBEABVcGluperCenter@2@XZ 10085410 f i Glumer.obj
 0002:00053600       ?GetCoords@cGlumShapeFactory@Glumer@@QAEXIAAM00@Z 10085600 f i Glumer.obj
 0002:00053880       ?GetCount@cGlumShapeFactory@Glumer@@QAEIXZ 10085880 f i Glumer.obj
 0002:00053900       ?GetSelectableDrawList@cGlumShapeFactoryState@Glumer@@QAEAAV?$vector@PAVcObjectBase@Glumer@@V?$allocator@PAVcObjectBase@Glumer@@@std@@@std@@XZ 10085900 f i Glumer.obj
 0002:00053960       ?GetSelectableDrawListIndex@cGlumShapeFactoryState@Glumer@@QAEAAV?$vector@IV?$allocator@I@std@@@std@@XZ 10085960 f i Glumer.obj
 0002:000539c0       ?HitTest@cGlumShapeFactory@Glumer@@QAE_NIII@Z 100859c0 f i Glumer.obj
 0002:00053a60       ?Init@cGlumShapeFactory@Glumer@@QAEXXZ 10085a60 f i Glumer.obj
 0002:00053ac0       ?IsCameraSet@cGlumShapeFactory@Glumer@@QBE_NXZ 10085ac0 f i Glumer.obj
 0002:00053b40       ?ListSize@?$cGlumShapeFactory_ShapeContainer@VcGlumShape_Console@Glumer@@@Glumer@@SAIXZ 10085b40 f i Glumer.obj
 0002:00053c00       ?ListSize@?$cGlumShapeFactory_ShapeContainer@VcGlumShape_RegularPolyhedron@Glumer@@@Glumer@@SAIXZ 10085c00 f i Glumer.obj
 0002:00053cc0       ?ListSize@?$cGlumShapeFactory_ShapeContainer@VcGlumShape_SwitchGadget@Glumer@@@Glumer@@SAIXZ 10085cc0 f i Glumer.obj
 0002:00053d80       ?ListSize@?$cGlumShapeFactory_ShapeContainer@VcMovement_Camera@Glumer@@@Glumer@@SAIXZ 10085d80 f i Glumer.obj
 0002:00053e40       ?PurgeOne@cGlumShapeFactory@Glumer@@AAEXUPTR@cGlumShapeBase@2@I@Z 10085e40 f i Glumer.obj
 0002:000540a0       ?ScrollMessage@cGlumShape_Console@Glumer@@QAEXI@Z 100860a0 f i Glumer.obj
 0002:000542c0       ?SelectableDrawListDelete@cGlumShapeFactoryState@Glumer@@QAEXPAVcObjectBase@2@I@Z 100862c0 f i Glumer.obj
 0002:00054610       ?SetAnchorMatchingRotationTo@cGluperCenter@Glumer@@QAEXPAVcObjectMoveableBase@2@@Z 10086610 f i Glumer.obj
 0002:00054670       ?SetAnchorTo@cGluperCenter@Glumer@@QAEXPAV12@@Z 10086670 f i Glumer.obj
 0002:000546d0       ?SetInvisible@cGlumShapeFactory@Glumer@@QAEXUPTR@cGlumShapeBase@2@_N@Z 100866d0 f i Glumer.obj
 0002:00054740       ?SetMessage@cGlumShape_Console@Glumer@@QAEXV?$basic_string@DU?$char_traits@D@std@@V?$allocator@D@2@@std@@@Z 10086740 f i Glumer.obj
 0002:00054870       ?_Check_offset@?$_String_val@U?$_Simple_types@D@std@@@std@@QBEXI@Z 10086870 f i Glumer.obj
 0002:000548e0       ?_Clamp_suffix_size@?$_String_val@U?$_Simple_types@D@std@@@std@@QBEIII@Z 100868e0 f i Glumer.obj
 0002:000549a0       ?_Compat@?$_Vector_const_iterator@V?$_Vector_val@U?$_Simple_types@PAVcObjectBase@Glumer@@@std@@@std@@@std@@QBEXABV12@@Z 100869a0 f i Glumer.obj
 0002:00054a90       ?_Compat@?$_Vector_const_iterator@V?$_Vector_val@U?$_Simple_types@UPTR@cObjectMoveableBase@Glumer@@@std@@@std@@@std@@QBEXABV12@@Z 10086a90 f i Glumer.obj
 0002:00054b80       ?_Compat@?$_Vector_const_iterator@V?$_Vector_val@U?$_Simple_types@V?$basic_string@DU?$char_traits@D@std@@V?$allocator@D@2@@std@@@std@@@std@@@std@@QBEXABV12@@Z 10086b80 f i Glumer.obj
 0002:00054c70       ?_Getpfirst@?$_Vector_alloc@U?$_Vec_base_types@V?$basic_string@DU?$char_traits@D@std@@V?$allocator@D@2@@std@@V?$allocator@V?$basic_string@DU?$char_traits@D@std@@V?$allocator@D@2@@std@@@2@@std@@@std@@QBEPAPAU_Iterator_base12@2@XZ 10086c70 f i Glumer.obj
 0002:00054ce0       ?_Has_unused_capacity@?$vector@V?$basic_string@DU?$char_traits@D@std@@V?$allocator@D@2@@std@@V?$allocator@V?$basic_string@DU?$char_traits@D@std@@V?$allocator@D@2@@std@@@2@@std@@ABE_NXZ 10086ce0 f i Glumer.obj
 0002:00054db0       ?_Make_iterator@?$_Vector_alloc@U?$_Vec_base_types@UPTR@cGlumShape_Console@Glumer@@V?$allocator@UPTR@cGlumShape_Console@Glumer@@@std@@@std@@@std@@QAE?AV?$_Vector_iterator@V?$_Vector_val@U?$_Simple_types@UPTR@cGlumShape_Console@Glumer@@@std@@@std@@@2@QAUPTR@cGlumShape_Console@Glumer@@@Z 10086db0 f i Glumer.obj
 0002:00054e70       ?_Make_iterator@?$_Vector_alloc@U?$_Vec_base_types@UPTR@cGlumShape_RegularPolyhedron@Glumer@@V?$allocator@UPTR@cGlumShape_RegularPolyhedron@Glumer@@@std@@@std@@@std@@QAE?AV?$_Vector_iterator@V?$_Vector_val@U?$_Simple_types@UPTR@cGlumShape_RegularPolyhedron@Glumer@@@std@@@std@@@2@QAUPTR@cGlumShape_RegularPolyhedron@Glumer@@@Z 10086e70 f i Glumer.obj
 0002:00054f30       ?_Orphan_range@?$vector@V?$basic_string@DU?$char_traits@D@std@@V?$allocator@D@2@@std@@V?$allocator@V?$basic_string@DU?$char_traits@D@std@@V?$allocator@D@2@@std@@@2@@std@@ABEXPAV?$basic_string@DU?$char_traits@D@std@@V?$allocator@D@2@@2@0@Z 10086f30 f i Glumer.obj
 0002:000550b0       ?_Seek_to@?$_Vector_const_iterator@V?$_Vector_val@U?$_Simple_types@I@std@@@std@@@std@@QAEXPBI@Z 100870b0 f i Glumer.obj
 0002:00055120       ?_Seek_to@?$_Vector_const_iterator@V?$_Vector_val@U?$_Simple_types@UPTR@cGlumShape_Console@Glumer@@@std@@@std@@@std@@QAEXPBUPTR@cGlumShape_Console@Glumer@@@Z 10087120 f i Glumer.obj
 0002:00055190       ?_Seek_to@?$_Vector_const_iterator@V?$_Vector_val@U?$_Simple_types@UPTR@cGlumShape_RegularPolyhedron@Glumer@@@std@@@std@@@std@@QAEXPBUPTR@cGlumShape_RegularPolyhedron@Glumer@@@Z 10087190 f i Glumer.obj
 0002:00055200       ?_Seek_to@?$_Vector_const_iterator@V?$_Vector_val@U?$_Simple_types@V?$basic_string@DU?$char_traits@D@std@@V?$allocator@D@2@@std@@@std@@@std@@@std@@QAEXPBV?$basic_string@DU?$char_traits@D@std@@V?$allocator@D@2@@2@@Z 10087200 f i Glumer.obj
 0002:00055270       ?_Udefault@?$vector@V?$basic_string@DU?$char_traits@D@std@@V?$allocator@D@2@@std@@V?$allocator@V?$basic_string@DU?$char_traits@D@std@@V?$allocator@D@2@@std@@@2@@std@@AAEPAV?$basic_string@DU?$char_traits@D@std@@V?$allocator@D@2@@2@PAV32@I@Z 10087270 f i Glumer.obj
 0002:000552f0       ?_Umove@?$vector@V?$basic_string@DU?$char_traits@D@std@@V?$allocator@D@2@@std@@V?$allocator@V?$basic_string@DU?$char_traits@D@std@@V?$allocator@D@2@@std@@@2@@std@@AAEPAV?$basic_string@DU?$char_traits@D@std@@V?$allocator@D@2@@2@PAV32@00@Z 100872f0 f i Glumer.obj
 0002:00055370       ?_Unwrapped@?$_Vector_iterator@V?$_Vector_val@U?$_Simple_types@I@std@@@std@@@std@@QBEPAIXZ 10087370 f i Glumer.obj
 0002:000553d0       ?_Unwrapped@?$_Vector_iterator@V?$_Vector_val@U?$_Simple_types@UPTR@cGlumShape_Console@Glumer@@@std@@@std@@@std@@QBEPAUPTR@cGlumShape_Console@Glumer@@XZ 100873d0 f i Glumer.obj
 0002:00055430       ?_Unwrapped@?$_Vector_iterator@V?$_Vector_val@U?$_Simple_types@UPTR@cGlumShape_RegularPolyhedron@Glumer@@@std@@@std@@@std@@QBEPAUPTR@cGlumShape_RegularPolyhedron@Glumer@@XZ 10087430 f i Glumer.obj
 0002:00055490       ?_Verify_offset@?$_Vector_const_iterator@V?$_Vector_val@U?$_Simple_types@V?$basic_string@DU?$char_traits@D@std@@V?$allocator@D@2@@std@@@std@@@std@@@std@@QBEXH@Z 10087490 f i Glumer.obj
 0002:000556b0       ?_Verify_range@std@@YAXABV?$_Vector_const_iterator@V?$_Vector_val@U?$_Simple_types@I@std@@@std@@@1@0@Z 100876b0 f i Glumer.obj
 0002:00055820       ?_Verify_range@std@@YAXABV?$_Vector_const_iterator@V?$_Vector_val@U?$_Simple_types@UPTR@cGlumShape_Console@Glumer@@@std@@@std@@@1@0@Z 10087820 f i Glumer.obj
 0002:00055990       ?_Verify_range@std@@YAXABV?$_Vector_const_iterator@V?$_Vector_val@U?$_Simple_types@UPTR@cGlumShape_RegularPolyhedron@Glumer@@@std@@@std@@@1@0@Z 10087990 f i Glumer.obj
 0002:00055b00       ?_Xran@?$_String_val@U?$_Simple_types@D@std@@@std@@SAXXZ 10087b00 f i Glumer.obj
 0002:00055b60       ?assign@?$basic_string@DU?$char_traits@D@std@@V?$allocator@D@2@@std@@QAEAAV12@ABV12@@Z 10087b60 f i Glumer.obj
 0002:00055bd0       ?assign@?$basic_string@DU?$char_traits@D@std@@V?$allocator@D@2@@std@@QAEAAV12@ABV12@II@Z 10087bd0 f i Glumer.obj
 0002:00055c80       ?assign@?$basic_string@DU?$char_traits@D@std@@V?$allocator@D@2@@std@@QAEAAV12@QBD@Z 10087c80 f i Glumer.obj
 0002:00055d00       ?back@?$vector@IV?$allocator@I@std@@@std@@QAEAAIXZ 10087d00 f i Glumer.obj
 0002:00055e00       ?back@?$vector@PAVcObjectBase@Glumer@@V?$allocator@PAVcObjectBase@Glumer@@@std@@@std@@QAEAAPAVcObjectBase@Glumer@@XZ 10087e00 f i Glumer.obj
 0002:00055f00       ?back@?$vector@UPTR@cGlumShape_Console@Glumer@@V?$allocator@UPTR@cGlumShape_Console@Glumer@@@std@@@std@@QAEAAUPTR@cGlumShape_Console@Glumer@@XZ 10087f00 f i Glumer.obj
 0002:00056000       ?back@?$vector@UPTR@cGlumShape_RegularPolyhedron@Glumer@@V?$allocator@UPTR@cGlumShape_RegularPolyhedron@Glumer@@@std@@@std@@QAEAAUPTR@cGlumShape_RegularPolyhedron@Glumer@@XZ 10088000 f i Glumer.obj
 0002:00056100       ?c_str@?$basic_string@DU?$char_traits@D@std@@V?$allocator@D@2@@std@@QBEPBDXZ 10088100 f i Glumer.obj
 0002:000561a0       ?clear@?$vector@V?$basic_string@DU?$char_traits@D@std@@V?$allocator@D@2@@std@@V?$allocator@V?$basic_string@DU?$char_traits@D@std@@V?$allocator@D@2@@std@@@2@@std@@QAEXXZ 100881a0 f i Glumer.obj
 0002:00056270       ?compare@?$char_traits@D@std@@SAHQBD0I@Z 10088270 f i Glumer.obj
 0002:00056310       ?empty@?$vector@IV?$allocator@I@std@@@std@@QBE_NXZ 10088310 f i Glumer.obj
 0002:000563e0       ?empty@?$vector@PAVcObjectBase@Glumer@@V?$allocator@PAVcObjectBase@Glumer@@@std@@@std@@QBE_NXZ 100883e0 f i Glumer.obj
 0002:000564b0       ?empty@?$vector@UPTR@cGlumShape_Console@Glumer@@V?$allocator@UPTR@cGlumShape_Console@Glumer@@@std@@@std@@QBE_NXZ 100884b0 f i Glumer.obj
 0002:00056580       ?empty@?$vector@UPTR@cGlumShape_RegularPolyhedron@Glumer@@V?$allocator@UPTR@cGlumShape_RegularPolyhedron@Glumer@@@std@@@std@@QBE_NXZ 10088580 f i Glumer.obj
 0002:00056650       ?erase@?$vector@UPTR@cObjectMoveableBase@Glumer@@V?$allocator@UPTR@cObjectMoveableBase@Glumer@@@std@@@std@@QAE?AV?$_Vector_iterator@V?$_Vector_val@U?$_Simple_types@UPTR@cObjectMoveableBase@Glumer@@@std@@@std@@@2@V?$_Vector_const_iterator@V?$_Vector_val@U?$_Simple_types@UPTR@cObjectMoveableBase@Glumer@@@std@@@std@@@2@@Z 10088650 f i Glumer.obj
 0002:000568b0       ?find@?$_Tree@V?$_Tmap_traits@IUPTR@cGlumShapeBase@Glumer@@U?$less@I@std@@V?$allocator@U?$pair@$$CBIUPTR@cGlumShapeBase@Glumer@@@std@@@5@$0A@@std@@@std@@QAE?AV?$_Tree_iterator@V?$_Tree_val@U?$_Tree_simple_types@U?$pair@$$CBIUPTR@cGlumShapeBase@Glumer@@@std@@@std@@@std@@@2@ABI@Z 100888b0 f i Glumer.obj
 0002:00056b70       ?find@?$basic_string@DU?$char_traits@D@std@@V?$allocator@D@2@@std@@QBEIQBDI@Z 10088b70 f i Glumer.obj
 0002:00056c40       ?find@?$char_traits@D@std@@SAPBDQBDIABD@Z 10088c40 f i Glumer.obj
 0002:00056ce0       ?get_allocator@?$basic_string@DU?$char_traits@D@std@@V?$allocator@D@2@@std@@QBE?AV?$allocator@D@2@XZ 10088ce0 f i Glumer.obj
 0002:00056d80       ?length@?$basic_string@DU?$char_traits@D@std@@V?$allocator@D@2@@std@@QBEIXZ 10088d80 f i Glumer.obj
 0002:00056e20       ?length@?$char_traits@D@std@@SAIQBD@Z 10088e20 f i Glumer.obj
 0002:00056eb0       ?pop_back@?$vector@IV?$allocator@I@std@@@std@@QAEXXZ 10088eb0 f i Glumer.obj
 0002:00057020       ?pop_back@?$vector@PAVcObjectBase@Glumer@@V?$allocator@PAVcObjectBase@Glumer@@@std@@@std@@QAEXXZ 10089020 f i Glumer.obj
 0002:00057190       ?pop_back@?$vector@UPTR@cGlumShape_Console@Glumer@@V?$allocator@UPTR@cGlumShape_Console@Glumer@@@std@@@std@@QAEXXZ 10089190 f i Glumer.obj
 0002:00057300       ?pop_back@?$vector@UPTR@cGlumShape_RegularPolyhedron@Glumer@@V?$allocator@UPTR@cGlumShape_RegularPolyhedron@Glumer@@@std@@@std@@QAEXXZ 10089300 f i Glumer.obj
 0002:00057470       ?push_back@?$vector@V?$basic_string@DU?$char_traits@D@std@@V?$allocator@D@2@@std@@V?$allocator@V?$basic_string@DU?$char_traits@D@std@@V?$allocator@D@2@@std@@@2@@std@@QAEXABV?$basic_string@DU?$char_traits@D@std@@V?$allocator@D@2@@2@@Z 10089470 f i Glumer.obj
 0002:000574e0       ?resize@?$vector@V?$basic_string@DU?$char_traits@D@std@@V?$allocator@D@2@@std@@V?$allocator@V?$basic_string@DU?$char_traits@D@std@@V?$allocator@D@2@@std@@@2@@std@@QAEXI@Z 100894e0 f i Glumer.obj
 0002:000575a0       ?substr@?$basic_string@DU?$char_traits@D@std@@V?$allocator@D@2@@std@@QBE?AV12@II@Z 100895a0 f i Glumer.obj
 0002:00057650       _AddConsoleCode@12         10089650 f   Glumer.obj
 0002:000578c0       _AddConsoleText@12         100898c0 f   Glumer.obj
 0002:00057b30       _AddDirection@16           10089b30 f   Glumer.obj
 0002:00057d40       _AddLocation@16            10089d40 f   Glumer.obj
 0002:00057f50       _AddOrientation@24         10089f50 f   Glumer.obj
 0002:00058190       _CallToGetCoords@0         1008a190 f   Glumer.obj
 0002:000581f0       _CreateButton@20           1008a1f0 f   Glumer.obj
 0002:000584a0       _CreateCamera@0            1008a4a0 f   Glumer.obj
 0002:000586b0       _CreateConsole@16          1008a6b0 f   Glumer.obj
 0002:00058960       _CreateGLCommand@32        1008a960 f   Glumer.obj
 0002:00058c20       _CreateGLCompiledName@24   1008ac20 f   Glumer.obj
 0002:00058ed0       _CreatePolyhedron@24       1008aed0 f   Glumer.obj
 0002:00059180       _CreateSwitch@24           1008b180 f   Glumer.obj
 0002:00059450       _Delete@4                  1008b450 f   Glumer.obj
 0002:00059630       _DrawScene@12              1008b630 f   Glumer.obj
 0002:000597a0       _GetDirection@16           1008b7a0 f   Glumer.obj
 0002:00059990       _GetLocation@16            1008b990 f   Glumer.obj
 0002:00059b80       _GetOrientation@24         1008bb80 f   Glumer.obj
 0002:00059d70       _GetPolyhedronRadius@8     1008bd70 f   Glumer.obj
 0002:00059fb0       _GetRenderCount@0          1008bfb0 f   Glumer.obj
 0002:0005a120       _HitTest@12                1008c120 f   Glumer.obj
 0002:0005a1f0       _InitGlumer@0              1008c1f0 f   Glumer.obj
 0002:0005a270       _ScrollConsoleText@8       1008c270 f   Glumer.obj
 0002:0005a4c0       _SetAnchorMatchingRotationTo@8 1008c4c0 f   Glumer.obj
 0002:0005a750       _SetAnchorTo@8             1008c750 f   Glumer.obj
 0002:0005a9d0       _SetConsoleText@12         1008c9d0 f   Glumer.obj
 0002:0005ac00       _SetDirection@16           1008cc00 f   Glumer.obj
 0002:0005ae10       _SetInvisible@8            1008ce10 f   Glumer.obj
 0002:0005aff0       _SetLocation@16            1008cff0 f   Glumer.obj
 0002:0005b200       _SetOrientation@24         1008d200 f   Glumer.obj
 0002:0005b440       _SetPolyhedronOnClicked@8  1008d440 f   Glumer.obj
 0002:0005b670       _Start@4                   1008d670 f   Glumer.obj
 0002:0005b7b0       _UnInitGlumer@0            1008d7b0 f   Glumer.obj
 0002:0005b7fb       _SDL_CreateThread          1008d7fb f   SDL2:SDL2.dll
 0002:0005b801       _SDL_WaitThread            1008d801 f   SDL2:SDL2.dll
 0002:0005b807       _SDL_GetTicks              1008d807 f   SDL2:SDL2.dll
 0002:0005b80d       _SDL_Delay                 1008d80d f   SDL2:SDL2.dll
 0002:0005b813       _SDL_AddTimer              1008d813 f   SDL2:SDL2.dll
 0002:0005b819       _SDL_RemoveTimer           1008d819 f   SDL2:SDL2.dll
 0002:0005b81f       _SDL_CreateMutex           1008d81f f   SDL2:SDL2.dll
 0002:0005b825       _SDL_LockMutex             1008d825 f   SDL2:SDL2.dll
 0002:0005b82b       _SDL_UnlockMutex           1008d82b f   SDL2:SDL2.dll
 0002:0005b831       _SDL_DestroyMutex          1008d831 f   SDL2:SDL2.dll
 0002:0005b837       _SDL_WasInit               1008d837 f   SDL2:SDL2.dll
 0002:0005b83d       _glBegin@4                 1008d83d f   OpenGL32:OPENGL32.dll
 0002:0005b843       _glCallList@4              1008d843 f   OpenGL32:OPENGL32.dll
 0002:0005b849       _glColor3ub@12             1008d849 f   OpenGL32:OPENGL32.dll
 0002:0005b84f       _glDeleteLists@8           1008d84f f   OpenGL32:OPENGL32.dll
 0002:0005b855       _glEnd@0                   1008d855 f   OpenGL32:OPENGL32.dll
 0002:0005b85b       _glEndList@0               1008d85b f   OpenGL32:OPENGL32.dll
 0002:0005b861       _glGenLists@4              1008d861 f   OpenGL32:OPENGL32.dll
 0002:0005b867       _glGetFloatv@8             1008d867 f   OpenGL32:OPENGL32.dll
 0002:0005b86d       _glLineWidth@4             1008d86d f   OpenGL32:OPENGL32.dll
 0002:0005b873       _glLoadIdentity@0          1008d873 f   OpenGL32:OPENGL32.dll
 0002:0005b879       _glNewList@8               1008d879 f   OpenGL32:OPENGL32.dll
 0002:0005b87f       _glNormal3d@24             1008d87f f   OpenGL32:OPENGL32.dll
 0002:0005b885       _glPopMatrix@0             1008d885 f   OpenGL32:OPENGL32.dll
 0002:0005b88b       _glPushMatrix@0            1008d88b f   OpenGL32:OPENGL32.dll
 0002:0005b891       _glScalef@12               1008d891 f   OpenGL32:OPENGL32.dll
 0002:0005b897       _glVertex3d@24             1008d897 f   OpenGL32:OPENGL32.dll
 0002:0005b89d       _glVertex3f@12             1008d89d f   OpenGL32:OPENGL32.dll
 0002:0005b8a3       _glRotatef@16              1008d8a3 f   OpenGL32:OPENGL32.dll
 0002:0005b8a9       _glTranslatef@12           1008d8a9 f   OpenGL32:OPENGL32.dll
 0002:0005b8af       _glPopAttrib@0             1008d8af f   OpenGL32:OPENGL32.dll
 0002:0005b8b5       _glPushAttrib@4            1008d8b5 f   OpenGL32:OPENGL32.dll
 0002:0005b8bb       _glGetIntegerv@8           1008d8bb f   OpenGL32:OPENGL32.dll
 0002:0005b8c1       _glInitNames@0             1008d8c1 f   OpenGL32:OPENGL32.dll
 0002:0005b8c7       _glMatrixMode@4            1008d8c7 f   OpenGL32:OPENGL32.dll
 0002:0005b8cd       _glPopName@0               1008d8cd f   OpenGL32:OPENGL32.dll
 0002:0005b8d3       _glPushName@4              1008d8d3 f   OpenGL32:OPENGL32.dll
 0002:0005b8d9       _glRenderMode@4            1008d8d9 f   OpenGL32:OPENGL32.dll
 0002:0005b8df       _glSelectBuffer@8          1008d8df f   OpenGL32:OPENGL32.dll
 0002:0005b8e5       _gluPerspective@32         1008d8e5 f   GlU32:GLU32.dll
 0002:0005b8eb       _gluPickMatrix@36          1008d8eb f   GlU32:GLU32.dll
 0002:0005b8f1       _gluLookAt@72              1008d8f1 f   GlU32:GLU32.dll
 0002:0005b900       ??3@YAXPAXI@Z              1008d900 f   MSVCRTD:delete_scalar_size.obj
 0002:0005b920       @__CheckForDebuggerJustMyCode@4 1008d920 f   MSVCRTD:debugger_jmc.obj
 0002:0005b970       @__security_check_cookie@4 1008d970 f   MSVCRTD:_secchk_.obj
 0002:0005b990       @_RTC_AllocaHelper@12      1008d990 f   MSVCRTD:_stack_.obj
 0002:0005b9d0       @_RTC_CheckStackVars2@12   1008d9d0 f   MSVCRTD:_stack_.obj
 0002:0005baf0       @_RTC_CheckStackVars@8     1008daf0 f   MSVCRTD:_stack_.obj
 0002:0005bb70       __RTC_CheckEsp             1008db70 f   MSVCRTD:_stack_.obj
 0002:0005bbb0       __CRT_RTC_INIT             1008dbb0 f   MSVCRTD:_init_.obj
 0002:0005bbc0       __CRT_RTC_INITW            1008dbc0 f   MSVCRTD:_init_.obj
 0002:0005bbd0       __RTC_InitBase             1008dbd0 f   MSVCRTD:_init_.obj
 0002:0005bc10       __RTC_Shutdown             1008dc10 f   MSVCRTD:_init_.obj
 0002:0005bc30       ??1type_info@@UAE@XZ       1008dc30 f   MSVCRTD:std_type_info_static.obj
 0002:0005bc50       ??_Gtype_info@@UAEPAXI@Z   1008dc50 f i MSVCRTD:std_type_info_static.obj
 0002:0005bc50       ??_Etype_info@@UAEPAXI@Z   1008dc50 f i MSVCRTD:std_type_info_static.obj
 0002:0005bc90       ??2@YAPAXI@Z               1008dc90 f   MSVCRTD:new_scalar.obj
 0002:0005bcf0       ??$__crt_fast_decode_pointer@PAP6AXXZ@@YAPAP6AXXZQAP6AXXZ@Z 1008dcf0 f i MSVCRTD:utility.obj
 0002:0005bd20       ??$__crt_fast_encode_pointer@PAP6AXXZ@@YAPAP6AXXZQAP6AXXZ@Z 1008dd20 f i MSVCRTD:utility.obj
 0002:0005bd60       ?__crt_rotate_pointer_value@@YAIIH@Z 1008dd60 f i MSVCRTD:utility.obj
 0002:0005bd70       ?configure_argv@__scrt_narrow_argv_policy@@SAHXZ 1008dd70 f i MSVCRTD:utility.obj
 0002:0005be40       ?initialize_environment@__scrt_narrow_environment_policy@@SAHXZ 1008de40 f i MSVCRTD:utility.obj
 0002:0005bee0       _NtCurrentTeb              1008dee0 f i MSVCRTD:utility.obj
 0002:0005bef0       ___scrt_acquire_startup_lock 1008def0 f   MSVCRTD:utility.obj
 0002:0005bf50       ___scrt_dllmain_after_initialize_c 1008df50 f   MSVCRTD:utility.obj
 0002:0005bf90       ___scrt_dllmain_before_initialize_c 1008df90 f   MSVCRTD:utility.obj
 0002:0005bfc0       ___scrt_dllmain_crt_thread_attach 1008dfc0 f   MSVCRTD:utility.obj
 0002:0005c000       ___scrt_dllmain_crt_thread_detach 1008e000 f   MSVCRTD:utility.obj
 0002:0005c020       ___scrt_dllmain_exception_filter 1008e020 f   MSVCRTD:utility.obj
 0002:0005c080       ___scrt_dllmain_uninitialize_c 1008e080 f   MSVCRTD:utility.obj
 0002:0005c0c0       ___scrt_dllmain_uninitialize_critical 1008e0c0 f   MSVCRTD:utility.obj
 0002:0005c0e0       ___scrt_initialize_crt     1008e0e0 f   MSVCRTD:utility.obj
 0002:0005c140       ___scrt_initialize_onexit_tables 1008e140 f   MSVCRTD:utility.obj
 0002:0005c260       ___scrt_is_nonwritable_in_current_image 1008e260 f   MSVCRTD:utility.obj
 0002:0005c3e0       ___scrt_release_startup_lock 1008e3e0 f   MSVCRTD:utility.obj
 0002:0005c410       ___scrt_uninitialize_crt   1008e410 f   MSVCRTD:utility.obj
 0002:0005c460       __onexit                   1008e460 f   MSVCRTD:utility.obj
 0002:0005c4f0       _at_quick_exit             1008e4f0 f   MSVCRTD:utility.obj
 0002:0005c550       _atexit                    1008e550 f   MSVCRTD:utility.obj
 0002:0005c5d0       ??$__crt_fast_decode_pointer@P6GHPAU_RTL_CONDITION_VARIABLE@@PAU_RTL_CRITICAL_SECTION@@K@Z@@YAP6GHPAU_RTL_CONDITION_VARIABLE@@PAU_RTL_CRITICAL_SECTION@@K@ZQ6GH01K@Z@Z 1008e5d0 f i MSVCRTD:thread_safe_statics.obj
 0002:0005c600       ??$__crt_fast_decode_pointer@P6GXPAU_RTL_CONDITION_VARIABLE@@@Z@@YAP6GXPAU_RTL_CONDITION_VARIABLE@@@ZQ6GX0@Z@Z 1008e600 f i MSVCRTD:thread_safe_statics.obj
 0002:0005c630       ??$__crt_fast_encode_pointer@P6GHPAU_RTL_CONDITION_VARIABLE@@PAU_RTL_CRITICAL_SECTION@@K@Z@@YAP6GHPAU_RTL_CONDITION_VARIABLE@@PAU_RTL_CRITICAL_SECTION@@K@ZQ6GH01K@Z@Z 1008e630 f i MSVCRTD:thread_safe_statics.obj
 0002:0005c670       ??$__crt_fast_encode_pointer@P6GXPAU_RTL_CONDITION_VARIABLE@@@Z@@YAP6GXPAU_RTL_CONDITION_VARIABLE@@@ZQ6GX0@Z@Z 1008e670 f i MSVCRTD:thread_safe_statics.obj
 0002:0005c820       ?__scrt_is_event_api_used@@YA_NQAX@Z 1008e820 f i MSVCRTD:thread_safe_statics.obj
 0002:0005c8d0       __Init_thread_abort        1008e8d0 f   MSVCRTD:thread_safe_statics.obj
 0002:0005c900       __Init_thread_footer       1008e900 f   MSVCRTD:thread_safe_statics.obj
 0002:0005c960       __Init_thread_header       1008e960 f   MSVCRTD:thread_safe_statics.obj
 0002:0005c9f0       __Init_thread_lock         1008e9f0 f   MSVCRTD:thread_safe_statics.obj
 0002:0005ca10       __Init_thread_notify       1008ea10 f   MSVCRTD:thread_safe_statics.obj
 0002:0005ca90       __Init_thread_unlock       1008ea90 f   MSVCRTD:thread_safe_statics.obj
 0002:0005cab0       __Init_thread_wait         1008eab0 f   MSVCRTD:thread_safe_statics.obj
 0002:0005cb70       ??_U@YAPAXI@Z              1008eb70 f   MSVCRTD:new_array.obj
 0002:0005cb90       ??_V@YAXPAX@Z              1008eb90 f   MSVCRTD:delete_array.obj
 0002:0005d170       __CRT_INIT@12              1008f170 f   MSVCRTD:dll_dllmain.obj
 0002:0005d190       __DllMainCRTStartup@12     1008f190 f   MSVCRTD:dll_dllmain.obj
 0002:0005d1c0       ??3@YAXPAX@Z               1008f1c0 f   MSVCRTD:delete_scalar.obj
 0002:0005d1e0       ___raise_securityfailure   1008f1e0 f   MSVCRTD:gs_report.obj
 0002:0005d220       ___report_gsfailure        1008f220 f   MSVCRTD:gs_report.obj
 0002:0005d370       ___report_rangecheckfailure 1008f370 f   MSVCRTD:gs_report.obj
 0002:0005d380       ___report_securityfailure  1008f380 f   MSVCRTD:gs_report.obj
 0002:0005d490       ___report_securityfailureEx 1008f490 f   MSVCRTD:gs_report.obj
 0002:0005d6b0       ?_RTC_AllocaFailure@@YAXPAXPAU_RTC_ALLOCA_NODE@@H@Z 1008f6b0 f   MSVCRTD:_error_.obj
 0002:0005d7d0       ?_RTC_Failure@@YAXPAXH@Z   1008f7d0 f   MSVCRTD:_error_.obj
 0002:0005d840       ?_RTC_StackFailure@@YAXPAXPBD@Z 1008f840 f   MSVCRTD:_error_.obj
 0002:0005dcf0       __RTC_UninitUse            1008fcf0 f   MSVCRTD:_error_.obj
 0002:0005ddd0       ___local_stdio_printf_options 1008fdd0 f i MSVCRTD:_error_.obj
 0002:0005dde0       __vsprintf_s_l             1008fde0 f i MSVCRTD:_error_.obj
 0002:0005de20       _sprintf_s                 1008fe20 f i MSVCRTD:_error_.obj
 0002:0005de50       ?_RTC_GetErrorFunc@@YAP6AHHPBDH00ZZPBX@Z 1008fe50 f   MSVCRTD:_userapi_.obj
 0002:0005de60       ?_RTC_GetErrorFuncW@@YAP6AHHPB_WH00ZZPBX@Z 1008fe60 f   MSVCRTD:_userapi_.obj
 0002:0005de70       __RTC_GetErrDesc           1008fe70 f   MSVCRTD:_userapi_.obj
 0002:0005de90       __RTC_NumErrors            1008fe90 f   MSVCRTD:_userapi_.obj
 0002:0005dea0       __RTC_SetErrorFunc         1008fea0 f   MSVCRTD:_userapi_.obj
 0002:0005ded0       __RTC_SetErrorFuncW        1008fed0 f   MSVCRTD:_userapi_.obj
 0002:0005df00       __RTC_SetErrorType         1008ff00 f   MSVCRTD:_userapi_.obj
 0002:0005df30       ??0bad_alloc@std@@AAE@QBD@Z 1008ff30 f i MSVCRTD:throw_bad_alloc.obj
 0002:0005df60       ??0bad_alloc@std@@QAE@ABV01@@Z 1008ff60 f i MSVCRTD:throw_bad_alloc.obj
 0002:0005df90       ??0bad_alloc@std@@QAE@XZ   1008ff90 f i MSVCRTD:throw_bad_alloc.obj
 0002:0005dfc0       ??0bad_array_new_length@std@@QAE@ABV01@@Z 1008ffc0 f i MSVCRTD:throw_bad_alloc.obj
 0002:0005dff0       ??0bad_array_new_length@std@@QAE@XZ 1008fff0 f i MSVCRTD:throw_bad_alloc.obj
 0002:0005e020       ??0exception@std@@QAE@ABV01@@Z 10090020 f i MSVCRTD:throw_bad_alloc.obj
 0002:0005e070       ??0exception@std@@QAE@QBDH@Z 10090070 f i MSVCRTD:throw_bad_alloc.obj
 0002:0005e0b0       ??1bad_alloc@std@@UAE@XZ   100900b0 f i MSVCRTD:throw_bad_alloc.obj
 0002:0005e0d0       ??1bad_array_new_length@std@@UAE@XZ 100900d0 f i MSVCRTD:throw_bad_alloc.obj
 0002:0005e0f0       ??1exception@std@@UAE@XZ   100900f0 f i MSVCRTD:throw_bad_alloc.obj
 0002:0005e120       ??_Gbad_alloc@std@@UAEPAXI@Z 10090120 f i MSVCRTD:throw_bad_alloc.obj
 0002:0005e120       ??_Ebad_alloc@std@@UAEPAXI@Z 10090120 f i MSVCRTD:throw_bad_alloc.obj
 0002:0005e160       ??_Gbad_array_new_length@std@@UAEPAXI@Z 10090160 f i MSVCRTD:throw_bad_alloc.obj
 0002:0005e160       ??_Ebad_array_new_length@std@@UAEPAXI@Z 10090160 f i MSVCRTD:throw_bad_alloc.obj
 0002:0005e1a0       ??_Gexception@std@@UAEPAXI@Z 100901a0 f i MSVCRTD:throw_bad_alloc.obj
 0002:0005e1a0       ??_Eexception@std@@UAEPAXI@Z 100901a0 f i MSVCRTD:throw_bad_alloc.obj
 0002:0005e1e0       ?__scrt_throw_std_bad_alloc@@YAXXZ 100901e0 f   MSVCRTD:throw_bad_alloc.obj
 0002:0005e210       ?__scrt_throw_std_bad_array_new_length@@YAXXZ 10090210 f   MSVCRTD:throw_bad_alloc.obj
 0002:0005e240       ?what@exception@std@@UBEPBDXZ 10090240 f i MSVCRTD:throw_bad_alloc.obj
 0002:0005e280       ___isa_available_init      10090280 f   MSVCRTD:_cpu_disp_.obj
 0002:0005e610       __get_startup_argv_mode    10090610 f   MSVCRTD:argv_mode.obj
 0002:0005e620       ___scrt_is_ucrt_dll_in_use 10090620 f   MSVCRTD:ucrt_detection.obj
 0002:0005e650       ___scrt_fastfail           10090650 f   MSVCRTD:utility_desktop.obj
 0002:0005e7e0       ___scrt_get_show_window_mode 100907e0 f   MSVCRTD:utility_desktop.obj
 0002:0005e830       ___scrt_initialize_mta     10090830 f   MSVCRTD:utility_desktop.obj
 0002:0005e840       ___scrt_initialize_winrt   10090840 f   MSVCRTD:utility_desktop.obj
 0002:0005e850       ___scrt_is_managed_app     10090850 f   MSVCRTD:utility_desktop.obj
 0002:0005e900       ___scrt_set_unhandled_exception_filter 10090900 f   MSVCRTD:utility_desktop.obj
 0002:0005e920       ___scrt_exe_initialize_mta 10090920 f   MSVCRTD:utility_desktop.obj
 0002:0005e920       ___scrt_stub_for_initialize_mta 10090920 f   MSVCRTD:utility_desktop.obj
 0002:0005e930       ___scrt_unhandled_exception_filter@4 10090930 f   MSVCRTD:utility_desktop.obj
 0002:0005e9b0       __crt_debugger_hook        100909b0 f   MSVCRTD:utility_desktop.obj
 0002:0005e9d0       __except_handler4          100909d0 f   MSVCRTD:_chandler4gs_.obj
 0002:0005ea00       @_guard_check_icall_nop@4  10090a00 f i MSVCRTD:guard_support.obj
 0002:0005ea10       _ReadNoFence               10090a10 f i MSVCRTD:guard_support.obj
 0002:0005ea30       _ReadPointerNoFence        10090a30 f i MSVCRTD:guard_support.obj
 0002:0005ea50       __guard_icall_checks_enforced 10090a50 f i MSVCRTD:guard_support.obj
 0002:0005eb20       ___security_init_cookie    10090b20 f   MSVCRTD:gs_support.obj
 0002:0005ebc0       _DllMain@12                10090bc0 f   MSVCRTD:dll_dllmain_stub.obj
 0002:0005ebf0       ?__scrt_initialize_type_info@@YAXXZ 10090bf0 f   MSVCRTD:tncleanup.obj
 0002:0005ec10       ?__scrt_uninitialize_type_info@@YAXXZ 10090c10 f   MSVCRTD:tncleanup.obj
 0002:0005ec30       ___local_stdio_scanf_options 10090c30 f i MSVCRTD:default_local_stdio_options.obj
 0002:0005ec40       ___scrt_initialize_default_local_stdio_options 10090c40 f   MSVCRTD:default_local_stdio_options.obj
 0002:0005ec90       ___scrt_get_dyn_tls_init_callback 10090c90 f   MSVCRTD:dyn_tls_init.obj
 0002:0005eca0       __RTC_Initialize           10090ca0 f   MSVCRTD:_initsect_.obj
 0002:0005ece0       __RTC_Terminate            10090ce0 f   MSVCRTD:_initsect_.obj
 0002:0005f2b0       ?_RTC_GetSrcLine@@YAHPAEPA_WKPAH1K@Z 100912b0 f   MSVCRTD:_pdblkup_.obj
 0002:0005f720       __except_handler4_noexcept 10091720 f   MSVCRTD:chandler4_noexcept.obj
 0002:0005f778       ??0_Lockit@std@@QAE@H@Z    10091778 f   msvcprtd:MSVCP140D.dll
 0002:0005f77e       ??1_Lockit@std@@QAE@XZ     1009177e f   msvcprtd:MSVCP140D.dll
 0002:0005f784       ?_Xlength_error@std@@YAXPBD@Z 10091784 f   msvcprtd:MSVCP140D.dll
 0002:0005f78a       ?_Xout_of_range@std@@YAXPBD@Z 1009178a f   msvcprtd:MSVCP140D.dll
 0002:0005f790       _GetCurrentThreadId@0      10091790 f   kernel32:KERNEL32.dll
 0002:0005f796       _CloseHandle@4             10091796 f   kernel32:KERNEL32.dll
 0002:0005f79c       _EnterCriticalSection@4    1009179c f   kernel32:KERNEL32.dll
 0002:0005f7a2       _LeaveCriticalSection@4    100917a2 f   kernel32:KERNEL32.dll
 0002:0005f7a8       _InitializeCriticalSectionAndSpinCount@8 100917a8 f   kernel32:KERNEL32.dll
 0002:0005f7ae       _DeleteCriticalSection@4   100917ae f   kernel32:KERNEL32.dll
 0002:0005f7b4       _SetEvent@4                100917b4 f   kernel32:KERNEL32.dll
 0002:0005f7ba       _ResetEvent@4              100917ba f   kernel32:KERNEL32.dll
 0002:0005f7c0       _WaitForSingleObjectEx@12  100917c0 f   kernel32:KERNEL32.dll
 0002:0005f7c6       _CreateEventW@16           100917c6 f   kernel32:KERNEL32.dll
 0002:0005f7cc       _GetModuleHandleW@4        100917cc f   kernel32:KERNEL32.dll
 0002:0005f7d2       _GetProcAddress@8          100917d2 f   kernel32:KERNEL32.dll
 0002:0005f7d8       _UnhandledExceptionFilter@4 100917d8 f   kernel32:KERNEL32.dll
 0002:0005f7de       _SetUnhandledExceptionFilter@4 100917de f   kernel32:KERNEL32.dll
 0002:0005f7e4       _GetCurrentProcess@0       100917e4 f   kernel32:KERNEL32.dll
 0002:0005f7ea       _TerminateProcess@8        100917ea f   kernel32:KERNEL32.dll
 0002:0005f7f0       _IsProcessorFeaturePresent@4 100917f0 f   kernel32:KERNEL32.dll
 0002:0005f7f6       _IsDebuggerPresent@0       100917f6 f   kernel32:KERNEL32.dll
 0002:0005f7fc       _RaiseException@16         100917fc f   kernel32:KERNEL32.dll
 0002:0005f802       _MultiByteToWideChar@24    10091802 f   kernel32:KERNEL32.dll
 0002:0005f808       _WideCharToMultiByte@32    10091808 f   kernel32:KERNEL32.dll
 0002:0005f80e       _GetStartupInfoW@4         1009180e f   kernel32:KERNEL32.dll
 0002:0005f814       _QueryPerformanceCounter@4 10091814 f   kernel32:KERNEL32.dll
 0002:0005f81a       _GetCurrentProcessId@0     1009181a f   kernel32:KERNEL32.dll
 0002:0005f820       _GetSystemTimeAsFileTime@4 10091820 f   kernel32:KERNEL32.dll
 0002:0005f826       _DisableThreadLibraryCalls@4 10091826 f   kernel32:KERNEL32.dll
 0002:0005f82c       _InitializeSListHead@4     1009182c f   kernel32:KERNEL32.dll
 0002:0005f832       _GetLastError@0            10091832 f   kernel32:KERNEL32.dll
 0002:0005f838       _HeapAlloc@12              10091838 f   kernel32:KERNEL32.dll
 0002:0005f83e       _HeapFree@12               1009183e f   kernel32:KERNEL32.dll
 0002:0005f844       _GetProcessHeap@0          10091844 f   kernel32:KERNEL32.dll
 0002:0005f84a       _VirtualQuery@12           1009184a f   kernel32:KERNEL32.dll
 0002:0005f850       _FreeLibrary@4             10091850 f   kernel32:KERNEL32.dll
 0002:0005f856       __purecall                 10091856 f   vcruntimed:VCRUNTIME140D.dll
 0002:0005f85c       __CxxThrowException@8      1009185c f   vcruntimed:VCRUNTIME140D.dll
 0002:0005f862       ___CxxFrameHandler3        10091862 f   vcruntimed:VCRUNTIME140D.dll
 0002:0005f868       _memmove                   10091868 f   vcruntimed:VCRUNTIME140D.dll
 0002:0005f86e       _memcpy                    1009186e f   vcruntimed:VCRUNTIME140D.dll
 0002:0005f874       ___RTDynamicCast           10091874 f   vcruntimed:VCRUNTIME140D.dll
 0002:0005f87a       _memchr                    1009187a f   vcruntimed:VCRUNTIME140D.dll
 0002:0005f880       _memcmp                    10091880 f   vcruntimed:VCRUNTIME140D.dll
 0002:0005f886       ___std_exception_copy      10091886 f   vcruntimed:VCRUNTIME140D.dll
 0002:0005f88c       ___std_exception_destroy   1009188c f   vcruntimed:VCRUNTIME140D.dll
 0002:0005f892       _memset                    10091892 f   vcruntimed:VCRUNTIME140D.dll
 0002:0005f898       __except_handler4_common   10091898 f   vcruntimed:VCRUNTIME140D.dll
 0002:0005f89e       ___std_type_info_destroy_list 1009189e f   vcruntimed:VCRUNTIME140D.dll
 0002:0005f8a4       ___vcrt_GetModuleFileNameW 100918a4 f   vcruntimed:VCRUNTIME140D.dll
 0002:0005f8aa       ___vcrt_GetModuleHandleW   100918aa f   vcruntimed:VCRUNTIME140D.dll
 0002:0005f8b0       ___vcrt_LoadLibraryExW     100918b0 f   vcruntimed:VCRUNTIME140D.dll
 0002:0005f8b6       __beginthreadex            100918b6 f   ucrtd:ucrtbased.dll
 0002:0005f8bc       __endthreadex              100918bc f   ucrtd:ucrtbased.dll
 0002:0005f8c2       __invalid_parameter        100918c2 f   ucrtd:ucrtbased.dll
 0002:0005f8c8       __CrtDbgReport             100918c8 f   ucrtd:ucrtbased.dll
 0002:0005f8ce       _tan                       100918ce f   ucrtd:ucrtbased.dll
 0002:0005f8d4       _strlen                    100918d4 f   ucrtd:ucrtbased.dll
 0002:0005f8da       __CrtDbgReportW            100918da f   ucrtd:ucrtbased.dll
 0002:0005f8e0       __callnewh                 100918e0 f   ucrtd:ucrtbased.dll
 0002:0005f8e6       _malloc                    100918e6 f   ucrtd:ucrtbased.dll
 0002:0005f8ec       __seh_filter_dll           100918ec f   ucrtd:ucrtbased.dll
 0002:0005f8f2       __configure_narrow_argv    100918f2 f   ucrtd:ucrtbased.dll
 0002:0005f8f8       __initialize_narrow_environment 100918f8 f   ucrtd:ucrtbased.dll
 0002:0005f8fe       __initialize_onexit_table  100918fe f   ucrtd:ucrtbased.dll
 0002:0005f904       __register_onexit_function 10091904 f   ucrtd:ucrtbased.dll
 0002:0005f90a       __execute_onexit_table     1009190a f   ucrtd:ucrtbased.dll
 0002:0005f910       __crt_atexit               10091910 f   ucrtd:ucrtbased.dll
 0002:0005f916       __crt_at_quick_exit        10091916 f   ucrtd:ucrtbased.dll
 0002:0005f91c       __cexit                    1009191c f   ucrtd:ucrtbased.dll
 0002:0005f922       __initterm                 10091922 f   ucrtd:ucrtbased.dll
 0002:0005f928       __initterm_e               10091928 f   ucrtd:ucrtbased.dll
 0002:0005f92e       __free_dbg                 1009192e f   ucrtd:ucrtbased.dll
 0002:0005f934       _strcpy_s                  10091934 f   ucrtd:ucrtbased.dll
 0002:0005f93a       _strcat_s                  1009193a f   ucrtd:ucrtbased.dll
 0002:0005f940       ___stdio_common_vsprintf_s 10091940 f   ucrtd:ucrtbased.dll
 0002:0005f946       _terminate                 10091946 f   ucrtd:ucrtbased.dll
 0002:0005f94c       __wmakepath_s              1009194c f   ucrtd:ucrtbased.dll
 0002:0005f952       __wsplitpath_s             10091952 f   ucrtd:ucrtbased.dll
 0002:0005f958       _wcscpy_s                  10091958 f   ucrtd:ucrtbased.dll
 0002:0005f960       ___scrt_stub_for_acrt_initialize 10091960 f   MSVCRTD:ucrt_stubs.obj
 0002:0005f960       ___acrt_initialize         10091960 f   MSVCRTD:ucrt_stubs.obj
 0002:0005f960       ___vcrt_initialize         10091960 f   MSVCRTD:ucrt_stubs.obj
 0002:0005f970       ___acrt_thread_attach      10091970 f   MSVCRTD:ucrt_stubs.obj
 0002:0005f970       ___vcrt_thread_attach      10091970 f   MSVCRTD:ucrt_stubs.obj
 0002:0005f970       ___scrt_stub_for_acrt_thread_attach 10091970 f   MSVCRTD:ucrt_stubs.obj
 0002:0005f980       ___scrt_stub_for_acrt_thread_detach 10091980 f   MSVCRTD:ucrt_stubs.obj
 0002:0005f980       ___vcrt_thread_detach      10091980 f   MSVCRTD:ucrt_stubs.obj
 0002:0005f980       ___acrt_thread_detach      10091980 f   MSVCRTD:ucrt_stubs.obj
 0002:0005f990       ___acrt_uninitialize       10091990 f   MSVCRTD:ucrt_stubs.obj
 0002:0005f990       ___scrt_stub_for_acrt_uninitialize 10091990 f   MSVCRTD:ucrt_stubs.obj
 0002:0005f990       ___vcrt_uninitialize       10091990 f   MSVCRTD:ucrt_stubs.obj
 0002:0005f9a0       ___vcrt_uninitialize_critical 100919a0 f   MSVCRTD:ucrt_stubs.obj
 0002:0005f9a0       ___scrt_stub_for_acrt_uninitialize_critical 100919a0 f   MSVCRTD:ucrt_stubs.obj
 0002:0005f9a0       ___acrt_uninitialize_critical 100919a0 f   MSVCRTD:ucrt_stubs.obj
 0002:0005f9b0       ___scrt_stub_for_is_c_termination_complete 100919b0 f   MSVCRTD:ucrt_stubs.obj
 0002:0005f9b0       __is_c_termination_complete 100919b0 f   MSVCRTD:ucrt_stubs.obj
 0003:00000000       ___xc_a                    1009f000     MSVCRTD:initializers.obj
 0003:00000264       ___xc_z                    1009f264     MSVCRTD:initializers.obj
 0003:00000368       ___xi_a                    1009f368     MSVCRTD:initializers.obj
 0003:00000570       ___xi_z                    1009f570     MSVCRTD:initializers.obj
 0003:00000674       ___xl_a                    1009f674     MSVCRTD:tlssup.obj
 0003:00000678       ___xl_z                    1009f678     MSVCRTD:tlssup.obj
 0003:0000067c       ___xp_a                    1009f67c     MSVCRTD:initializers.obj
 0003:00000780       ___xp_z                    1009f780     MSVCRTD:initializers.obj
 0003:00000884       ___xt_a                    1009f884     MSVCRTD:initializers.obj
 0003:00000988       ___xt_z                    1009f988     MSVCRTD:initializers.obj
 0003:00000a98       ??_7cTimerWrapper@TimerWrapper@@6B@ 1009fa98     TimerWrapper.obj
 0003:00000aa4       ??_C@_04CAJHHLFB@Glum@     1009faa4     TimerWrapper.obj
 0003:00000ab0       ??_7cMutexWrapper@TimerWrapper@@6B@ 1009fab0     cGlumShapeFactory.obj
 0003:00000abc       ??_7cMovementBase@Glumer@@6B@ 1009fabc     cGlumShapeFactory.obj
 0003:00000ac8       ??_C@_0BB@FCMFBGOM@invalid?5argument@ 1009fac8     cGlumShapeFactory.obj
 0003:00000adc       ??_C@_02DKCKIIND@?$CFs@    1009fadc     cGlumShapeFactory.obj
 0003:00000ae0       ??_C@_1CG@JNLFBNGN@?$AA?$CC?$AAi?$AAn?$AAv?$AAa?$AAl?$AAi?$AAd?$AA?5?$AAa?$AAr?$AAg?$AAu?$AAm?$AAe@ 1009fae0     cGlumShapeFactory.obj
 0003:00000b10       ??_C@_0BJ@LFDBABJJ@ITERATOR?5LIST?5CORRUPTED?$CB@ 1009fb10     cGlumShapeFactory.obj
 0003:00000b30       ??_C@_0GJ@DMCEMOMH@c?3?2program?5files?5?$CIx86?$CJ?2microsof@ 1009fb30     cGlumShapeFactory.obj
 0003:00000bb0       ??_C@_1NC@HPHBFJCM@?$AAc?$AA?3?$AA?2?$AAp?$AAr?$AAo?$AAg?$AAr?$AAa?$AAm?$AA?5?$AAf?$AAi?$AAl?$AAe@ 1009fbb0     cGlumShapeFactory.obj
 0003:00000cb0       ??_C@_1EE@KLDMFDFL@?$AAs?$AAt?$AAd?$AA?3?$AA?3?$AA_?$AAI?$AAt?$AAe?$AAr?$AAa?$AAt?$AAo?$AAr?$AA_@ 1009fcb0     cGlumShapeFactory.obj
 0003:00000d04       ??_C@_1DG@PLBPCAEM@?$AA?$CC?$AAI?$AAT?$AAE?$AAR?$AAA?$AAT?$AAO?$AAR?$AA?5?$AAL?$AAI?$AAS?$AAT?$AA?5@ 1009fd04     cGlumShapeFactory.obj
 0003:00000d48       ??_C@_0GJ@CAJJPMGE@c?3?2program?5files?5?$CIx86?$CJ?2microsof@ 1009fd48     cGlumShapeFactory.obj
 0003:00000dc8       ??_C@_1NC@ICJKIMIP@?$AAc?$AA?3?$AA?2?$AAp?$AAr?$AAo?$AAg?$AAr?$AAa?$AAm?$AA?5?$AAf?$AAi?$AAl?$AAe@ 1009fdc8     cGlumShapeFactory.obj
 0003:00000ec8       ??_C@_1EK@NIFDJFDG@?$AAs?$AAt?$AAd?$AA?3?$AA?3?$AA_?$AAA?$AAd?$AAj?$AAu?$AAs?$AAt?$AA_?$AAm?$AAa@ 1009fec8     cGlumShapeFactory.obj
 0003:00000f24       ??_7cGluperDirection@Glumer@@6B@ 1009ff24     cGlumShapeFactory.obj
 0003:00000f30       ??_7cObjectBase@Glumer@@6B@ 1009ff30     cGlumShapeFactory.obj
 0003:00000f40       ??_7cObjectMoveableBase@Glumer@@6B@ 1009ff40     cGlumShapeFactory.obj
 0003:00000f50       ??_7cGluperCenter@Glumer@@6B@ 1009ff50     cGlumShapeFactory.obj
 0003:00000f60       ??_7cGluperOrientation@Glumer@@6B@ 1009ff60     cGlumShapeFactory.obj
 0003:00000f70       ??_7cGlumShapeBase@Glumer@@6B@ 1009ff70     cGlumShapeFactory.obj
 0003:00000f84       ??_7cMovement_Camera@Glumer@@6BcGlumShapeBase@1@@ 1009ff84     cGlumShapeFactory.obj
 0003:00000f98       ??_7cMovement_Camera@Glumer@@6BcMovementBase@1@@ 1009ff98     cGlumShapeFactory.obj
 0003:00000fa8       ??_7cMovement_Camera@Glumer@@6BcTimerWrapper@TimerWrapper@@@ 1009ffa8     cGlumShapeFactory.obj
 0003:00000fb8       ??_7cGlumShape_RegularPolyhedron@Glumer@@6BcObjectMoveableBase@1@@ 1009ffb8     cGlumShapeFactory.obj
 0003:00000fcc       ??_7cGlumShape_RegularPolyhedron@Glumer@@6BcGlumShapeBase@1@@ 1009ffcc     cGlumShapeFactory.obj
 0003:00000fe0       ??_7cGlumShape_RegularPolyhedron@Glumer@@6BcSelectableBase@1@@ 1009ffe0     cGlumShapeFactory.obj
 0003:00000fec       ??_7cGluperScale@Glumer@@6B@ 1009ffec     cGlumShapeFactory.obj
 0003:00000ffc       ??_7cTimer_PistonMotion@Glumer@@6B@ 1009fffc     cGlumShapeFactory.obj
 0003:0000100c       ??_7cGlumShape_SwitchGadget@Glumer@@6BcGlumShapeBase@1@@ 100a000c     cGlumShapeFactory.obj
 0003:00001020       ??_7cGlumShape_SwitchGadget@Glumer@@6BcObjectMoveableBase@1@@ 100a0020     cGlumShapeFactory.obj
 0003:00001030       ??_7cGlumShape_SwitchGadget@Glumer@@6BcSelectableBase@1@@ 100a0030     cGlumShapeFactory.obj
 0003:00001038       ??_C@_0BP@OLDKBHLM@map?1set?5iterators?5incompatible@ 100a0038     cGlumShapeFactory.obj
 0003:00001060       ??_C@_0GG@KBILHLPB@c?3?2program?5files?5?$CIx86?$CJ?2microsof@ 100a0060     cGlumShapeFactory.obj
 0003:000010e0       ??_C@_1MM@ECCNBGLC@?$AAc?$AA?3?$AA?2?$AAp?$AAr?$AAo?$AAg?$AAr?$AAa?$AAm?$AA?5?$AAf?$AAi?$AAl?$AAe@ 100a00e0     cGlumShapeFactory.obj
 0003:000011d8       ??_C@_1BFE@LDPKEHPL@?$AAs?$AAt?$AAd?$AA?3?$AA?3?$AA_?$AAT?$AAr?$AAe?$AAe?$AA_?$AAc?$AAo?$AAn?$AAs@ 100a01d8     cGlumShapeFactory.obj
 0003:00001370       ??_C@_1EC@JLIDLCDH@?$AA?$CC?$AAm?$AAa?$AAp?$AA?1?$AAs?$AAe?$AAt?$AA?5?$AAi?$AAt?$AAe?$AAr?$AAa?$AAt@ 100a0370     cGlumShapeFactory.obj
 0003:000013c0       ??_C@_0GH@PHBFPDPI@c?3?2program?5files?5?$CIx86?$CJ?2microsof@ 100a03c0     cGlumShapeFactory.obj
 0003:00001440       ??_C@_1MO@GGNBFPEH@?$AAc?$AA?3?$AA?2?$AAp?$AAr?$AAo?$AAg?$AAr?$AAa?$AAm?$AA?5?$AAf?$AAi?$AAl?$AAe@ 100a0440     cGlumShapeFactory.obj
 0003:00001538       ??_C@_0DE@CHADHGFF@can?8t?5dereference?5value?9initial@ 100a0538     cGlumShapeFactory.obj
 0003:00001578       ??_C@_1BAG@BIKFFHLE@?$AAs?$AAt?$AAd?$AA?3?$AA?3?$AA_?$AAV?$AAe?$AAc?$AAt?$AAo?$AAr?$AA_?$AAc?$AAo@ 100a0578     cGlumShapeFactory.obj
 0003:000016b8       ??_C@_1GM@FNBFNBEL@?$AA?$CC?$AAc?$AAa?$AAn?$AA?8?$AAt?$AA?5?$AAd?$AAe?$AAr?$AAe?$AAf?$AAe?$AAr?$AAe@ 100a06b8     cGlumShapeFactory.obj
 0003:0000173c       ??_C@_0CP@MDHADBHN@can?8t?5dereference?5out?5of?5range?5@ 100a073c     cGlumShapeFactory.obj
 0003:00001778       ??_C@_1GC@JDCKOLAC@?$AA?$CC?$AAc?$AAa?$AAn?$AA?8?$AAt?$AA?5?$AAd?$AAe?$AAr?$AAe?$AAf?$AAe?$AAr?$AAe@ 100a0778     cGlumShapeFactory.obj
 0003:000017f0       ??_C@_0BO@CAOBBIOC@vector?5iterators?5incompatible@ 100a07f0     cGlumShapeFactory.obj
 0003:00001818       ??_C@_1EA@DJDGNIII@?$AA?$CC?$AAv?$AAe?$AAc?$AAt?$AAo?$AAr?$AA?5?$AAi?$AAt?$AAe?$AAr?$AAa?$AAt?$AAo@ 100a0818     cGlumShapeFactory.obj
 0003:00001868       ??_C@_1NG@DAPFFJEF@?$AAs?$AAt?$AAd?$AA?3?$AA?3?$AA_?$AAV?$AAe?$AAc?$AAt?$AAo?$AAr?$AA_?$AAc?$AAo@ 100a0868     cGlumShapeFactory.obj
 0003:00001968       ??_C@_0BD@OLBABOEK@vector?$DMT?$DO?5too?5long@ 100a0968     cGlumShapeFactory.obj
 0003:00001980       ??_C@_1BBI@FOIEGGNK@?$AAs?$AAt?$AAd?$AA?3?$AA?3?$AA_?$AAV?$AAe?$AAc?$AAt?$AAo?$AAr?$AA_?$AAc?$AAo@ 100a0980     cGlumShapeFactory.obj
 0003:00001ad0       ??_C@_1BCA@BMAFICNB@?$AAs?$AAt?$AAd?$AA?3?$AA?3?$AA_?$AAV?$AAe?$AAc?$AAt?$AAo?$AAr?$AA_?$AAc?$AAo@ 100a0ad0     cGlumShapeFactory.obj
 0003:00001c30       ??_C@_1BBO@DJGDIMFH@?$AAs?$AAt?$AAd?$AA?3?$AA?3?$AA_?$AAV?$AAe?$AAc?$AAt?$AAo?$AAr?$AA_?$AAc?$AAo@ 100a0c30     cGlumShapeFactory.obj
 0003:00001d88       ??_C@_1BAI@HIFHAIGE@?$AAs?$AAt?$AAd?$AA?3?$AA?3?$AA_?$AAV?$AAe?$AAc?$AAt?$AAo?$AAr?$AA_?$AAc?$AAo@ 100a0d88     cGlumShapeFactory.obj
 0003:00001ec8       ??_C@_1BAE@KDECIMFM@?$AAs?$AAt?$AAd?$AA?3?$AA?3?$AA_?$AAV?$AAe?$AAc?$AAt?$AAo?$AAr?$AA_?$AAc?$AAo@ 100a0ec8     cGlumShapeFactory.obj
 0003:00002000       ??_C@_1BAM@FJJEJOJA@?$AAs?$AAt?$AAd?$AA?3?$AA?3?$AA_?$AAV?$AAe?$AAc?$AAt?$AAo?$AAr?$AA_?$AAc?$AAo@ 100a1000     cGlumShapeFactory.obj
 0003:00002148       ??_C@_1BAK@HNNEPFLF@?$AAs?$AAt?$AAd?$AA?3?$AA?3?$AA_?$AAV?$AAe?$AAc?$AAt?$AAo?$AAr?$AA_?$AAc?$AAo@ 100a1148     cGlumShapeFactory.obj
 0003:00002288       ??_C@_1BBG@IKLEENIO@?$AAs?$AAt?$AAd?$AA?3?$AA?3?$AA_?$AAV?$AAe?$AAc?$AAt?$AAo?$AAr?$AA_?$AAc?$AAo@ 100a1288     cGlumShapeFactory.obj
 0003:000023d8       ??_C@_0DC@KEKNBAEB@can?8t?5increment?5value?9initializ@ 100a13d8     cGlumShapeFactory.obj
 0003:00002418       ??_C@_1GI@EDCILPL@?$AA?$CC?$AAc?$AAa?$AAn?$AA?8?$AAt?$AA?5?$AAi?$AAn?$AAc?$AAr?$AAe?$AAm?$AAe?$AAn@ 100a1418     cGlumShapeFactory.obj
 0003:00002494       ??_C@_0CJ@OAAAAGPM@can?8t?5increment?5vector?5iterator@ 100a1494     cGlumShapeFactory.obj
 0003:000024c8       ??_C@_1FG@LDPPKMGP@?$AA?$CC?$AAc?$AAa?$AAn?$AA?8?$AAt?$AA?5?$AAi?$AAn?$AAc?$AAr?$AAe?$AAm?$AAe?$AAn@ 100a14c8     cGlumShapeFactory.obj
 0003:00002530       ??_C@_1NA@KDANOKNP@?$AAs?$AAt?$AAd?$AA?3?$AA?3?$AA_?$AAV?$AAe?$AAc?$AAt?$AAo?$AAr?$AA_?$AAc?$AAo@ 100a1530     cGlumShapeFactory.obj
 0003:00002630       ??_C@_1NI@CDNGJJHP@?$AAs?$AAt?$AAd?$AA?3?$AA?3?$AA_?$AAV?$AAe?$AAc?$AAt?$AAo?$AAr?$AA_?$AAc?$AAo@ 100a1630     cGlumShapeFactory.obj
 0003:00002738       ??_C@_1BCA@KNJLMGGB@?$AAs?$AAt?$AAd?$AA?3?$AA?3?$AA_?$AAV?$AAe?$AAc?$AAt?$AAo?$AAr?$AA_?$AAc?$AAo@ 100a1738     cGlumShapeFactory.obj
 0003:00002898       ??_C@_1BAA@PCJCJNPH@?$AAs?$AAt?$AAd?$AA?3?$AA?3?$AA_?$AAV?$AAe?$AAc?$AAt?$AAo?$AAr?$AA_?$AAc?$AAo@ 100a1898     cGlumShapeFactory.obj
 0003:000029d0       ??_C@_1BAM@OIAKNKCA@?$AAs?$AAt?$AAd?$AA?3?$AA?3?$AA_?$AAV?$AAe?$AAc?$AAt?$AAo?$AAr?$AA_?$AAc?$AAo@ 100a19d0     cGlumShapeFactory.obj
 0003:00002b18       ??_C@_1BAO@MAGCMDBG@?$AAs?$AAt?$AAd?$AA?3?$AA?3?$AA_?$AAV?$AAe?$AAc?$AAt?$AAo?$AAr?$AA_?$AAc?$AAo@ 100a1b18     cGlumShapeFactory.obj
 0003:00002c60       ??_C@_1BBG@DLCKAJDO@?$AAs?$AAt?$AAd?$AA?3?$AA?3?$AA_?$AAV?$AAe?$AAc?$AAt?$AAo?$AAr?$AA_?$AAc?$AAo@ 100a1c60     cGlumShapeFactory.obj
 0003:00002db0       ??_C@_1BBE@ODBHMJGA@?$AAs?$AAt?$AAd?$AA?3?$AA?3?$AA_?$AAV?$AAe?$AAc?$AAt?$AAo?$AAr?$AA_?$AAc?$AAo@ 100a1db0     cGlumShapeFactory.obj
 0003:00002efc       ??_C@_0DG@LCFNIIPB@cannot?5dereference?5value?9initia@ 100a1efc     cGlumShapeFactory.obj
 0003:00002f40       ??_C@_1BFC@JDPFHGFM@?$AAs?$AAt?$AAd?$AA?3?$AA?3?$AA_?$AAT?$AAr?$AAe?$AAe?$AA_?$AAc?$AAo?$AAn?$AAs@ 100a1f40     cGlumShapeFactory.obj
 0003:000030d8       ??_C@_1HA@ILGCNILF@?$AA?$CC?$AAc?$AAa?$AAn?$AAn?$AAo?$AAt?$AA?5?$AAd?$AAe?$AAr?$AAe?$AAf?$AAe?$AAr@ 100a20d8     cGlumShapeFactory.obj
 0003:00003160       ??_C@_0CI@OKFEHCEB@cannot?5dereference?5end?5map?1set?5@ 100a2160     cGlumShapeFactory.obj
 0003:00003190       ??_C@_1FE@NKHAAGMB@?$AA?$CC?$AAc?$AAa?$AAn?$AAn?$AAo?$AAt?$AA?5?$AAd?$AAe?$AAr?$AAe?$AAf?$AAe?$AAr@ 100a2190     cGlumShapeFactory.obj
 0003:000031f4       ??_C@_0CF@JILFNJOL@map?1set?5erase?5iterator?5outside?5@ 100a21f4     cGlumShapeFactory.obj
 0003:00003220       ??_C@_1BLM@JAJGBHJB@?$AAs?$AAt?$AAd?$AA?3?$AA?3?$AA_?$AAT?$AAr?$AAe?$AAe?$AA?$DM?$AAc?$AAl?$AAa?$AAs@ 100a2220     cGlumShapeFactory.obj
 0003:00003438       ??_C@_1EO@CEDAEPC@?$AA?$CC?$AAm?$AAa?$AAp?$AA?1?$AAs?$AAe?$AAt?$AA?5?$AAe?$AAr?$AAa?$AAs?$AAe?$AA?5@ 100a2438     cGlumShapeFactory.obj
 0003:00003498       ??_C@_1BAI@MJMJEMNE@?$AAs?$AAt?$AAd?$AA?3?$AA?3?$AA_?$AAV?$AAe?$AAc?$AAt?$AAo?$AAr?$AA_?$AAc?$AAo@ 100a2498     cGlumShapeFactory.obj
 0003:000035d4       ??_C@_0DE@DMNPKCGM@cannot?5increment?5value?9initiali@ 100a25d4     cGlumShapeFactory.obj
 0003:00003618       ??_C@_1BFE@BDAHKODO@?$AAs?$AAt?$AAd?$AA?3?$AA?3?$AA_?$AAT?$AAr?$AAe?$AAe?$AA_?$AAc?$AAo?$AAn?$AAs@ 100a2618     cGlumShapeFactory.obj
 0003:000037b0       ??_C@_1GM@BJMCGEGI@?$AA?$CC?$AAc?$AAa?$AAn?$AAn?$AAo?$AAt?$AA?5?$AAi?$AAn?$AAc?$AAr?$AAe?$AAm?$AAe@ 100a27b0     cGlumShapeFactory.obj
 0003:00003834       ??_C@_0CG@NLEHEOHN@cannot?5increment?5end?5map?1set?5it@ 100a2834     cGlumShapeFactory.obj
 0003:00003868       ??_C@_1FA@KLFCDGNE@?$AA?$CC?$AAc?$AAa?$AAn?$AAn?$AAo?$AAt?$AA?5?$AAi?$AAn?$AAc?$AAr?$AAe?$AAm?$AAe@ 100a2868     cGlumShapeFactory.obj
 0003:000038c8       ??_C@_1BAK@NHKGLJIK@?$AAs?$AAt?$AAd?$AA?3?$AA?3?$AA_?$AAT?$AAr?$AAe?$AAe?$AA_?$AAv?$AAa?$AAl?$AA?$DM@ 100a28c8     cGlumShapeFactory.obj
 0003:00003a08       ??_C@_0BD@FEEMDEPI@invalid?5comparator@ 100a2a08     cGlumShapeFactory.obj
 0003:00003a20       ??_C@_1CI@JONCLBEJ@?$AAs?$AAt?$AAd?$AA?3?$AA?3?$AA_?$AAD?$AAe?$AAb?$AAu?$AAg?$AA_?$AAl?$AAt?$AA_@ 100a2a20     cGlumShapeFactory.obj
 0003:00003a50       ??_C@_1CK@NDNHPKPI@?$AA?$CC?$AAi?$AAn?$AAv?$AAa?$AAl?$AAi?$AAd?$AA?5?$AAc?$AAo?$AAm?$AAp?$AAa?$AAr@ 100a2a50     cGlumShapeFactory.obj
 0003:00003a88       ??_C@_1EO@GFNCMDLA@?$AAs?$AAt?$AAd?$AA?3?$AA?3?$AA_?$AAA?$AAl?$AAl?$AAo?$AAc?$AAa?$AAt?$AAe?$AA_@ 100a2a88     cGlumShapeFactory.obj
 0003:00003ae8       ??_C@_1CG@LJCPDKEJ@?$AAs?$AAt?$AAd?$AA?3?$AA?3?$AA_?$AAV?$AAe?$AAr?$AAi?$AAf?$AAy?$AA_?$AAr?$AAa@ 100a2ae8     cGlumShapeFactory.obj
 0003:00003b18       ??_C@_0DI@PBEELKIF@vector?5iterators?5in?5range?5are?5f@ 100a2b18     cGlumShapeFactory.obj
 0003:00003b60       ??_C@_1HE@KBMFDAFB@?$AA?$CC?$AAv?$AAe?$AAc?$AAt?$AAo?$AAr?$AA?5?$AAi?$AAt?$AAe?$AAr?$AAa?$AAt?$AAo@ 100a2b60     cGlumShapeFactory.obj
 0003:00003bec       ??_C@_0CB@LIAHLBAO@vector?5iterator?5range?5transpose@ 100a2bec     cGlumShapeFactory.obj
 0003:00003c18       ??_C@_1EG@ODKBEHFN@?$AA?$CC?$AAv?$AAe?$AAc?$AAt?$AAo?$AAr?$AA?5?$AAi?$AAt?$AAe?$AAr?$AAa?$AAt?$AAo@ 100a2c18     cGlumShapeFactory.obj
 0003:00003c6c       ??_C@_0CG@MOLIBF@map?1set?5insert?5iterator?5outside@ 100a2c6c     cGlumShapeFactory.obj
 0003:00003ca0       ??_C@_1BMK@GHECAMPF@?$AAs?$AAt?$AAd?$AA?3?$AA?3?$AA_?$AAT?$AAr?$AAe?$AAe?$AA?$DM?$AAc?$AAl?$AAa?$AAs@ 100a2ca0     cGlumShapeFactory.obj
 0003:00003ec8       ??_C@_1FA@HNFOKDLB@?$AA?$CC?$AAm?$AAa?$AAp?$AA?1?$AAs?$AAe?$AAt?$AA?5?$AAi?$AAn?$AAs?$AAe?$AAr?$AAt@ 100a2ec8     cGlumShapeFactory.obj
 0003:00003f28       ??_C@_0DE@JECMPNID@cannot?5decrement?5value?9initiali@ 100a2f28     cGlumShapeFactory.obj
 0003:00003f68       ??_C@_1BFE@OADFBCPP@?$AAs?$AAt?$AAd?$AA?3?$AA?3?$AA_?$AAT?$AAr?$AAe?$AAe?$AA_?$AAc?$AAo?$AAn?$AAs@ 100a2f68     cGlumShapeFactory.obj
 0003:00004100       ??_C@_1GM@ECOECPCJ@?$AA?$CC?$AAc?$AAa?$AAn?$AAn?$AAo?$AAt?$AA?5?$AAd?$AAe?$AAc?$AAr?$AAe?$AAm?$AAe@ 100a3100     cGlumShapeFactory.obj
 0003:00004184       ??_C@_0CI@FJCIBNID@cannot?5decrement?5begin?5map?1set?5@ 100a3184     cGlumShapeFactory.obj
 0003:000041b8       ??_C@_1FE@HAEBNAIH@?$AA?$CC?$AAc?$AAa?$AAn?$AAn?$AAo?$AAt?$AA?5?$AAd?$AAe?$AAc?$AAr?$AAe?$AAm?$AAe@ 100a31b8     cGlumShapeFactory.obj
 0003:0000421c       ??_C@_0BE@JONHPENG@map?1set?$DMT?$DO?5too?5long@ 100a321c     cGlumShapeFactory.obj
 0003:00004234       __real@3ca3d70a            100a3234     cGlumShapeFactory.obj
 0003:00004238       __real@3dcccccd            100a3238     cGlumShapeFactory.obj
 0003:0000423c       __real@3e800000            100a323c     cGlumShapeFactory.obj
 0003:00004240       __real@3f6b851f            100a3240     cGlumShapeFactory.obj
 0003:00004244       __real@3f6dd2f2            100a3244     cGlumShapeFactory.obj
 0003:00004248       __real@3f800000            100a3248     cGlumShapeFactory.obj
 0003:00004250       __real@3fe279a745901d18    100a3250     cGlumShapeFactory.obj
 0003:0000425c       __real@40000000            100a325c     cGlumShapeFactory.obj
 0003:00004260       __real@40880000            100a3260     cGlumShapeFactory.obj
 0003:00004264       __real@bdcccccd            100a3264     cGlumShapeFactory.obj
 0003:00004268       __real@bf800000            100a3268     cGlumShapeFactory.obj
 0003:00004270       __real@bfe279a745901d18    100a3270     cGlumShapeFactory.obj
 0003:00004280       __xmm@80000000800000008000000080000000 100a3280     cGlumShapeFactory.obj
 0003:000042b4       ??_7cTimer_RockMotion@Glumer@@6B@ 100a32b4     cGlumShape_RegularPolyhedron.obj
 0003:000042c0       ??_C@_0CG@PHHCFCMA@vector?5emplace?5iterator?5outside@ 100a32c0     cGlumShape_RegularPolyhedron.obj
 0003:000042f0       ??_C@_1OC@PAJNFBKM@?$AAs?$AAt?$AAd?$AA?3?$AA?3?$AAv?$AAe?$AAc?$AAt?$AAo?$AAr?$AA?$DM?$AAs?$AAt?$AAr@ 100a32f0     cGlumShape_RegularPolyhedron.obj
 0003:00004400       ??_C@_1FA@JJEJIKGE@?$AA?$CC?$AAv?$AAe?$AAc?$AAt?$AAo?$AAr?$AA?5?$AAe?$AAm?$AAp?$AAl?$AAa?$AAc?$AAe@ 100a3400     cGlumShape_RegularPolyhedron.obj
 0003:00004460       __real@41000000            100a3460     cGlumShape_RegularPolyhedron.obj
 0003:00004464       __real@41800000            100a3464     cGlumShape_RegularPolyhedron.obj
 0003:00004468       __real@42000000            100a3468     cGlumShape_RegularPolyhedron.obj
 0003:0000446c       __real@42800000            100a346c     cGlumShape_RegularPolyhedron.obj
 0003:00004470       __real@43000000            100a3470     cGlumShape_RegularPolyhedron.obj
 0003:00004478       __real@43b40000            100a3478     cMovement_Camera.obj
 0003:00004484       ?A0f@cPolyLetter@Glumer@@2QBMB 100a3484     cPolyLetter.obj
 0003:000044ac       ?A1f@cPolyLetter@Glumer@@2QBMB 100a34ac     cPolyLetter.obj
 0003:000044c8       ?B0f@cPolyLetter@Glumer@@2QBMB 100a34c8     cPolyLetter.obj
 0003:00004550       ?C0f@cPolyLetter@Glumer@@2QBMB 100a3550     cPolyLetter.obj
 0003:000045b8       ?D0f@cPolyLetter@Glumer@@2QBMB 100a35b8     cPolyLetter.obj
 0003:0000461c       ?E0f@cPolyLetter@Glumer@@2QBMB 100a361c     cPolyLetter.obj
 0003:00004650       ?E1f@cPolyLetter@Glumer@@2QBMB 100a3650     cPolyLetter.obj
 0003:0000466c       ?F0f@cPolyLetter@Glumer@@2QBMB 100a366c     cPolyLetter.obj
 0003:00004694       ?F1f@cPolyLetter@Glumer@@2QBMB 100a3694     cPolyLetter.obj
 0003:000046b0       ?G0f@cPolyLetter@Glumer@@2QBMB 100a36b0     cPolyLetter.obj
 0003:0000472c       ?H0f@cPolyLetter@Glumer@@2QBMB 100a372c     cPolyLetter.obj
 0003:00004748       ?H1f@cPolyLetter@Glumer@@2QBMB 100a3748     cPolyLetter.obj
 0003:00004764       ?H2f@cPolyLetter@Glumer@@2QBMB 100a3764     cPolyLetter.obj
 0003:00004780       ?I0f@cPolyLetter@Glumer@@2QBMB 100a3780     cPolyLetter.obj
 0003:0000479c       ?I1f@cPolyLetter@Glumer@@2QBMB 100a379c     cPolyLetter.obj
 0003:000047b8       ?I2f@cPolyLetter@Glumer@@2QBMB 100a37b8     cPolyLetter.obj
 0003:000047d4       ?J0f@cPolyLetter@Glumer@@2QBMB 100a37d4     cPolyLetter.obj
 0003:00004808       ?K0f@cPolyLetter@Glumer@@2QBMB 100a3808     cPolyLetter.obj
 0003:00004824       ?K1f@cPolyLetter@Glumer@@2QBMB 100a3824     cPolyLetter.obj
 0003:00004840       ?K2f@cPolyLetter@Glumer@@2QBMB 100a3840     cPolyLetter.obj
 0003:0000485c       ?L0f@cPolyLetter@Glumer@@2QBMB 100a385c     cPolyLetter.obj
 0003:00004888       ?M0f@cPolyLetter@Glumer@@2QBMB 100a3888     cPolyLetter.obj
 0003:000048c8       ?N0f@cPolyLetter@Glumer@@2QBMB 100a38c8     cPolyLetter.obj
 0003:00004900       ?O0f@cPolyLetter@Glumer@@2QBMB 100a3900     cPolyLetter.obj
 0003:00004970       ?P0f@cPolyLetter@Glumer@@2QBMB 100a3970     cPolyLetter.obj
 0003:000049d4       ?Q1f@cPolyLetter@Glumer@@2QBMB 100a39d4     cPolyLetter.obj
 0003:000049f0       ?R1f@cPolyLetter@Glumer@@2QBMB 100a39f0     cPolyLetter.obj
 0003:00004a10       ?S0f@cPolyLetter@Glumer@@2QBMB 100a3a10     cPolyLetter.obj
 0003:00004a98       ?T0f@cPolyLetter@Glumer@@2QBMB 100a3a98     cPolyLetter.obj
 0003:00004ab4       ?T1f@cPolyLetter@Glumer@@2QBMB 100a3ab4     cPolyLetter.obj
 0003:00004ad0       ?U0f@cPolyLetter@Glumer@@2QBMB 100a3ad0     cPolyLetter.obj
 0003:00004b1c       ?V0f@cPolyLetter@Glumer@@2QBMB 100a3b1c     cPolyLetter.obj
 0003:00004b48       ?W0f@cPolyLetter@Glumer@@2QBMB 100a3b48     cPolyLetter.obj
 0003:00004ba0       ?X0f@cPolyLetter@Glumer@@2QBMB 100a3ba0     cPolyLetter.obj
 0003:00004bc8       ?X1f@cPolyLetter@Glumer@@2QBMB 100a3bc8     cPolyLetter.obj
 0003:00004bf0       ?Y0f@cPolyLetter@Glumer@@2QBMB 100a3bf0     cPolyLetter.obj
 0003:00004c18       ?Y1f@cPolyLetter@Glumer@@2QBMB 100a3c18     cPolyLetter.obj
 0003:00004c34       ?Z0f@cPolyLetter@Glumer@@2QBMB 100a3c34     cPolyLetter.obj
 0003:00004c68       ?N00f@cPolyLetter@Glumer@@2QBMB 100a3c68     cPolyLetter.obj
 0003:00004ccc       ?N01f@cPolyLetter@Glumer@@2QBMB 100a3ccc     cPolyLetter.obj
 0003:00004ce8       ?N10f@cPolyLetter@Glumer@@2QBMB 100a3ce8     cPolyLetter.obj
 0003:00004d10       ?N11f@cPolyLetter@Glumer@@2QBMB 100a3d10     cPolyLetter.obj
 0003:00004d30       ?N20f@cPolyLetter@Glumer@@2QBMB 100a3d30     cPolyLetter.obj
 0003:00004d70       ?N30f@cPolyLetter@Glumer@@2QBMB 100a3d70     cPolyLetter.obj
 0003:00004dec       ?N40f@cPolyLetter@Glumer@@2QBMB 100a3dec     cPolyLetter.obj
 0003:00004e20       ?N50f@cPolyLetter@Glumer@@2QBMB 100a3e20     cPolyLetter.obj
 0003:00004e88       ?N60f@cPolyLetter@Glumer@@2QBMB 100a3e88     cPolyLetter.obj
 0003:00004f04       ?N70f@cPolyLetter@Glumer@@2QBMB 100a3f04     cPolyLetter.obj
 0003:00004f30       ?N80f@cPolyLetter@Glumer@@2QBMB 100a3f30     cPolyLetter.obj
 0003:00004fe0       ?N90f@cPolyLetter@Glumer@@2QBMB 100a3fe0     cPolyLetter.obj
 0003:00005044       ?MINUSf@cPolyLetter@Glumer@@2QBMB 100a4044     cPolyLetter.obj
 0003:00005060       ?DOTf@cPolyLetter@Glumer@@2QBMB 100a4060     cPolyLetter.obj
 0003:0000507c       ?ERROR0f@cPolyLetter@Glumer@@2QBMB 100a407c     cPolyLetter.obj
 0003:00005320       ??_C@_1BBI@KLCLIOGJ@?$AAs?$AAt?$AAd?$AA?3?$AA?3?$AA_?$AAT?$AAr?$AAe?$AAe?$AA_?$AAc?$AAo?$AAn?$AAs@ 100a4320     cPolyLetter.obj
 0003:00005470       ??_C@_1BDE@LNJNLPCL@?$AAs?$AAt?$AAd?$AA?3?$AA?3?$AA_?$AAT?$AAr?$AAe?$AAe?$AA?$DM?$AAc?$AAl?$AAa?$AAs@ 100a4470     cPolyLetter.obj
 0003:000055e8       ??_C@_1BBI@LNGGHKM@?$AAs?$AAt?$AAd?$AA?3?$AA?3?$AA_?$AAT?$AAr?$AAe?$AAe?$AA_?$AAc?$AAo?$AAn?$AAs@ 100a45e8     cPolyLetter.obj
 0003:00005738       ??_C@_1MO@FJFCOMKG@?$AAs?$AAt?$AAd?$AA?3?$AA?3?$AA_?$AAT?$AAr?$AAe?$AAe?$AA_?$AAv?$AAa?$AAl?$AA?$DM@ 100a4738     cPolyLetter.obj
 0003:00005830       __real@40800000            100a4830     cPolyLetter.obj
 0003:0000583c       ??_7cGlumShape_Console@Glumer@@6BcObjectMoveableBase@1@@ 100a483c     cGlumShape_Console.obj
 0003:0000584c       ??_7cGlumShape_Console@Glumer@@6BcGlumShapeBase@1@@ 100a484c     cGlumShape_Console.obj
 0003:0000585c       ??_C@_0BO@PFKOHNJC@vector?5subscript?5out?5of?5range@ 100a485c     cGlumShape_Console.obj
 0003:00005880       ??_C@_1BME@NCIPHHDN@?$AAs?$AAt?$AAd?$AA?3?$AA?3?$AAv?$AAe?$AAc?$AAt?$AAo?$AAr?$AA?$DM?$AAc?$AAl?$AAa@ 100a4880     cGlumShape_Console.obj
 0003:00005aa0       ??_C@_1EA@LEKOKFNB@?$AA?$CC?$AAv?$AAe?$AAc?$AAt?$AAo?$AAr?$AA?5?$AAs?$AAu?$AAb?$AAs?$AAc?$AAr?$AAi@ 100a4aa0     cGlumShape_Console.obj
 0003:00005af0       ??_C@_0GI@CJGNOLDA@c?3?2program?5files?5?$CIx86?$CJ?2microsof@ 100a4af0     cGlumShape_Console.obj
 0003:00005b70       ??_C@_1NA@JLAKACOO@?$AAc?$AA?3?$AA?2?$AAp?$AAr?$AAo?$AAg?$AAr?$AAa?$AAm?$AA?5?$AAf?$AAi?$AAl?$AAe@ 100a4b70     cGlumShape_Console.obj
 0003:00005c70       ??_C@_1BBG@BLCLGLIG@?$AAs?$AAt?$AAd?$AA?3?$AA?3?$AA_?$AAT?$AAr?$AAe?$AAe?$AA_?$AAc?$AAo?$AAn?$AAs@ 100a4c70     cGlumShape_Console.obj
 0003:00005dc0       ??_C@_0BA@JFNIOLAK@string?5too?5long@ 100a4dc0     cGlumShape_Console.obj
 0003:00005dd4       ??_C@_0DI@FIGNHEDK@string?5iterators?5in?5range?5are?5f@ 100a4dd4     cGlumShape_Console.obj
 0003:00005e18       ??_C@_1HE@MFNJODIC@?$AA?$CC?$AAs?$AAt?$AAr?$AAi?$AAn?$AAg?$AA?5?$AAi?$AAt?$AAe?$AAr?$AAa?$AAt?$AAo@ 100a4e18     cGlumShape_Console.obj
 0003:00005ea4       ??_C@_0CB@KDGGCAAF@string?5iterator?5range?5transpose@ 100a4ea4     cGlumShape_Console.obj
 0003:00005ed0       ??_C@_1EG@NKDFABAL@?$AA?$CC?$AAs?$AAt?$AAr?$AAi?$AAn?$AAg?$AA?5?$AAi?$AAt?$AAe?$AAr?$AAa?$AAt?$AAo@ 100a4ed0     cGlumShape_Console.obj
 0003:00005f28       ??_C@_1BEC@OIFNKGGJ@?$AAs?$AAt?$AAd?$AA?3?$AA?3?$AA_?$AAT?$AAr?$AAe?$AAe?$AA?$DM?$AAc?$AAl?$AAa?$AAs@ 100a4f28     cGlumShape_Console.obj
 0003:000060b0       ??_C@_1BBI@PIOENLGN@?$AAs?$AAt?$AAd?$AA?3?$AA?3?$AA_?$AAT?$AAr?$AAe?$AAe?$AA_?$AAc?$AAo?$AAn?$AAs@ 100a50b0     cGlumShape_Console.obj
 0003:00006200       __real@3c23d70a            100a5200     cGlumShape_Console.obj
 0003:00006204       __real@3ecccccd            100a5204     cGlumShape_Console.obj
 0003:00006208       __real@3f19999a            100a5208     cGlumShape_Console.obj
 0003:0000620c       __real@3f666666            100a520c     cGlumShape_Console.obj
 0003:00006210       __real@becccccd            100a5210     cGlumShape_Console.obj
 0003:00006224       ??_7cSelectableBase@Glumer@@6B@ 100a5224     cSelectableBase.obj
 0003:00006230       ??_C@_1PE@PMNGDHNG@?$AAs?$AAt?$AAd?$AA?3?$AA?3?$AA_?$AAV?$AAe?$AAc?$AAt?$AAo?$AAr?$AA_?$AAc?$AAo@ 100a5230     cSelectableBase.obj
 0003:00006358       ??_C@_1PG@NDLAMANK@?$AAs?$AAt?$AAd?$AA?3?$AA?3?$AA_?$AAV?$AAe?$AAc?$AAt?$AAo?$AAr?$AA_?$AAc?$AAo@ 100a5358     cSelectableBase.obj
 0003:00006480       __real@3fb99999a0000000    100a5480     cSelectableBase.obj
 0003:00006490       __real@3ff0000000000000    100a5490     cSelectableBase.obj
 0003:000064a0       __real@4046800000000000    100a54a0     cSelectableBase.obj
 0003:000064b0       __real@40b3880000000000    100a54b0     cSelectableBase.obj
 0003:000064c0       __xmm@41f00000000000000000000000000000 100a54c0     cSelectableBase.obj
 0003:000064d4       __real@c3b40000            100a54d4     cTimer_RockMotion.obj
 0003:000064dc       __real@40490fdb            100a54dc     Glu.obj
 0003:000064e4       ??_C@_01CLKCMJKC@?5@       100a54e4     Glumer.obj
 0003:000064e8       ?dud@?1??Get@cGlumShapeFactory@Glumer@@QAE?AUPTR@cGlumShapeBase@3@I@Z@4U453@B 100a54e8     Glumer.obj
 0003:000064ec       ??_C@_0CE@EAMOGAIE@vector?5erase?5iterator?5outside?5r@ 100a54ec     Glumer.obj
 0003:00006518       ??_C@_1PG@HLLKPIG@?$AAs?$AAt?$AAd?$AA?3?$AA?3?$AAv?$AAe?$AAc?$AAt?$AAo?$AAr?$AA?$DM?$AAs?$AAt?$AAr@ 100a5518     Glumer.obj
 0003:00006640       ??_C@_1EM@BEMPOGMM@?$AA?$CC?$AAv?$AAe?$AAc?$AAt?$AAo?$AAr?$AA?5?$AAe?$AAr?$AAa?$AAs?$AAe?$AA?5?$AAi@ 100a5640     Glumer.obj
 0003:0000669c       ??_C@_0BO@OKMPKPLD@back?$CI?$CJ?5called?5on?5empty?5vector@ 100a569c     Glumer.obj
 0003:000066c0       ??_C@_1II@MLMHKPHL@?$AAs?$AAt?$AAd?$AA?3?$AA?3?$AAv?$AAe?$AAc?$AAt?$AAo?$AAr?$AA?$DM?$AAu?$AAn?$AAs@ 100a56c0     Glumer.obj
 0003:00006768       ??_C@_1EA@OBAHGFFK@?$AA?$CC?$AAb?$AAa?$AAc?$AAk?$AA?$CI?$AA?$CJ?$AA?5?$AAc?$AAa?$AAl?$AAl?$AAe?$AAd?$AA?5@ 100a5768     Glumer.obj
 0003:000067b4       ??_C@_0BI@PJHAPDF@vector?5empty?5before?5pop@ 100a57b4     Glumer.obj
 0003:000067d0       ??_C@_1JA@HPOMHFOF@?$AAs?$AAt?$AAd?$AA?3?$AA?3?$AAv?$AAe?$AAc?$AAt?$AAo?$AAr?$AA?$DM?$AAu?$AAn?$AAs@ 100a57d0     Glumer.obj
 0003:0000687c       ??_C@_1DE@IPIBMNGD@?$AA?$CC?$AAv?$AAe?$AAc?$AAt?$AAo?$AAr?$AA?5?$AAe?$AAm?$AAp?$AAt?$AAy?$AA?5?$AAb@ 100a587c     Glumer.obj
 0003:000068c0       ??_C@_1ME@DGOBDFJB@?$AAs?$AAt?$AAd?$AA?3?$AA?3?$AAv?$AAe?$AAc?$AAt?$AAo?$AAr?$AA?$DM?$AAc?$AAl?$AAa@ 100a58c0     Glumer.obj
 0003:000069b0       ??_C@_1MM@EHBFBHPJ@?$AAs?$AAt?$AAd?$AA?3?$AA?3?$AAv?$AAe?$AAc?$AAt?$AAo?$AAr?$AA?$DM?$AAc?$AAl?$AAa@ 100a59b0     Glumer.obj
 0003:00006aa8       ??_C@_1BBI@LDOKCKJK@?$AAs?$AAt?$AAd?$AA?3?$AA?3?$AAv?$AAe?$AAc?$AAt?$AAo?$AAr?$AA?$DM?$AAs?$AAt?$AAr@ 100a5aa8     Glumer.obj
 0003:00006bf8       ??_C@_1BCA@JICICIKJ@?$AAs?$AAt?$AAd?$AA?3?$AA?3?$AAv?$AAe?$AAc?$AAt?$AAo?$AAr?$AA?$DM?$AAs?$AAt?$AAr@ 100a5bf8     Glumer.obj
 0003:00006d58       ??_C@_1PA@CDBACGCI@?$AAs?$AAt?$AAd?$AA?3?$AA?3?$AAv?$AAe?$AAc?$AAt?$AAo?$AAr?$AA?$DM?$AAs?$AAt?$AAr@ 100a5d58     Glumer.obj
 0003:00006e78       ??_C@_1PI@KOFEIOGI@?$AAs?$AAt?$AAd?$AA?3?$AA?3?$AAv?$AAe?$AAc?$AAt?$AAo?$AAr?$AA?$DM?$AAs?$AAt?$AAr@ 100a5e78     Glumer.obj
 0003:00006fa8       ??_C@_1OO@NPIECLFO@?$AAs?$AAt?$AAd?$AA?3?$AA?3?$AA_?$AAV?$AAe?$AAc?$AAt?$AAo?$AAr?$AA_?$AAc?$AAo@ 100a5fa8     Glumer.obj
 0003:000070c8       ??_C@_1BAG@PPGPKKDM@?$AAs?$AAt?$AAd?$AA?3?$AA?3?$AA_?$AAV?$AAe?$AAc?$AAt?$AAo?$AAr?$AA_?$AAc?$AAo@ 100a60c8     Glumer.obj
 0003:00007208       ??_C@_1BAO@GDMDAGKP@?$AAs?$AAt?$AAd?$AA?3?$AA?3?$AA_?$AAV?$AAe?$AAc?$AAt?$AAo?$AAr?$AA_?$AAc?$AAo@ 100a6208     Glumer.obj
 0003:00007350       ??_C@_1BGI@CFILNOOP@?$AAs?$AAt?$AAd?$AA?3?$AA?3?$AA_?$AAV?$AAe?$AAc?$AAt?$AAo?$AAr?$AA_?$AAc?$AAo@ 100a6350     Glumer.obj
 0003:00007500       ??_C@_1BHA@LNOGLNAE@?$AAs?$AAt?$AAd?$AA?3?$AA?3?$AA_?$AAV?$AAe?$AAc?$AAt?$AAo?$AAr?$AA_?$AAc?$AAo@ 100a6500     Glumer.obj
 0003:000076c0       ??_C@_1BAO@NCFNECBP@?$AAs?$AAt?$AAd?$AA?3?$AA?3?$AA_?$AAV?$AAe?$AAc?$AAt?$AAo?$AAr?$AA_?$AAc?$AAo@ 100a66c0     Glumer.obj
 0003:00007804       ??_C@_0CO@LHPFLLJB@cannot?5seek?5value?9initialized?5v@ 100a6804     Glumer.obj
 0003:00007840       ??_C@_1BHG@CACGJPPI@?$AAs?$AAt?$AAd?$AA?3?$AA?3?$AA_?$AAV?$AAe?$AAc?$AAt?$AAo?$AAr?$AA_?$AAc?$AAo@ 100a6840     Glumer.obj
 0003:00007a00       ??_C@_1GA@EIHBFEJD@?$AA?$CC?$AAc?$AAa?$AAn?$AAn?$AAo?$AAt?$AA?5?$AAs?$AAe?$AAe?$AAk?$AA?5?$AAv?$AAa@ 100a6a00     Glumer.obj
 0003:00007a74       ??_C@_0CJ@DIFMEJBE@cannot?5seek?5vector?5iterator?5bef@ 100a6a74     Glumer.obj
 0003:00007aa8       ??_C@_1FG@JCGKNFIB@?$AA?$CC?$AAc?$AAa?$AAn?$AAn?$AAo?$AAt?$AA?5?$AAs?$AAe?$AAe?$AAk?$AA?5?$AAv?$AAe@ 100a6aa8     Glumer.obj
 0003:00007b10       ??_C@_0CG@JDIOCKHH@cannot?5seek?5vector?5iterator?5aft@ 100a6b10     Glumer.obj
 0003:00007b40       ??_C@_1FA@LCODAPOP@?$AA?$CC?$AAc?$AAa?$AAn?$AAn?$AAo?$AAt?$AA?5?$AAs?$AAe?$AAe?$AAk?$AA?5?$AAv?$AAe@ 100a6b40     Glumer.obj
 0003:00007ba0       ??_C@_0BI@CFPLBAOH@invalid?5string?5position@ 100a6ba0     Glumer.obj
 0003:00007bbc       ??_C@_0BB@KBEKGHFK@integer?5overflow@ 100a6bbc     Glumer.obj
 0003:00007bd0       ??_C@_1CM@MJCLAPGA@?$AAs?$AAt?$AAd?$AA?3?$AA?3?$AA_?$AAG?$AAe?$AAt?$AA_?$AAu?$AAn?$AAw?$AAr?$AAa@ 100a6bd0     Glumer.obj
 0003:00007c04       ??_C@_1CG@NMONALKO@?$AA?$CC?$AAi?$AAn?$AAt?$AAe?$AAg?$AAe?$AAr?$AA?5?$AAo?$AAv?$AAe?$AAr?$AAf?$AAl@ 100a6c04     Glumer.obj
 0003:00007c38       ??_C@_1PG@BPODGFBE@?$AAs?$AAt?$AAd?$AA?3?$AA?3?$AAv?$AAe?$AAc?$AAt?$AAo?$AAr?$AA?$DM?$AAs?$AAt?$AAr@ 100a6c38     Glumer.obj
 0003:00007d60       ??_C@_1BBO@JJNJHEFI@?$AAs?$AAt?$AAd?$AA?3?$AA?3?$AAv?$AAe?$AAc?$AAt?$AAo?$AAr?$AA?$DM?$AAs?$AAt?$AAr@ 100a6d60     Glumer.obj
 0003:00007ebc       ??_7type_info@@6B@         100a6ebc     MSVCRTD:std_type_info_static.obj
 0003:00007ec4       ??_C@_17CNPHIMPH@?$AA?$CF?$AAl?$AAs@ 100a6ec4     MSVCRTD:thread_safe_statics.obj
 0003:00007ed0       ??_C@_1EC@JIJBPKFM@?$AAa?$AAp?$AAi?$AA?9?$AAm?$AAs?$AA?9?$AAw?$AAi?$AAn?$AA?9?$AAc?$AAo?$AAr?$AAe@ 100a6ed0     MSVCRTD:thread_safe_statics.obj
 0003:00007f20       ??_C@_1BK@MGMFAEKH@?$AAk?$AAe?$AAr?$AAn?$AAe?$AAl?$AA3?$AA2?$AA?4?$AAd?$AAl?$AAl@ 100a6f20     MSVCRTD:thread_safe_statics.obj
 0003:00007f40       ??_C@_0BM@HLJJNPAH@InitializeConditionVariable@ 100a6f40     MSVCRTD:thread_safe_statics.obj
 0003:00007f64       ??_C@_0BJ@JEBJOJFJ@SleepConditionVariableCS@ 100a6f64     MSVCRTD:thread_safe_statics.obj
 0003:00007f84       ??_C@_0BJ@PGPPEPCC@WakeAllConditionVariable@ 100a6f84     MSVCRTD:thread_safe_statics.obj
 0003:00007fa8       ??_C@_1HK@LKKBAJNK@?$AAf?$AA?3?$AA?2?$AAd?$AAd?$AA?2?$AAv?$AAc?$AAt?$AAo?$AAo?$AAl?$AAs?$AA?2?$AAc@ 100a6fa8     MSVCRTD:thread_safe_statics.obj
 0003:0000803c       __pRawDllMain              100a703c     MSVCRTD:dll_dllmain.obj
 0003:0000803c       __pDefaultRawDllMain       100a703c     MSVCRTD:dll_dllmain.obj
 0003:00008108       ??_C@_0NN@NGPKDKPD@The?5value?5of?5ESP?5was?5not?5proper@ 100a7108     MSVCRTD:_error_.obj
 0003:00008218       ??_C@_0BBN@GPMLNJCF@A?5cast?5to?5a?5smaller?5data?5type?5h@ 100a7218     MSVCRTD:_error_.obj
 0003:00008370       ??_C@_0BN@FFOINMNJ@Stack?5memory?5was?5corrupted?6?$AN@ 100a7370     MSVCRTD:_error_.obj
 0003:00008394       ??_C@_0DG@HKJMLLLP@A?5local?5variable?5was?5used?5befor@ 100a7394     MSVCRTD:_error_.obj
 0003:000083d4       ??_C@_0CM@NGINOKPC@Stack?5memory?5around?5_alloca?5was@ 100a73d4     MSVCRTD:_error_.obj
 0003:00008408       ??_C@_0BO@GNIAFIKK@Unknown?5Runtime?5Check?5Error?6?$AN@ 100a7408     MSVCRTD:_error_.obj
 0003:00008430       ??_C@_1GM@OLMCBDMB@?$AAR?$AAu?$AAn?$AAt?$AAi?$AAm?$AAe?$AA?5?$AAC?$AAh?$AAe?$AAc?$AAk?$AA?5?$AAE@ 100a7430     MSVCRTD:_error_.obj
 0003:000084b8       ??_C@_1EA@NFKNIFJP@?$AAR?$AAu?$AAn?$AA?9?$AAT?$AAi?$AAm?$AAe?$AA?5?$AAC?$AAh?$AAe?$AAc?$AAk?$AA?5@ 100a74b8     MSVCRTD:_error_.obj
 0003:00008504       ??_C@_0BB@PFFGGCJP@Unknown?5Filename@ 100a7504     MSVCRTD:_error_.obj
 0003:00008518       ??_C@_0BE@GNBOBNCK@Unknown?5Module?5Name@ 100a7518     MSVCRTD:_error_.obj
 0003:00008530       ??_C@_0CA@IODNCDPG@Run?9Time?5Check?5Failure?5?$CD?$CFd?5?9?5?$CFs@ 100a7530     MSVCRTD:_error_.obj
 0003:00008558       ??_C@_0CG@IAFNJNEE@Stack?5corrupted?5near?5unknown?5va@ 100a7558     MSVCRTD:_error_.obj
 0003:00008588       ??_C@_05MKKEDADM@?$CF?42X?5@ 100a7588     MSVCRTD:_error_.obj
 0003:00008590       ??_C@_0EJ@LJKNEOLN@Stack?5area?5around?5_alloca?5memor@ 100a7590     MSVCRTD:_error_.obj
 0003:000085e8       ??_C@_01EEMJAFIK@?6@       100a75e8     MSVCRTD:_error_.obj
 0003:000085ec       ??_C@_02LLMPMKNF@?$DO?5@   100a75ec     MSVCRTD:_error_.obj
 0003:000085f0       ??_C@_08OMAHNMHJ@?6Data?3?5?$DM@ 100a75f0     MSVCRTD:_error_.obj
 0003:000085fc       ??_C@_0CK@DKGBICFE@?6Allocation?5number?5within?5this?5@ 100a75fc     MSVCRTD:_error_.obj
 0003:00008630       ??_C@_07DFDJCKFN@?6Size?3?5@ 100a7630     MSVCRTD:_error_.obj
 0003:0000863c       ??_C@_0N@MHFFIMFG@?6Address?3?50x@ 100a763c     MSVCRTD:_error_.obj
 0003:00008650       ??_C@_0EI@CLEPFNGI@Stack?5area?5around?5_alloca?5memor@ 100a7650     MSVCRTD:_error_.obj
 0003:000086a8       ??_C@_0BK@ODNDAGKB@?$CFs?$CFs?$CFp?$CFs?$CFzd?$CFs?$CFd?$CFs?$CFs?$CFs?$CFs?$CFs@ 100a76a8     MSVCRTD:_error_.obj
 0003:000086c8       ??_C@_0DE@OHJBPMBP@A?5variable?5is?5being?5used?5withou@ 100a76c8     MSVCRTD:_error_.obj
 0003:00008720       ??_C@_0BJ@HEGAHDFO@Stack?5pointer?5corruption@ 100a7720     MSVCRTD:_userapi_.obj
 0003:00008740       ??_C@_0CK@FEGOIOPB@Cast?5to?5smaller?5type?5causing?5lo@ 100a7740     MSVCRTD:_userapi_.obj
 0003:00008774       ??_C@_0BI@CIGMDCBH@Stack?5memory?5corruption@ 100a7774     MSVCRTD:_userapi_.obj
 0003:00008790       ??_C@_0CK@CNLNOEPB@Local?5variable?5used?5before?5init@ 100a7790     MSVCRTD:_userapi_.obj
 0003:000087c4       ??_C@_0BP@OGBCLIBO@Stack?5around?5_alloca?5corrupted@ 100a77c4     MSVCRTD:_userapi_.obj
 0003:000087f0       ??_7exception@std@@6B@     100a77f0     MSVCRTD:throw_bad_alloc.obj
 0003:000087fc       ??_C@_0BC@EOODALEL@Unknown?5exception@ 100a77fc     MSVCRTD:throw_bad_alloc.obj
 0003:00008818       ??_7bad_alloc@std@@6B@     100a7818     MSVCRTD:throw_bad_alloc.obj
 0003:00008824       ??_C@_0P@GHFPNOJB@bad?5allocation@ 100a7824     MSVCRTD:throw_bad_alloc.obj
 0003:0000883c       ??_7bad_array_new_length@std@@6B@ 100a783c     MSVCRTD:throw_bad_alloc.obj
 0003:00008848       ??_C@_0BF@KINCDENJ@bad?5array?5new?5length@ 100a7848     MSVCRTD:throw_bad_alloc.obj
 0003:000088c0       ??_C@_1EI@MLPKHBGE@?$AAa?$AAp?$AAi?$AA?9?$AAm?$AAs?$AA?9?$AAw?$AAi?$AAn?$AA?9?$AAc?$AAo?$AAr?$AAe@ 100a78c0     MSVCRTD:_pdblkup_.obj
 0003:00008918       ??_C@_1BK@JHLNAEJL@?$AAa?$AAd?$AAv?$AAa?$AAp?$AAi?$AA3?$AA2?$AA?4?$AAd?$AAl?$AAl@ 100a7918     MSVCRTD:_pdblkup_.obj
 0003:00008938       ??_C@_0O@COHOBMLB@RegOpenKeyExW@ 100a7938     MSVCRTD:_pdblkup_.obj
 0003:00008948       ??_C@_0BB@GLNAEDBD@RegQueryValueExW@ 100a7948     MSVCRTD:_pdblkup_.obj
 0003:0000895c       ??_C@_0M@HLOHPNFA@RegCloseKey@ 100a795c     MSVCRTD:_pdblkup_.obj
 0003:00008970       ??_C@_1HE@EBEAGLFB@?$AAS?$AAO?$AAF?$AAT?$AAW?$AAA?$AAR?$AAE?$AA?2?$AAW?$AAo?$AAw?$AA6?$AA4?$AA3@ 100a7970     MSVCRTD:_pdblkup_.obj
 0003:000089fc       ??_C@_1BG@EABPBLLF@?$AAP?$AAr?$AAo?$AAd?$AAu?$AAc?$AAt?$AAD?$AAi?$AAr@ 100a79fc     MSVCRTD:_pdblkup_.obj
 0003:00008a3c       ??_C@_1BC@JINFINNJ@?$AAM?$AAS?$AAP?$AAD?$AAB?$AA1?$AA4?$AA0@ 100a7a3c     MSVCRTD:_pdblkup_.obj
 0003:00008a54       ??_C@_0BB@KCIACLNC@PDBOpenValidate5@ 100a7a54     MSVCRTD:_pdblkup_.obj
 0003:00008a68       ??_C@_01KDCPPGHE@r@        100a7a68     MSVCRTD:_pdblkup_.obj
 0003:00008aa8       __load_config_used         100a7aa8     MSVCRTD:loadcfg.obj
 0003:00008d60       __tls_used                 100a7d60     MSVCRTD:tlssup.obj
 0003:00008e7c       ??_R4cTimerWrapper@TimerWrapper@@6B@ 100a7e7c     TimerWrapper.obj
 0003:00008e94       ??_R3cTimerWrapper@TimerWrapper@@8 100a7e94     TimerWrapper.obj
 0003:00008ea8       ??_R2cTimerWrapper@TimerWrapper@@8 100a7ea8     TimerWrapper.obj
 0003:00008eb0       ??_R1A@?0A@EA@cTimerWrapper@TimerWrapper@@8 100a7eb0     TimerWrapper.obj
 0003:00008ed4       ??_R4cMutexWrapper@TimerWrapper@@6B@ 100a7ed4     cGlumShapeFactory.obj
 0003:00008eec       ??_R3cMutexWrapper@TimerWrapper@@8 100a7eec     cGlumShapeFactory.obj
 0003:00008f00       ??_R2cMutexWrapper@TimerWrapper@@8 100a7f00     cGlumShapeFactory.obj
 0003:00008f08       ??_R1A@?0A@EA@cMutexWrapper@TimerWrapper@@8 100a7f08     cGlumShapeFactory.obj
 0003:00008f2c       ??_R4cMovementBase@Glumer@@6B@ 100a7f2c     cGlumShapeFactory.obj
 0003:00008f44       ??_R3cMovementBase@Glumer@@8 100a7f44     cGlumShapeFactory.obj
 0003:00008f58       ??_R2cMovementBase@Glumer@@8 100a7f58     cGlumShapeFactory.obj
 0003:00008f60       ??_R1A@?0A@EA@cMovementBase@Glumer@@8 100a7f60     cGlumShapeFactory.obj
 0003:00008f84       ??_R4cGluperDirection@Glumer@@6B@ 100a7f84     cGlumShapeFactory.obj
 0003:00008f9c       ??_R3cGluperDirection@Glumer@@8 100a7f9c     cGlumShapeFactory.obj
 0003:00008fb0       ??_R2cGluperDirection@Glumer@@8 100a7fb0     cGlumShapeFactory.obj
 0003:00008fb8       ??_R1A@?0A@EA@cGluperDirection@Glumer@@8 100a7fb8     cGlumShapeFactory.obj
 0003:00008fdc       ??_R4cObjectBase@Glumer@@6B@ 100a7fdc     cGlumShapeFactory.obj
 0003:00008ff4       ??_R3cObjectBase@Glumer@@8 100a7ff4     cGlumShapeFactory.obj
 0003:00009008       ??_R2cObjectBase@Glumer@@8 100a8008     cGlumShapeFactory.obj
 0003:00009010       ??_R1A@?0A@EA@cObjectBase@Glumer@@8 100a8010     cGlumShapeFactory.obj
 0003:00009034       ??_R4cObjectMoveableBase@Glumer@@6B@ 100a8034     cGlumShapeFactory.obj
 0003:0000904c       ??_R3cObjectMoveableBase@Glumer@@8 100a804c     cGlumShapeFactory.obj
 0003:00009060       ??_R2cObjectMoveableBase@Glumer@@8 100a8060     cGlumShapeFactory.obj
 0003:0000906c       ??_R1A@?0A@EA@cObjectMoveableBase@Glumer@@8 100a806c     cGlumShapeFactory.obj
 0003:00009090       ??_R4cGluperCenter@Glumer@@6B@ 100a8090     cGlumShapeFactory.obj
 0003:000090a8       ??_R3cGluperCenter@Glumer@@8 100a80a8     cGlumShapeFactory.obj
 0003:000090bc       ??_R2cGluperCenter@Glumer@@8 100a80bc     cGlumShapeFactory.obj
 0003:000090c8       ??_R1A@?0A@EA@cGluperCenter@Glumer@@8 100a80c8     cGlumShapeFactory.obj
 0003:000090ec       ??_R4cGluperOrientation@Glumer@@6B@ 100a80ec     cGlumShapeFactory.obj
 0003:00009104       ??_R3cGluperOrientation@Glumer@@8 100a8104     cGlumShapeFactory.obj
 0003:00009118       ??_R2cGluperOrientation@Glumer@@8 100a8118     cGlumShapeFactory.obj
 0003:00009124       ??_R1A@?0A@EA@cGluperOrientation@Glumer@@8 100a8124     cGlumShapeFactory.obj
 0003:00009148       ??_R4cGlumShapeBase@Glumer@@6B@ 100a8148     cGlumShapeFactory.obj
 0003:00009160       ??_R3cGlumShapeBase@Glumer@@8 100a8160     cGlumShapeFactory.obj
 0003:00009174       ??_R2cGlumShapeBase@Glumer@@8 100a8174     cGlumShapeFactory.obj
 0003:0000917c       ??_R1A@?0A@EA@cGlumShapeBase@Glumer@@8 100a817c     cGlumShapeFactory.obj
 0003:000091a0       ??_R4cMovement_Camera@Glumer@@6BcGlumShapeBase@1@@ 100a81a0     cGlumShapeFactory.obj
 0003:000091b8       ??_R3cMovement_Camera@Glumer@@8 100a81b8     cGlumShapeFactory.obj
 0003:000091cc       ??_R2cMovement_Camera@Glumer@@8 100a81cc     cGlumShapeFactory.obj
 0003:000091e0       ??_R1A@?0A@EA@cMovement_Camera@Glumer@@8 100a81e0     cGlumShapeFactory.obj
 0003:00009204       ??_R1KE@?0A@EA@cMovementBase@Glumer@@8 100a8204     cGlumShapeFactory.obj
 0003:00009228       ??_R1KM@?0A@EN@cTimerWrapper@TimerWrapper@@8 100a8228     cGlumShapeFactory.obj
 0003:0000924c       ??_R4cMovement_Camera@Glumer@@6BcMovementBase@1@@ 100a824c     cGlumShapeFactory.obj
 0003:00009264       ??_R4cMovement_Camera@Glumer@@6BcTimerWrapper@TimerWrapper@@@ 100a8264     cGlumShapeFactory.obj
 0003:0000927c       ??_R1KE@?0A@EA@cObjectMoveableBase@Glumer@@8 100a827c     cGlumShapeFactory.obj
 0003:000092a0       ??_R1KE@?0A@EA@cObjectBase@Glumer@@8 100a82a0     cGlumShapeFactory.obj
 0003:000092c4       ??_R1LM@?0A@EA@cSelectableBase@Glumer@@8 100a82c4     cGlumShapeFactory.obj
 0003:000092e8       ??_R3cSelectableBase@Glumer@@8 100a82e8     cGlumShapeFactory.obj
 0003:000092fc       ??_R2cSelectableBase@Glumer@@8 100a82fc     cGlumShapeFactory.obj
 0003:00009304       ??_R1A@?0A@EA@cSelectableBase@Glumer@@8 100a8304     cGlumShapeFactory.obj
 0003:00009328       ??_R4cGlumShape_RegularPolyhedron@Glumer@@6BcObjectMoveableBase@1@@ 100a8328     cGlumShapeFactory.obj
 0003:00009340       ??_R3cGlumShape_RegularPolyhedron@Glumer@@8 100a8340     cGlumShapeFactory.obj
 0003:00009354       ??_R2cGlumShape_RegularPolyhedron@Glumer@@8 100a8354     cGlumShapeFactory.obj
 0003:00009370       ??_R1A@?0A@EA@cGlumShape_RegularPolyhedron@Glumer@@8 100a8370     cGlumShapeFactory.obj
 0003:00009394       ??_R1BI@?0A@EA@cGlumShapeBase@Glumer@@8 100a8394     cGlumShapeFactory.obj
 0003:000093b8       ??_R4cGlumShape_RegularPolyhedron@Glumer@@6BcGlumShapeBase@1@@ 100a83b8     cGlumShapeFactory.obj
 0003:000093d0       ??_R4cGlumShape_RegularPolyhedron@Glumer@@6BcSelectableBase@1@@ 100a83d0     cGlumShapeFactory.obj
 0003:000093e8       ??_R4cGluperScale@Glumer@@6B@ 100a83e8     cGlumShapeFactory.obj
 0003:00009400       ??_R3cGluperScale@Glumer@@8 100a8400     cGlumShapeFactory.obj
 0003:00009414       ??_R2cGluperScale@Glumer@@8 100a8414     cGlumShapeFactory.obj
 0003:00009420       ??_R1A@?0A@EA@cGluperScale@Glumer@@8 100a8420     cGlumShapeFactory.obj
 0003:00009444       ??_R4cTimer_PistonMotion@Glumer@@6B@ 100a8444     cGlumShapeFactory.obj
 0003:0000945c       ??_R3cTimer_PistonMotion@Glumer@@8 100a845c     cGlumShapeFactory.obj
 0003:00009470       ??_R2cTimer_PistonMotion@Glumer@@8 100a8470     cGlumShapeFactory.obj
 0003:0000947c       ??_R1A@?0A@EA@cTimer_PistonMotion@Glumer@@8 100a847c     cGlumShapeFactory.obj
 0003:000094a0       ??_R4cGlumShape_SwitchGadget@Glumer@@6BcGlumShapeBase@1@@ 100a84a0     cGlumShapeFactory.obj
 0003:000094b8       ??_R3cGlumShape_SwitchGadget@Glumer@@8 100a84b8     cGlumShapeFactory.obj
 0003:000094cc       ??_R2cGlumShape_SwitchGadget@Glumer@@8 100a84cc     cGlumShapeFactory.obj
 0003:000094e8       ??_R1A@?0A@EA@cGlumShape_SwitchGadget@Glumer@@8 100a84e8     cGlumShapeFactory.obj
 0003:0000950c       ??_R4cGlumShape_SwitchGadget@Glumer@@6BcObjectMoveableBase@1@@ 100a850c     cGlumShapeFactory.obj
 0003:00009524       ??_R4cGlumShape_SwitchGadget@Glumer@@6BcSelectableBase@1@@ 100a8524     cGlumShapeFactory.obj
 0003:0000953c       ??_R4cTimer_RockMotion@Glumer@@6B@ 100a853c     cGlumShape_RegularPolyhedron.obj
 0003:00009554       ??_R3cTimer_RockMotion@Glumer@@8 100a8554     cGlumShape_RegularPolyhedron.obj
 0003:00009568       ??_R2cTimer_RockMotion@Glumer@@8 100a8568     cGlumShape_RegularPolyhedron.obj
 0003:00009574       ??_R1A@?0A@EA@cTimer_RockMotion@Glumer@@8 100a8574     cGlumShape_RegularPolyhedron.obj
 0003:00009598       ??_R4cGlumShape_Console@Glumer@@6BcObjectMoveableBase@1@@ 100a8598     cGlumShape_Console.obj
 0003:000095b0       ??_R3cGlumShape_Console@Glumer@@8 100a85b0     cGlumShape_Console.obj
 0003:000095c4       ??_R2cGlumShape_Console@Glumer@@8 100a85c4     cGlumShape_Console.obj
 0003:000095d8       ??_R1A@?0A@EA@cGlumShape_Console@Glumer@@8 100a85d8     cGlumShape_Console.obj
 0003:000095fc       ??_R4cGlumShape_Console@Glumer@@6BcGlumShapeBase@1@@ 100a85fc     cGlumShape_Console.obj
 0003:00009614       ??_R4cSelectableBase@Glumer@@6B@ 100a8614     cSelectableBase.obj
 0003:0000962c       ??_R4type_info@@6B@        100a862c     MSVCRTD:std_type_info_static.obj
 0003:00009644       ??_R3type_info@@8          100a8644     MSVCRTD:std_type_info_static.obj
 0003:00009658       ??_R2type_info@@8          100a8658     MSVCRTD:std_type_info_static.obj
 0003:00009660       ??_R1A@?0A@EA@type_info@@8 100a8660     MSVCRTD:std_type_info_static.obj
 0003:00009684       ??_R4exception@std@@6B@    100a8684     MSVCRTD:throw_bad_alloc.obj
 0003:0000969c       ??_R3exception@std@@8      100a869c     MSVCRTD:throw_bad_alloc.obj
 0003:000096b0       ??_R2exception@std@@8      100a86b0     MSVCRTD:throw_bad_alloc.obj
 0003:000096b8       ??_R1A@?0A@EA@exception@std@@8 100a86b8     MSVCRTD:throw_bad_alloc.obj
 0003:000096dc       ??_R4bad_alloc@std@@6B@    100a86dc     MSVCRTD:throw_bad_alloc.obj
 0003:000096f4       ??_R3bad_alloc@std@@8      100a86f4     MSVCRTD:throw_bad_alloc.obj
 0003:00009708       ??_R2bad_alloc@std@@8      100a8708     MSVCRTD:throw_bad_alloc.obj
 0003:00009714       ??_R1A@?0A@EA@bad_alloc@std@@8 100a8714     MSVCRTD:throw_bad_alloc.obj
 0003:00009738       ??_R4bad_array_new_length@std@@6B@ 100a8738     MSVCRTD:throw_bad_alloc.obj
 0003:00009750       ??_R3bad_array_new_length@std@@8 100a8750     MSVCRTD:throw_bad_alloc.obj
 0003:00009764       ??_R2bad_array_new_length@std@@8 100a8764     MSVCRTD:throw_bad_alloc.obj
 0003:00009774       ??_R1A@?0A@EA@bad_array_new_length@std@@8 100a8774     MSVCRTD:throw_bad_alloc.obj
 0003:00009a44       ___rtc_iaa                 100a8a44     MSVCRTD:_initsect_.obj
 0003:00009c8c       ___rtc_izz                 100a8c8c     MSVCRTD:_initsect_.obj
 0003:00009d90       ___rtc_taa                 100a8d90     MSVCRTD:_initsect_.obj
 0003:00009fd8       ___rtc_tzz                 100a8fd8     MSVCRTD:_initsect_.obj
 0003:0000a204       __TI1H                     100a9204     TimerWrapper.obj
 0003:0000a218       __CTA1H                    100a9218     TimerWrapper.obj
 0003:0000a220       __CT??_R0H@84              100a9220     TimerWrapper.obj
 0003:00012188       __TI2?AVbad_alloc@std@@    100b1188     MSVCRTD:throw_bad_alloc.obj
 0003:0001219c       __CTA2?AVbad_alloc@std@@   100b119c     MSVCRTD:throw_bad_alloc.obj
 0003:000121ac       __CT??_R0?AVbad_alloc@std@@@8??0bad_alloc@std@@QAE@ABV01@@Z12 100b11ac     MSVCRTD:throw_bad_alloc.obj
 0003:000121cc       __CT??_R0?AVexception@std@@@8??0exception@std@@QAE@ABV01@@Z12 100b11cc     MSVCRTD:throw_bad_alloc.obj
 0003:000121ec       __TI3?AVbad_array_new_length@std@@ 100b11ec     MSVCRTD:throw_bad_alloc.obj
 0003:00012200       __CTA3?AVbad_array_new_length@std@@ 100b1200     MSVCRTD:throw_bad_alloc.obj
 0003:00012214       __CT??_R0?AVbad_array_new_length@std@@@8??0bad_array_new_length@std@@QAE@ABV01@@Z12 100b1214     MSVCRTD:throw_bad_alloc.obj
 0004:00000000       ?__LINE__Var@?0??_Adjust_manually_vector_aligned@std@@YAXAAPAXAAI@Z@4JA 100b3000     cGlumShapeFactory.obj
 0004:00000014       ?Q0f@cPolyLetter@Glumer@@2PBMB 100b3014     cPolyLetter.obj
 0004:00000018       ?R0f@cPolyLetter@Glumer@@2PBMB 100b3018     cPolyLetter.obj
 0004:00000020       ___security_cookie_complement 100b3020     MSVCRTD:gs_cookie.obj
 0004:00000024       ___security_cookie         100b3024     MSVCRTD:gs_cookie.obj
 0004:0000002c       ___scrt_native_dllmain_reason 100b302c     MSVCRTD:utility.obj
 0004:00000030       __Init_global_epoch        100b3030     MSVCRTD:thread_safe_statics.obj
 0004:00000034       __fltused                  100b3034     MSVCRTD:fltused.obj
 0004:00000038       ?_RTC_ErrorLevels@@3PAHA   100b3038     MSVCRTD:_error_.obj
 0004:00000050       ___isa_enabled             100b3050     MSVCRTD:_cpu_disp_.obj
 0004:00000054       ___scrt_ucrt_dll_is_in_use 100b3054     MSVCRTD:ucrt_stubs.obj
 0004:00000160       ??_R0H@8                   100b3160     TimerWrapper.obj
 0004:00000170       ??_R0?AVcTimerWrapper@TimerWrapper@@@8 100b3170     TimerWrapper.obj
 0004:000001a4       ??_R0?AVcGlumShapeBase@Glumer@@@8 100b31a4     cGlumShapeFactory.obj
 0004:000001d0       ??_R0?AVcObjectMoveableBase@Glumer@@@8 100b31d0     cGlumShapeFactory.obj
 0004:00000204       ??_R0?AVcMutexWrapper@TimerWrapper@@@8 100b3204     cGlumShapeFactory.obj
 0004:00000238       ??_R0?AVcMovementBase@Glumer@@@8 100b3238     cGlumShapeFactory.obj
 0004:00000264       ??_R0?AVcGluperDirection@Glumer@@@8 100b3264     cGlumShapeFactory.obj
 0004:00000294       ??_R0?AVcObjectBase@Glumer@@@8 100b3294     cGlumShapeFactory.obj
 0004:000002bc       ??_R0?AVcGluperCenter@Glumer@@@8 100b32bc     cGlumShapeFactory.obj
 0004:000002e8       ??_R0?AVcGluperOrientation@Glumer@@@8 100b32e8     cGlumShapeFactory.obj
 0004:00000318       ??_R0?AVcMovement_Camera@Glumer@@@8 100b3318     cGlumShapeFactory.obj
 0004:00000348       ??_R0?AVcSelectableBase@Glumer@@@8 100b3348     cGlumShapeFactory.obj
 0004:00000374       ??_R0?AVcGlumShape_RegularPolyhedron@Glumer@@@8 100b3374     cGlumShapeFactory.obj
 0004:000003b0       ??_R0?AVcGluperScale@Glumer@@@8 100b33b0     cGlumShapeFactory.obj
 0004:000003d8       ??_R0?AVcTimer_PistonMotion@Glumer@@@8 100b33d8     cGlumShapeFactory.obj
 0004:0000040c       ??_R0?AVcGlumShape_SwitchGadget@Glumer@@@8 100b340c     cGlumShapeFactory.obj
 0004:00000444       ??_R0?AVcTimer_RockMotion@Glumer@@@8 100b3444     cGlumShape_RegularPolyhedron.obj
 0004:00000474       ??_R0?AVcGlumShape_Console@Glumer@@@8 100b3474     cGlumShape_Console.obj
 0004:000004a4       ??_R0?AVtype_info@@@8      100b34a4     MSVCRTD:std_type_info_static.obj
 0004:000004c0       ??_R0?AVbad_alloc@std@@@8  100b34c0     MSVCRTD:throw_bad_alloc.obj
 0004:000004e4       ??_R0?AVexception@std@@@8  100b34e4     MSVCRTD:throw_bad_alloc.obj
 0004:00000508       ??_R0?AVbad_array_new_length@std@@@8 100b3508     MSVCRTD:throw_bad_alloc.obj
 0004:00000648       ?setup@?1??GetLineWidth@cGlumShape_SwitchGadget@Glumer@@SAM_N@Z@4_NA 100b3648     cGlumShapeFactory.obj
 0004:0000064c       ?fSizes@?1??GetLineWidth@cGlumShape_SwitchGadget@Glumer@@SAM_N@Z@4PAMA 100b364c     cGlumShapeFactory.obj
 0004:00000658       ?mDefaultLineWidth@?1??GetLineWidth@cGlumShape_SwitchGadget@Glumer@@SAM_N@Z@4MA 100b3658     cGlumShapeFactory.obj
 0004:0000065c       ?$TSS0@?1??GetLineWidth@cGlumShape_SwitchGadget@Glumer@@SAM_N@Z@4HA 100b365c     cGlumShapeFactory.obj
 0004:00000660       ?mLineWidth@?1??GetLineWidth@cGlumShape_SwitchGadget@Glumer@@SAM_N@Z@4MA 100b3660     cGlumShapeFactory.obj
 0004:00000664       ?$TSS1@?1??GetLineWidth@cGlumShape_SwitchGadget@Glumer@@SAM_N@Z@4HA 100b3664     cGlumShapeFactory.obj
 0004:00000668       ?mSwitchGadget@cGlumShapeFactory@Glumer@@2V?$cGlumShapeFactory_ShapeContainer@VcGlumShape_SwitchGadget@Glumer@@@2@A 100b3668     cGlumShapeFactory.obj
 0004:00000669       ?mConsole@cGlumShapeFactory@Glumer@@2V?$cGlumShapeFactory_ShapeContainer@VcGlumShape_Console@Glumer@@@2@A 100b3669     cGlumShapeFactory.obj
 0004:0000066a       ?mRegularPolyhedron@cGlumShapeFactory@Glumer@@2V?$cGlumShapeFactory_ShapeContainer@VcGlumShape_RegularPolyhedron@Glumer@@@2@A 100b366a     cGlumShapeFactory.obj
 0004:0000066b       ?mCamera@cGlumShapeFactory@Glumer@@2V?$cGlumShapeFactory_ShapeContainer@VcMovement_Camera@Glumer@@@2@A 100b366b     cGlumShapeFactory.obj
 0004:0000066c       ?mReadWriteLock@?$cGlumShapeFactory_ShapeContainer@VcGlumShape_SwitchGadget@Glumer@@@Glumer@@0VcMutexWrapper@TimerWrapper@@A 100b366c     cGlumShapeFactory.obj
 0004:00000678       ?mList@?$cGlumShapeFactory_ShapeContainer@VcGlumShape_SwitchGadget@Glumer@@@Glumer@@0V?$vector@UPTR@cGlumShape_SwitchGadget@Glumer@@V?$allocator@UPTR@cGlumShape_SwitchGadget@Glumer@@@std@@@std@@A 100b3678     cGlumShapeFactory.obj
 0004:0000068c       ?mRecycleBin@?$cGlumShapeFactory_ShapeContainer@VcGlumShape_SwitchGadget@Glumer@@@Glumer@@0V?$vector@UPTR@cGlumShape_SwitchGadget@Glumer@@V?$allocator@UPTR@cGlumShape_SwitchGadget@Glumer@@@std@@@std@@A 100b368c     cGlumShapeFactory.obj
 0004:000006a0       ?mReadWriteLock@?$cGlumShapeFactory_ShapeContainer@VcGlumShape_Console@Glumer@@@Glumer@@0VcMutexWrapper@TimerWrapper@@A 100b36a0     cGlumShapeFactory.obj
 0004:000006ac       ?mList@?$cGlumShapeFactory_ShapeContainer@VcGlumShape_Console@Glumer@@@Glumer@@0V?$vector@UPTR@cGlumShape_Console@Glumer@@V?$allocator@UPTR@cGlumShape_Console@Glumer@@@std@@@std@@A 100b36ac     cGlumShapeFactory.obj
 0004:000006c0       ?mRecycleBin@?$cGlumShapeFactory_ShapeContainer@VcGlumShape_Console@Glumer@@@Glumer@@0V?$vector@UPTR@cGlumShape_Console@Glumer@@V?$allocator@UPTR@cGlumShape_Console@Glumer@@@std@@@std@@A 100b36c0     cGlumShapeFactory.obj
 0004:000006d4       ?mReadWriteLock@?$cGlumShapeFactory_ShapeContainer@VcMovement_Camera@Glumer@@@Glumer@@0VcMutexWrapper@TimerWrapper@@A 100b36d4     cGlumShapeFactory.obj
 0004:000006e0       ?mList@?$cGlumShapeFactory_ShapeContainer@VcMovement_Camera@Glumer@@@Glumer@@0V?$vector@UPTR@cMovement_Camera@Glumer@@V?$allocator@UPTR@cMovement_Camera@Glumer@@@std@@@std@@A 100b36e0     cGlumShapeFactory.obj
 0004:000006f4       ?mRecycleBin@?$cGlumShapeFactory_ShapeContainer@VcMovement_Camera@Glumer@@@Glumer@@0V?$vector@UPTR@cMovement_Camera@Glumer@@V?$allocator@UPTR@cMovement_Camera@Glumer@@@std@@@std@@A 100b36f4     cGlumShapeFactory.obj
 0004:00000708       ?mReadWriteLock@?$cGlumShapeFactory_ShapeContainer@VcGlumShape_RegularPolyhedron@Glumer@@@Glumer@@0VcMutexWrapper@TimerWrapper@@A 100b3708     cGlumShapeFactory.obj
 0004:00000714       ?mList@?$cGlumShapeFactory_ShapeContainer@VcGlumShape_RegularPolyhedron@Glumer@@@Glumer@@0V?$vector@UPTR@cGlumShape_RegularPolyhedron@Glumer@@V?$allocator@UPTR@cGlumShape_RegularPolyhedron@Glumer@@@std@@@std@@A 100b3714     cGlumShapeFactory.obj
 0004:00000728       ?mRecycleBin@?$cGlumShapeFactory_ShapeContainer@VcGlumShape_RegularPolyhedron@Glumer@@@Glumer@@0V?$vector@UPTR@cGlumShape_RegularPolyhedron@Glumer@@V?$allocator@UPTR@cGlumShape_RegularPolyhedron@Glumer@@@std@@@std@@A 100b3728     cGlumShapeFactory.obj
 0004:0000073c       ?mDrawLists@cPolyLetter@Glumer@@0V?$map@DIU?$less@D@std@@V?$allocator@U?$pair@$$CBDI@std@@@2@@std@@A 100b373c     cPolyLetter.obj
 0004:0000074c       ?mSelectableLock@cSelectableBase@Glumer@@0VcMutexWrapper@TimerWrapper@@A 100b374c     cSelectableBase.obj
 0004:00000808       ___scrt_current_native_startup_state 100b3808     MSVCRTD:utility.obj
 0004:0000080c       ___scrt_native_startup_lock 100b380c     MSVCRTD:utility.obj
 0004:00000864       __tls_index                100b3864     MSVCRTD:tlssup.obj
 0004:00000c30       ?_OptionsStorage@?1??__local_stdio_printf_options@@9@4_KA 100b3c30     MSVCRTD:_error_.obj
 0004:00000c48       ___isa_available           100b3c48     MSVCRTD:_cpu_disp_.obj
 0004:00000c4c       ___favor                   100b3c4c     MSVCRTD:_cpu_disp_.obj
 0004:00000c54       ___scrt_debugger_hook_flag 100b3c54     MSVCRTD:utility_desktop.obj
 0004:00000c58       ?__type_info_root_node@@3U__type_info_node@@A 100b3c58     MSVCRTD:tncleanup.obj
 0004:00000c68       ?_OptionsStorage@?1??__local_stdio_scanf_options@@9@4_KA 100b3c68     MSVCRTD:default_local_stdio_options.obj
 0004:00000c7c       ___dyn_tls_init_callback   100b3c7c     <common>
 0004:00000c88       ___DebuggerCurrentSteppingThreadId 100b3c88     <common>
 0005:00000000       __imp__gluPerspective@32   100b4000     GlU32:GLU32.dll
 0005:00000004       __imp__gluLookAt@72        100b4004     GlU32:GLU32.dll
 0005:00000008       __imp__gluPickMatrix@36    100b4008     GlU32:GLU32.dll
 0005:0000000c       \177GLU32_NULL_THUNK_DATA  100b400c     GlU32:GLU32.dll
 0005:00000038       __imp__HeapAlloc@12        100b4038     kernel32:KERNEL32.dll
 0005:0000003c       __imp__GetLastError@0      100b403c     kernel32:KERNEL32.dll
 0005:00000040       __imp__InitializeSListHead@4 100b4040     kernel32:KERNEL32.dll
 0005:00000044       __imp__DisableThreadLibraryCalls@4 100b4044     kernel32:KERNEL32.dll
 0005:00000048       __imp__GetSystemTimeAsFileTime@4 100b4048     kernel32:KERNEL32.dll
 0005:0000004c       __imp__GetCurrentProcessId@0 100b404c     kernel32:KERNEL32.dll
 0005:00000050       __imp__QueryPerformanceCounter@4 100b4050     kernel32:KERNEL32.dll
 0005:00000054       __imp__GetStartupInfoW@4   100b4054     kernel32:KERNEL32.dll
 0005:00000058       __imp__WideCharToMultiByte@32 100b4058     kernel32:KERNEL32.dll
 0005:0000005c       __imp__MultiByteToWideChar@24 100b405c     kernel32:KERNEL32.dll
 0005:00000060       __imp__RaiseException@16   100b4060     kernel32:KERNEL32.dll
 0005:00000064       __imp__IsDebuggerPresent@0 100b4064     kernel32:KERNEL32.dll
 0005:00000068       __imp__IsProcessorFeaturePresent@4 100b4068     kernel32:KERNEL32.dll
 0005:0000006c       __imp__GetProcessHeap@0    100b406c     kernel32:KERNEL32.dll
 0005:00000070       __imp__SetUnhandledExceptionFilter@4 100b4070     kernel32:KERNEL32.dll
 0005:00000074       __imp__UnhandledExceptionFilter@4 100b4074     kernel32:KERNEL32.dll
 0005:00000078       __imp__GetProcAddress@8    100b4078     kernel32:KERNEL32.dll
 0005:0000007c       __imp__GetModuleHandleW@4  100b407c     kernel32:KERNEL32.dll
 0005:00000080       __imp__CreateEventW@16     100b4080     kernel32:KERNEL32.dll
 0005:00000084       __imp__WaitForSingleObjectEx@12 100b4084     kernel32:KERNEL32.dll
 0005:00000088       __imp__ResetEvent@4        100b4088     kernel32:KERNEL32.dll
 0005:0000008c       __imp__SetEvent@4          100b408c     kernel32:KERNEL32.dll
 0005:00000090       __imp__DeleteCriticalSection@4 100b4090     kernel32:KERNEL32.dll
 0005:00000094       __imp__InitializeCriticalSectionAndSpinCount@8 100b4094     kernel32:KERNEL32.dll
 0005:00000098       __imp__LeaveCriticalSection@4 100b4098     kernel32:KERNEL32.dll
 0005:0000009c       __imp__EnterCriticalSection@4 100b409c     kernel32:KERNEL32.dll
 0005:000000a0       __imp__CloseHandle@4       100b40a0     kernel32:KERNEL32.dll
 0005:000000a4       __imp__GetCurrentThreadId@0 100b40a4     kernel32:KERNEL32.dll
 0005:000000a8       __imp__HeapFree@12         100b40a8     kernel32:KERNEL32.dll
 0005:000000ac       __imp__VirtualQuery@12     100b40ac     kernel32:KERNEL32.dll
 0005:000000b0       __imp__GetCurrentProcess@0 100b40b0     kernel32:KERNEL32.dll
 0005:000000b4       __imp__TerminateProcess@8  100b40b4     kernel32:KERNEL32.dll
 0005:000000b8       __imp__FreeLibrary@4       100b40b8     kernel32:KERNEL32.dll
 0005:000000bc       \177KERNEL32_NULL_THUNK_DATA 100b40bc     kernel32:KERNEL32.dll
 0005:00000100       __imp_??1_Lockit@std@@QAE@XZ 100b4100     msvcprtd:MSVCP140D.dll
 0005:00000104       __imp_?_Xlength_error@std@@YAXPBD@Z 100b4104     msvcprtd:MSVCP140D.dll
 0005:00000108       __imp_??0_Lockit@std@@QAE@H@Z 100b4108     msvcprtd:MSVCP140D.dll
 0005:0000010c       __imp_?_Xout_of_range@std@@YAXPBD@Z 100b410c     msvcprtd:MSVCP140D.dll
 0005:00000110       \177MSVCP140D_NULL_THUNK_DATA 100b4110     msvcprtd:MSVCP140D.dll
 0005:0000013c       __imp__glPushAttrib@4      100b413c     OpenGL32:OPENGL32.dll
 0005:00000140       __imp__glMatrixMode@4      100b4140     OpenGL32:OPENGL32.dll
 0005:00000144       __imp__glSelectBuffer@8    100b4144     OpenGL32:OPENGL32.dll
 0005:00000148       __imp__glRenderMode@4      100b4148     OpenGL32:OPENGL32.dll
 0005:0000014c       __imp__glPushName@4        100b414c     OpenGL32:OPENGL32.dll
 0005:00000150       __imp__glGetIntegerv@8     100b4150     OpenGL32:OPENGL32.dll
 0005:00000154       __imp__glInitNames@0       100b4154     OpenGL32:OPENGL32.dll
 0005:00000158       __imp__glPopAttrib@0       100b4158     OpenGL32:OPENGL32.dll
 0005:0000015c       __imp__glTranslatef@12     100b415c     OpenGL32:OPENGL32.dll
 0005:00000160       __imp__glRotatef@16        100b4160     OpenGL32:OPENGL32.dll
 0005:00000164       __imp__glVertex3f@12       100b4164     OpenGL32:OPENGL32.dll
 0005:00000168       __imp__glVertex3d@24       100b4168     OpenGL32:OPENGL32.dll
 0005:0000016c       __imp__glScalef@12         100b416c     OpenGL32:OPENGL32.dll
 0005:00000170       __imp__glPushMatrix@0      100b4170     OpenGL32:OPENGL32.dll
 0005:00000174       __imp__glPopMatrix@0       100b4174     OpenGL32:OPENGL32.dll
 0005:00000178       __imp__glNormal3d@24       100b4178     OpenGL32:OPENGL32.dll
 0005:0000017c       __imp__glNewList@8         100b417c     OpenGL32:OPENGL32.dll
 0005:00000180       __imp__glLoadIdentity@0    100b4180     OpenGL32:OPENGL32.dll
 0005:00000184       __imp__glLineWidth@4       100b4184     OpenGL32:OPENGL32.dll
 0005:00000188       __imp__glGetFloatv@8       100b4188     OpenGL32:OPENGL32.dll
 0005:0000018c       __imp__glGenLists@4        100b418c     OpenGL32:OPENGL32.dll
 0005:00000190       __imp__glEndList@0         100b4190     OpenGL32:OPENGL32.dll
 0005:00000194       __imp__glBegin@4           100b4194     OpenGL32:OPENGL32.dll
 0005:00000198       __imp__glEnd@0             100b4198     OpenGL32:OPENGL32.dll
 0005:0000019c       __imp__glDeleteLists@8     100b419c     OpenGL32:OPENGL32.dll
 0005:000001a0       __imp__glColor3ub@12       100b41a0     OpenGL32:OPENGL32.dll
 0005:000001a4       __imp__glCallList@4        100b41a4     OpenGL32:OPENGL32.dll
 0005:000001a8       __imp__glPopName@0         100b41a8     OpenGL32:OPENGL32.dll
 0005:000001ac       \177OPENGL32_NULL_THUNK_DATA 100b41ac     OpenGL32:OPENGL32.dll
 0005:000001ec       __imp__SDL_WasInit         100b41ec     SDL2:SDL2.dll
 0005:000001f0       __imp__SDL_DestroyMutex    100b41f0     SDL2:SDL2.dll
 0005:000001f4       __imp__SDL_UnlockMutex     100b41f4     SDL2:SDL2.dll
 0005:000001f8       __imp__SDL_LockMutex       100b41f8     SDL2:SDL2.dll
 0005:000001fc       __imp__SDL_CreateMutex     100b41fc     SDL2:SDL2.dll
 0005:00000200       __imp__SDL_RemoveTimer     100b4200     SDL2:SDL2.dll
 0005:00000204       __imp__SDL_AddTimer        100b4204     SDL2:SDL2.dll
 0005:00000208       __imp__SDL_Delay           100b4208     SDL2:SDL2.dll
 0005:0000020c       __imp__SDL_GetTicks        100b420c     SDL2:SDL2.dll
 0005:00000210       __imp__SDL_WaitThread      100b4210     SDL2:SDL2.dll
 0005:00000214       __imp__SDL_CreateThread    100b4214     SDL2:SDL2.dll
 0005:00000218       \177SDL2_NULL_THUNK_DATA   100b4218     SDL2:SDL2.dll
 0005:0000024c       __imp___purecall           100b424c     vcruntimed:VCRUNTIME140D.dll
 0005:00000250       __imp___CxxThrowException@8 100b4250     vcruntimed:VCRUNTIME140D.dll
 0005:00000254       __imp____CxxFrameHandler3  100b4254     vcruntimed:VCRUNTIME140D.dll
 0005:00000258       __imp__memmove             100b4258     vcruntimed:VCRUNTIME140D.dll
 0005:0000025c       __imp__memcpy              100b425c     vcruntimed:VCRUNTIME140D.dll
 0005:00000260       __imp____RTDynamicCast     100b4260     vcruntimed:VCRUNTIME140D.dll
 0005:00000264       __imp__memchr              100b4264     vcruntimed:VCRUNTIME140D.dll
 0005:00000268       __imp__memcmp              100b4268     vcruntimed:VCRUNTIME140D.dll
 0005:0000026c       __imp____std_exception_copy 100b426c     vcruntimed:VCRUNTIME140D.dll
 0005:00000270       __imp____std_exception_destroy 100b4270     vcruntimed:VCRUNTIME140D.dll
 0005:00000274       __imp__memset              100b4274     vcruntimed:VCRUNTIME140D.dll
 0005:00000278       __imp___except_handler4_common 100b4278     vcruntimed:VCRUNTIME140D.dll
 0005:0000027c       __imp____std_type_info_destroy_list 100b427c     vcruntimed:VCRUNTIME140D.dll
 0005:00000280       __imp____vcrt_GetModuleFileNameW 100b4280     vcruntimed:VCRUNTIME140D.dll
 0005:00000284       __imp____vcrt_GetModuleHandleW 100b4284     vcruntimed:VCRUNTIME140D.dll
 0005:00000288       __imp____vcrt_LoadLibraryExW 100b4288     vcruntimed:VCRUNTIME140D.dll
 0005:0000028c       \177VCRUNTIME140D_NULL_THUNK_DATA 100b428c     vcruntimed:VCRUNTIME140D.dll
 0005:000002c4       __imp___beginthreadex      100b42c4     ucrtd:ucrtbased.dll
 0005:000002c8       __imp___endthreadex        100b42c8     ucrtd:ucrtbased.dll
 0005:000002cc       __imp___invalid_parameter  100b42cc     ucrtd:ucrtbased.dll
 0005:000002d0       __imp___CrtDbgReport       100b42d0     ucrtd:ucrtbased.dll
 0005:000002d4       __imp__tan                 100b42d4     ucrtd:ucrtbased.dll
 0005:000002d8       __imp__strlen              100b42d8     ucrtd:ucrtbased.dll
 0005:000002dc       __imp___CrtDbgReportW      100b42dc     ucrtd:ucrtbased.dll
 0005:000002e0       __imp___callnewh           100b42e0     ucrtd:ucrtbased.dll
 0005:000002e4       __imp__malloc              100b42e4     ucrtd:ucrtbased.dll
 0005:000002e8       __imp___seh_filter_dll     100b42e8     ucrtd:ucrtbased.dll
 0005:000002ec       __imp___configure_narrow_argv 100b42ec     ucrtd:ucrtbased.dll
 0005:000002f0       __imp___initialize_narrow_environment 100b42f0     ucrtd:ucrtbased.dll
 0005:000002f4       __imp___initialize_onexit_table 100b42f4     ucrtd:ucrtbased.dll
 0005:000002f8       __imp___register_onexit_function 100b42f8     ucrtd:ucrtbased.dll
 0005:000002fc       __imp___execute_onexit_table 100b42fc     ucrtd:ucrtbased.dll
 0005:00000300       __imp___crt_atexit         100b4300     ucrtd:ucrtbased.dll
 0005:00000304       __imp___crt_at_quick_exit  100b4304     ucrtd:ucrtbased.dll
 0005:00000308       __imp___cexit              100b4308     ucrtd:ucrtbased.dll
 0005:0000030c       __imp___initterm           100b430c     ucrtd:ucrtbased.dll
 0005:00000310       __imp___initterm_e         100b4310     ucrtd:ucrtbased.dll
 0005:00000314       __imp___free_dbg           100b4314     ucrtd:ucrtbased.dll
 0005:00000318       __imp__strcpy_s            100b4318     ucrtd:ucrtbased.dll
 0005:0000031c       __imp__strcat_s            100b431c     ucrtd:ucrtbased.dll
 0005:00000320       __imp____stdio_common_vsprintf_s 100b4320     ucrtd:ucrtbased.dll
 0005:00000324       __imp__terminate           100b4324     ucrtd:ucrtbased.dll
 0005:00000328       __imp___wmakepath_s        100b4328     ucrtd:ucrtbased.dll
 0005:0000032c       __imp___wsplitpath_s       100b432c     ucrtd:ucrtbased.dll
 0005:00000330       __imp__wcscpy_s            100b4330     ucrtd:ucrtbased.dll
 0005:00000334       \177ucrtbased_NULL_THUNK_DATA 100b4334     ucrtd:ucrtbased.dll
 0005:00000374       __IMPORT_DESCRIPTOR_SDL2   100b4374     SDL2:SDL2.dll
 0005:00000388       __IMPORT_DESCRIPTOR_OPENGL32 100b4388     OpenGL32:OPENGL32.dll
 0005:0000039c       __IMPORT_DESCRIPTOR_GLU32  100b439c     GlU32:GLU32.dll
 0005:000003b0       __IMPORT_DESCRIPTOR_MSVCP140D 100b43b0     msvcprtd:MSVCP140D.dll
 0005:000003c4       __IMPORT_DESCRIPTOR_KERNEL32 100b43c4     kernel32:KERNEL32.dll
 0005:000003d8       __IMPORT_DESCRIPTOR_VCRUNTIME140D 100b43d8     vcruntimed:VCRUNTIME140D.dll
 0005:000003ec       __IMPORT_DESCRIPTOR_ucrtbased 100b43ec     ucrtd:ucrtbased.dll
 0005:00000400       __NULL_IMPORT_DESCRIPTOR   100b4400     SDL2:SDL2.dll
 0007:00000000       __tls_start                100b7000     MSVCRTD:tlssup.obj
 0007:00000104       __Init_thread_epoch        100b7104     MSVCRTD:thread_safe_statics.obj
 0007:00000208       __tls_end                  100b7208     MSVCRTD:tlssup.obj
 0008:00000000       ___guard_check_icall_fptr  100b8000     MSVCRTD:guard_support.obj

 entry point at        0002:0000152c

 Static symbols

 0002:fffce000       __ehhandler$??$_Emplace_reallocate@ABUPTR@cMovementBase@Glumer@@@?$vector@UPTR@cMovementBase@Glumer@@V?$allocator@UPTR@cMovementBase@Glumer@@@std@@@std@@QAEPAUPTR@cMovementBase@Glumer@@QAU234@ABU234@@Z 10000000 f   cGlumShape_RegularPolyhedron.obj
 0002:fffce000       __ehhandler$??1Lock@cMutexWrapper@TimerWrapper@@QAE@XZ 10000000 f   Glumer.obj
 0002:fffce000       __ehhandler$??$forward@ABUPTR@cMovementBase@Glumer@@@std@@YAABUPTR@cMovementBase@Glumer@@ABU123@@Z 10000000 f   cGlumShape_RegularPolyhedron.obj
 0002:fffce000       __ehhandler$??1cMutexWrapper@TimerWrapper@@UAE@XZ 10000000 f   Glumer.obj
 0002:fffce000       __ehhandler$??2@YAPAXIPAX@Z 10000000 f   Glumer.obj
 0002:fffce000       __ehhandler$?max@?$numeric_limits@H@std@@SAHXZ 10000000 f   Glumer.obj
 0002:fffce000       __ehhandler$?_Getal@?$_Vector_alloc@U?$_Vec_base_types@UPTR@cGlumShape_RegularPolyhedron@Glumer@@V?$allocator@UPTR@cGlumShape_RegularPolyhedron@Glumer@@@std@@@std@@@std@@QBEABV?$allocator@UPTR@cGlumShape_RegularPolyhedron@Glumer@@@2@XZ 10000000 f   Glumer.obj
 0002:fffce000       __ehhandler$?_Get_data@?$_Vector_alloc@U?$_Vec_base_types@UPTR@cGlumShape_RegularPolyhedron@Glumer@@V?$allocator@UPTR@cGlumShape_RegularPolyhedron@Glumer@@@std@@@std@@@std@@QAEAAV?$_Vector_val@U?$_Simple_types@UPTR@cGlumShape_RegularPolyhedron@Glumer@@@std@@@2@XZ 10000000 f   Glumer.obj
 0002:fffce000       __ehhandler$?copy@?$char_traits@D@std@@SAPADQADQBDI@Z 10000000 f   Glumer.obj
 0002:fffce000       __ehhandler$?_Get_data@?$_Vector_alloc@U?$_Vec_base_types@UPTR@cGlumShape_RegularPolyhedron@Glumer@@V?$allocator@UPTR@cGlumShape_RegularPolyhedron@Glumer@@@std@@@std@@@std@@QBEABV?$_Vector_val@U?$_Simple_types@UPTR@cGlumShape_RegularPolyhedron@Glumer@@@std@@@2@XZ 10000000 f   Glumer.obj
 0002:fffce000       __ehhandler$?max_size@?$_Default_allocator_traits@V?$allocator@UPTR@cGlumShape_RegularPolyhedron@Glumer@@@std@@@std@@SAIABV?$allocator@UPTR@cGlumShape_RegularPolyhedron@Glumer@@@2@@Z 10000000 f   Glumer.obj
 0002:fffce000       __ehhandler$?_Myfirst@?$_Vector_alloc@U?$_Vec_base_types@UPTR@cGlumShape_RegularPolyhedron@Glumer@@V?$allocator@UPTR@cGlumShape_RegularPolyhedron@Glumer@@@std@@@std@@@std@@QAEAAPAUPTR@cGlumShape_RegularPolyhedron@Glumer@@XZ 10000000 f   Glumer.obj
 0002:fffce000       __ehhandler$?move@?$char_traits@D@std@@SAPADQADQBDI@Z 10000000 f   Glumer.obj
 0002:fffce000       __ehhandler$?_Myfirst@?$_Vector_alloc@U?$_Vec_base_types@UPTR@cGlumShape_RegularPolyhedron@Glumer@@V?$allocator@UPTR@cGlumShape_RegularPolyhedron@Glumer@@@std@@@std@@@std@@QBEABQAUPTR@cGlumShape_RegularPolyhedron@Glumer@@XZ 10000000 f   Glumer.obj
 0002:fffce000       __ehhandler$?assign@?$char_traits@D@std@@SAXAADABD@Z 10000000 f   Glumer.obj
 0002:fffce000       __ehhandler$?_Myproxy@?$_Vector_alloc@U?$_Vec_base_types@UPTR@cMovementBase@Glumer@@V?$allocator@UPTR@cMovementBase@Glumer@@@std@@@std@@@std@@QAEAAPAU_Container_proxy@2@XZ 10000000 f   cObjectMoveableBase.obj
 0002:fffce000       __ehhandler$??0_Container_proxy@std@@QAE@XZ 10000000 f   Glumer.obj
 0002:fffce000       __ehhandler$?_Getal@?$_Vector_alloc@U?$_Vec_base_types@UPTR@cMovementBase@Glumer@@V?$allocator@UPTR@cMovementBase@Glumer@@@std@@@std@@@std@@QAEAAV?$allocator@UPTR@cMovementBase@Glumer@@@2@XZ 10000000 f   cObjectMoveableBase.obj
 0002:fffce000       __ehhandler$?_Getpfirst@_Container_base12@std@@QBEPAPAU_Iterator_base12@2@XZ 10000000 f   Glumer.obj
 0002:fffce000       __ehhandler$?_Getal@?$_Vector_alloc@U?$_Vec_base_types@UPTR@cMovementBase@Glumer@@V?$allocator@UPTR@cMovementBase@Glumer@@@std@@@std@@@std@@QBEABV?$allocator@UPTR@cMovementBase@Glumer@@@2@XZ 10000000 f   cObjectMoveableBase.obj
 0002:fffce000       __ehhandler$?_Orphan_all@_Container_base12@std@@QAEXXZ 10000000 f   Glumer.obj
 0002:fffce000       __ehhandler$?_Get_data@?$_Vector_alloc@U?$_Vec_base_types@UPTR@cMovementBase@Glumer@@V?$allocator@UPTR@cMovementBase@Glumer@@@std@@@std@@@std@@QAEAAV?$_Vector_val@U?$_Simple_types@UPTR@cMovementBase@Glumer@@@std@@@2@XZ 10000000 f   cObjectMoveableBase.obj
 0002:fffce000       __ehhandler$?_Swap_all@_Container_base12@std@@QAEXAAU12@@Z 10000000 f   Glumer.obj
 0002:fffce000       __ehhandler$?_Get_data@?$_Vector_alloc@U?$_Vec_base_types@UPTR@cMovementBase@Glumer@@V?$allocator@UPTR@cMovementBase@Glumer@@@std@@@std@@@std@@QBEABV?$_Vector_val@U?$_Simple_types@UPTR@cMovementBase@Glumer@@@std@@@2@XZ 10000000 f   cObjectMoveableBase.obj
 0002:fffce000       __ehhandler$??0_Iterator_base12@std@@QAE@XZ 10000000 f   Glumer.obj
 0002:fffce000       __ehhandler$?_Myfirst@?$_Vector_alloc@U?$_Vec_base_types@UPTR@cMovementBase@Glumer@@V?$allocator@UPTR@cMovementBase@Glumer@@@std@@@std@@@std@@QAEAAPAUPTR@cMovementBase@Glumer@@XZ 10000000 f   cObjectMoveableBase.obj
 0002:fffce000       __ehhandler$??0_Iterator_base12@std@@QAE@ABU01@@Z 10000000 f   Glumer.obj
 0002:fffce000       __ehhandler$?_Myfirst@?$_Vector_alloc@U?$_Vec_base_types@UPTR@cMovementBase@Glumer@@V?$allocator@UPTR@cMovementBase@Glumer@@@std@@@std@@@std@@QBEABQAUPTR@cMovementBase@Glumer@@XZ 10000000 f   cObjectMoveableBase.obj
 0002:fffce000       __ehhandler$??4_Iterator_base12@std@@QAEAAU01@ABU01@@Z 10000000 f   Glumer.obj
 0002:fffce000       __ehhandler$?_Mylast@?$_Vector_alloc@U?$_Vec_base_types@UPTR@cMovementBase@Glumer@@V?$allocator@UPTR@cMovementBase@Glumer@@@std@@@std@@@std@@QAEAAPAUPTR@cMovementBase@Glumer@@XZ 10000000 f   cObjectMoveableBase.obj
 0002:fffce000       __ehhandler$?_Mylast@?$_Vector_alloc@U?$_Vec_base_types@UPTR@cGlumShape_RegularPolyhedron@Glumer@@V?$allocator@UPTR@cGlumShape_RegularPolyhedron@Glumer@@@std@@@std@@@std@@QAEAAPAUPTR@cGlumShape_RegularPolyhedron@Glumer@@XZ 10000000 f   Glumer.obj
 0002:fffce000       __ehhandler$?_Mylast@?$_Vector_alloc@U?$_Vec_base_types@UPTR@cMovementBase@Glumer@@V?$allocator@UPTR@cMovementBase@Glumer@@@std@@@std@@@std@@QBEABQAUPTR@cMovementBase@Glumer@@XZ 10000000 f   cObjectMoveableBase.obj
 0002:fffce000       __ehhandler$??1_Iterator_base12@std@@QAE@XZ 10000000 f   Glumer.obj
 0002:fffce000       __ehhandler$?_Myend@?$_Vector_alloc@U?$_Vec_base_types@UPTR@cMovementBase@Glumer@@V?$allocator@UPTR@cMovementBase@Glumer@@@std@@@std@@@std@@QAEAAPAUPTR@cMovementBase@Glumer@@XZ 10000000 f   cObjectMoveableBase.obj
 0002:fffce000       __ehhandler$?_Mylast@?$_Vector_alloc@U?$_Vec_base_types@UPTR@cGlumShape_RegularPolyhedron@Glumer@@V?$allocator@UPTR@cGlumShape_RegularPolyhedron@Glumer@@@std@@@std@@@std@@QBEABQAUPTR@cGlumShape_RegularPolyhedron@Glumer@@XZ 10000000 f   Glumer.obj
 0002:fffce000       __ehhandler$?_Myend@?$_Vector_alloc@U?$_Vec_base_types@UPTR@cMovementBase@Glumer@@V?$allocator@UPTR@cMovementBase@Glumer@@@std@@@std@@@std@@QBEABQAUPTR@cMovementBase@Glumer@@XZ 10000000 f   cObjectMoveableBase.obj
 0002:fffce000       __ehhandler$?_Myend@?$_Vector_alloc@U?$_Vec_base_types@UPTR@cGlumShape_RegularPolyhedron@Glumer@@V?$allocator@UPTR@cGlumShape_RegularPolyhedron@Glumer@@@std@@@std@@@std@@QAEAAPAUPTR@cGlumShape_RegularPolyhedron@Glumer@@XZ 10000000 f   Glumer.obj
 0002:fffce000       __ehhandler$?_Get_first@?$_Compressed_pair@V?$allocator@UPTR@cMovementBase@Glumer@@@std@@V?$_Vector_val@U?$_Simple_types@UPTR@cMovementBase@Glumer@@@std@@@2@$00@std@@QAEAAV?$allocator@UPTR@cMovementBase@Glumer@@@2@XZ 10000000 f   cObjectMoveableBase.obj
 0002:fffce000       __ehhandler$?_Myend@?$_Vector_alloc@U?$_Vec_base_types@UPTR@cGlumShape_RegularPolyhedron@Glumer@@V?$allocator@UPTR@cGlumShape_RegularPolyhedron@Glumer@@@std@@@std@@@std@@QBEABQAUPTR@cGlumShape_RegularPolyhedron@Glumer@@XZ 10000000 f   Glumer.obj
 0002:fffce000       __ehhandler$?_Get_first@?$_Compressed_pair@V?$allocator@UPTR@cMovementBase@Glumer@@@std@@V?$_Vector_val@U?$_Simple_types@UPTR@cMovementBase@Glumer@@@std@@@2@$00@std@@QBEABV?$allocator@UPTR@cMovementBase@Glumer@@@2@XZ 10000000 f   cObjectMoveableBase.obj
 0002:fffce000       __ehhandler$?_Adopt@_Iterator_base12@std@@QAEXPBU_Container_base12@2@@Z 10000000 f   Glumer.obj
 0002:fffce000       __ehhandler$?_Clrcont@_Iterator_base12@std@@QAEXXZ 10000000 f   Glumer.obj
 0002:fffce000       __ehhandler$?_Getcont@_Iterator_base12@std@@QBEPBU_Container_base12@2@XZ 10000000 f   Glumer.obj
 0002:fffce000       __ehhandler$?_Getpnext@_Iterator_base12@std@@QAEPAPAU12@XZ 10000000 f   Glumer.obj
 0002:fffce000       __unwindfunclet$?_Orphan_range@?$vector@UPTR@cMovementBase@Glumer@@V?$allocator@UPTR@cMovementBase@Glumer@@@std@@@std@@ABEXPAUPTR@cMovementBase@Glumer@@0@Z$0 10000000 f   cGlumShape_RegularPolyhedron.obj
 0002:fffce000       __ehhandler$?_Orphan_me@_Iterator_base12@std@@QAEXXZ 10000000 f   Glumer.obj
 0002:fffce000       __ehhandler$??$swap@DX@std@@YAXAAD0@Z 10000000 f   cPolyLetter.obj
 0002:fffce000       __ehhandler$?max_size@?$_Default_allocator_traits@V?$allocator@D@std@@@std@@SAIABV?$allocator@D@2@@Z 10000000 f   Glumer.obj
 0002:fffce000       __ehhandler$??1_Bxty@?$_String_val@U?$_Simple_types@D@std@@@std@@QAE@XZ 10000000 f   Glumer.obj
 0002:fffce000       __ehhandler$??1?$_String_alloc@U?$_String_base_types@DV?$allocator@D@std@@@std@@@std@@QAE@XZ 10000000 f   Glumer.obj
 0002:fffce000       __ehhandler$?_Get_first@?$_Compressed_pair@V?$allocator@UPTR@cGlumShape_RegularPolyhedron@Glumer@@@std@@V?$_Vector_val@U?$_Simple_types@UPTR@cGlumShape_RegularPolyhedron@Glumer@@@std@@@2@$00@std@@QAEAAV?$allocator@UPTR@cGlumShape_RegularPolyhedron@Glumer@@@2@XZ 10000000 f   Glumer.obj
 0002:fffce000       __ehhandler$?_Get_first@?$_Compressed_pair@V?$allocator@UPTR@cGlumShape_RegularPolyhedron@Glumer@@@std@@V?$_Vector_val@U?$_Simple_types@UPTR@cGlumShape_RegularPolyhedron@Glumer@@@std@@@2@$00@std@@QBEABV?$allocator@UPTR@cGlumShape_RegularPolyhedron@Glumer@@@2@XZ 10000000 f   Glumer.obj
 0002:fffce000       __ehhandler$?_Has_unused_capacity@?$vector@UPTR@cMovementBase@Glumer@@V?$allocator@UPTR@cMovementBase@Glumer@@@std@@@std@@ABE_NXZ 10000000 f   cGlumShape_RegularPolyhedron.obj
 0002:fffce000       __ehhandler$?capacity@?$vector@UPTR@cMovementBase@Glumer@@V?$allocator@UPTR@cMovementBase@Glumer@@@std@@@std@@QBEIXZ 10000000 f   cGlumShape_RegularPolyhedron.obj
 0002:fffce000       __ehhandler$?_Get_second@?$_Compressed_pair@V?$allocator@UPTR@cGlumShape_RegularPolyhedron@Glumer@@@std@@V?$_Vector_val@U?$_Simple_types@UPTR@cGlumShape_RegularPolyhedron@Glumer@@@std@@@2@$00@std@@QAEAAV?$_Vector_val@U?$_Simple_types@UPTR@cGlumShape_RegularPolyhedron@Glumer@@@std@@@2@XZ 10000000 f   Glumer.obj
 0002:fffce000       __ehhandler$?_Get_second@?$_Compressed_pair@V?$allocator@UPTR@cGlumShape_RegularPolyhedron@Glumer@@@std@@V?$_Vector_val@U?$_Simple_types@UPTR@cGlumShape_RegularPolyhedron@Glumer@@@std@@@2@$00@std@@QBEABV?$_Vector_val@U?$_Simple_types@UPTR@cGlumShape_RegularPolyhedron@Glumer@@@std@@@2@XZ 10000000 f   Glumer.obj
 0002:fffce000       __ehhandler$?begin@?$vector@UPTR@cGlumShape_RegularPolyhedron@Glumer@@V?$allocator@UPTR@cGlumShape_RegularPolyhedron@Glumer@@@std@@@std@@QAE?AV?$_Vector_iterator@V?$_Vector_val@U?$_Simple_types@UPTR@cGlumShape_RegularPolyhedron@Glumer@@@std@@@std@@@2@XZ 10000000 f   Glumer.obj
 0002:fffce000       __ehhandler$?max_size@?$vector@UPTR@cMovementBase@Glumer@@V?$allocator@UPTR@cMovementBase@Glumer@@@std@@@std@@QBEIXZ 10000000 f   cGlumShape_RegularPolyhedron.obj
 0002:fffce000       __ehhandler$?end@?$vector@UPTR@cGlumShape_RegularPolyhedron@Glumer@@V?$allocator@UPTR@cGlumShape_RegularPolyhedron@Glumer@@@std@@@std@@QAE?AV?$_Vector_iterator@V?$_Vector_val@U?$_Simple_types@UPTR@cGlumShape_RegularPolyhedron@Glumer@@@std@@@std@@@2@XZ 10000000 f   Glumer.obj
 0003:fff61000       __ehfuncinfo$??1_Iterator_base12@std@@QAE@XZ 10000000     cPolyLetter.obj
 0002:fffce000       __ehhandler$?_Myproxy@?$_String_alloc@U?$_String_base_types@DV?$allocator@D@std@@@std@@@std@@QAEAAPAU_Container_proxy@2@XZ 10000000 f   Glumer.obj
 0002:fffce000       __ehhandler$?size@?$vector@UPTR@cMovementBase@Glumer@@V?$allocator@UPTR@cMovementBase@Glumer@@@std@@@std@@QBEIXZ 10000000 f   cGlumShape_RegularPolyhedron.obj
 0002:fffce000       __ehhandler$?_Getal@?$_String_alloc@U?$_String_base_types@DV?$allocator@D@std@@@std@@@std@@QAEAAV?$allocator@D@2@XZ 10000000 f   Glumer.obj
 0002:fffce000       __ehhandler$?_Getal@?$_String_alloc@U?$_String_base_types@DV?$allocator@D@std@@@std@@@std@@QBEABV?$allocator@D@2@XZ 10000000 f   Glumer.obj
 0002:fffce000       __ehhandler$?_Get_data@?$_String_alloc@U?$_String_base_types@DV?$allocator@D@std@@@std@@@std@@QAEAAV?$_String_val@U?$_Simple_types@D@std@@@2@XZ 10000000 f   Glumer.obj
 0002:fffce000       __ehhandler$?_Get_data@?$_String_alloc@U?$_String_base_types@DV?$allocator@D@std@@@std@@@std@@QBEABV?$_String_val@U?$_Simple_types@D@std@@@2@XZ 10000000 f   Glumer.obj
 0002:fffce000       __ehhandler$?_Get_second@?$_Compressed_pair@V?$allocator@UPTR@cMovementBase@Glumer@@@std@@V?$_Vector_val@U?$_Simple_types@UPTR@cMovementBase@Glumer@@@std@@@2@$00@std@@QBEABV?$_Vector_val@U?$_Simple_types@UPTR@cMovementBase@Glumer@@@std@@@2@XZ 10000000 f   cGlumShape_RegularPolyhedron.obj
 0002:fffce000       __ehhandler$?_Get_second@?$_Compressed_pair@V?$allocator@UPTR@cMovementBase@Glumer@@@std@@V?$_Vector_val@U?$_Simple_types@UPTR@cMovementBase@Glumer@@@std@@@2@$00@std@@QAEAAV?$_Vector_val@U?$_Simple_types@UPTR@cMovementBase@Glumer@@@std@@@2@XZ 10000000 f   cGlumShape_RegularPolyhedron.obj
 0002:fffce000       __ehhandler$?_Get_first@?$_Compressed_pair@V?$allocator@UPTR@cMovementBase@Glumer@@@std@@V?$_Vector_val@U?$_Simple_types@UPTR@cMovementBase@Glumer@@@std@@@2@$00@std@@QBEABV?$allocator@UPTR@cMovementBase@Glumer@@@2@XZ 10000000 f   cGlumShape_RegularPolyhedron.obj
 0002:fffce000       __ehhandler$?_Get_first@?$_Compressed_pair@V?$allocator@UPTR@cMovementBase@Glumer@@@std@@V?$_Vector_val@U?$_Simple_types@UPTR@cMovementBase@Glumer@@@std@@@2@$00@std@@QAEAAV?$allocator@UPTR@cMovementBase@Glumer@@@2@XZ 10000000 f   cGlumShape_RegularPolyhedron.obj
 0002:fffce000       __ehhandler$?_Myend@?$_Vector_alloc@U?$_Vec_base_types@UPTR@cMovementBase@Glumer@@V?$allocator@UPTR@cMovementBase@Glumer@@@std@@@std@@@std@@QBEABQAUPTR@cMovementBase@Glumer@@XZ 10000000 f   cGlumShape_RegularPolyhedron.obj
 0002:fffce000       __ehhandler$?_Myend@?$_Vector_alloc@U?$_Vec_base_types@UPTR@cMovementBase@Glumer@@V?$allocator@UPTR@cMovementBase@Glumer@@@std@@@std@@@std@@QAEAAPAUPTR@cMovementBase@Glumer@@XZ 10000000 f   cGlumShape_RegularPolyhedron.obj
 0002:fffce000       __ehhandler$?_Mylast@?$_Vector_alloc@U?$_Vec_base_types@UPTR@cMovementBase@Glumer@@V?$allocator@UPTR@cMovementBase@Glumer@@@std@@@std@@@std@@QBEABQAUPTR@cMovementBase@Glumer@@XZ 10000000 f   cGlumShape_RegularPolyhedron.obj
 0002:fffce000       __ehhandler$?_Mylast@?$_Vector_alloc@U?$_Vec_base_types@UPTR@cMovementBase@Glumer@@V?$allocator@UPTR@cMovementBase@Glumer@@@std@@@std@@@std@@QAEAAPAUPTR@cMovementBase@Glumer@@XZ 10000000 f   cGlumShape_RegularPolyhedron.obj
 0002:fffce000       __ehhandler$?_Get_first@?$_Compressed_pair@V?$allocator@D@std@@V?$_String_val@U?$_Simple_types@D@std@@@2@$00@std@@QAEAAV?$allocator@D@2@XZ 10000000 f   Glumer.obj
 0002:fffce000       __ehhandler$?_Get_first@?$_Compressed_pair@V?$allocator@D@std@@V?$_String_val@U?$_Simple_types@D@std@@@2@$00@std@@QBEABV?$allocator@D@2@XZ 10000000 f   Glumer.obj
 0000:fff41000       .debug$S                   10000000     Glumer.exp
 0002:fffce000       __ehhandler$?_Get_second@?$_Compressed_pair@V?$allocator@D@std@@V?$_String_val@U?$_Simple_types@D@std@@@2@$00@std@@QAEAAV?$_String_val@U?$_Simple_types@D@std@@@2@XZ 10000000 f   Glumer.obj
 0002:fffce000       __ehhandler$?_Myfirst@?$_Vector_alloc@U?$_Vec_base_types@UPTR@cMovementBase@Glumer@@V?$allocator@UPTR@cMovementBase@Glumer@@@std@@@std@@@std@@QBEABQAUPTR@cMovementBase@Glumer@@XZ 10000000 f   cGlumShape_RegularPolyhedron.obj
 0000:fff41000       .debug$S                   10000000     ucrtd:ucrtbased.dll
 0000:fff41000       .debug$S                   10000000     ucrtd:ucrtbased.dll
 0000:fff41000       .debug$S                   10000000     ucrtd:ucrtbased.dll
 0000:fff41000       .debug$S                   10000000     ucrtd:ucrtbased.dll
 0000:fff41000       .debug$S                   10000000     ucrtd:ucrtbased.dll
 0000:fff41000       .debug$S                   10000000     ucrtd:ucrtbased.dll
 0000:fff41000       .debug$S                   10000000     ucrtd:ucrtbased.dll
 0000:fff41000       .debug$S                   10000000     ucrtd:ucrtbased.dll
 0000:fff41000       .debug$S                   10000000     ucrtd:ucrtbased.dll
 0000:fff41000       .debug$S                   10000000     ucrtd:ucrtbased.dll
 0000:fff41000       .debug$S                   10000000     ucrtd:ucrtbased.dll
 0000:fff41000       .debug$S                   10000000     ucrtd:ucrtbased.dll
 0000:fff41000       .debug$S                   10000000     ucrtd:ucrtbased.dll
 0000:fff41000       .debug$S                   10000000     ucrtd:ucrtbased.dll
 0000:fff41000       .debug$S                   10000000     ucrtd:ucrtbased.dll
 0000:fff41000       .debug$S                   10000000     ucrtd:ucrtbased.dll
 0000:fff41000       .debug$S                   10000000     ucrtd:ucrtbased.dll
 0000:fff41000       .debug$S                   10000000     ucrtd:ucrtbased.dll
 0000:fff41000       .debug$S                   10000000     ucrtd:ucrtbased.dll
 0000:fff41000       .debug$S                   10000000     ucrtd:ucrtbased.dll
 0000:fff41000       .debug$S                   10000000     ucrtd:ucrtbased.dll
 0000:fff41000       .debug$S                   10000000     ucrtd:ucrtbased.dll
 0000:fff41000       .debug$S                   10000000     ucrtd:ucrtbased.dll
 0000:fff41000       .debug$S                   10000000     ucrtd:ucrtbased.dll
 0000:fff41000       .debug$S                   10000000     ucrtd:ucrtbased.dll
 0000:fff41000       .debug$S                   10000000     ucrtd:ucrtbased.dll
 0000:fff41000       .debug$S                   10000000     ucrtd:ucrtbased.dll
 0000:fff41000       .debug$S                   10000000     ucrtd:ucrtbased.dll
 0002:fffce000       __ehhandler$?_Myfirst@?$_Vector_alloc@U?$_Vec_base_types@UPTR@cMovementBase@Glumer@@V?$allocator@UPTR@cMovementBase@Glumer@@@std@@@std@@@std@@QAEAAPAUPTR@cMovementBase@Glumer@@XZ 10000000 f   cGlumShape_RegularPolyhedron.obj
 0000:fff41000       .debug$S                   10000000     vcruntimed:VCRUNTIME140D.dll
 0000:fff41000       .debug$S                   10000000     vcruntimed:VCRUNTIME140D.dll
 0000:fff41000       .debug$S                   10000000     vcruntimed:VCRUNTIME140D.dll
 0000:fff41000       .debug$S                   10000000     vcruntimed:VCRUNTIME140D.dll
 0000:fff41000       .debug$S                   10000000     vcruntimed:VCRUNTIME140D.dll
 0000:fff41000       .debug$S                   10000000     vcruntimed:VCRUNTIME140D.dll
 0000:fff41000       .debug$S                   10000000     vcruntimed:VCRUNTIME140D.dll
 0000:fff41000       .debug$S                   10000000     vcruntimed:VCRUNTIME140D.dll
 0000:fff41000       .debug$S                   10000000     vcruntimed:VCRUNTIME140D.dll
 0000:fff41000       .debug$S                   10000000     vcruntimed:VCRUNTIME140D.dll
 0000:fff41000       .debug$S                   10000000     vcruntimed:VCRUNTIME140D.dll
 0000:fff41000       .debug$S                   10000000     vcruntimed:VCRUNTIME140D.dll
 0000:fff41000       .debug$S                   10000000     vcruntimed:VCRUNTIME140D.dll
 0000:fff41000       .debug$S                   10000000     vcruntimed:VCRUNTIME140D.dll
 0000:fff41000       .debug$S                   10000000     vcruntimed:VCRUNTIME140D.dll
 0000:fff41000       .debug$S                   10000000     vcruntimed:VCRUNTIME140D.dll
 0002:fffce000       __ehhandler$?_Get_data@?$_Vector_alloc@U?$_Vec_base_types@UPTR@cMovementBase@Glumer@@V?$allocator@UPTR@cMovementBase@Glumer@@@std@@@std@@@std@@QBEABV?$_Vector_val@U?$_Simple_types@UPTR@cMovementBase@Glumer@@@std@@@2@XZ 10000000 f   cGlumShape_RegularPolyhedron.obj
 0000:fff41000       .debug$S                   10000000     kernel32:KERNEL32.dll
 0000:fff41000       .debug$S                   10000000     kernel32:KERNEL32.dll
 0000:fff41000       .debug$S                   10000000     kernel32:KERNEL32.dll
 0000:fff41000       .debug$S                   10000000     kernel32:KERNEL32.dll
 0000:fff41000       .debug$S                   10000000     kernel32:KERNEL32.dll
 0000:fff41000       .debug$S                   10000000     kernel32:KERNEL32.dll
 0000:fff41000       .debug$S                   10000000     kernel32:KERNEL32.dll
 0000:fff41000       .debug$S                   10000000     kernel32:KERNEL32.dll
 0000:fff41000       .debug$S                   10000000     kernel32:KERNEL32.dll
 0000:fff41000       .debug$S                   10000000     kernel32:KERNEL32.dll
 0000:fff41000       .debug$S                   10000000     kernel32:KERNEL32.dll
 0000:fff41000       .debug$S                   10000000     kernel32:KERNEL32.dll
 0000:fff41000       .debug$S                   10000000     kernel32:KERNEL32.dll
 0000:fff41000       .debug$S                   10000000     kernel32:KERNEL32.dll
 0000:fff41000       .debug$S                   10000000     kernel32:KERNEL32.dll
 0000:fff41000       .debug$S                   10000000     kernel32:KERNEL32.dll
 0000:fff41000       .debug$S                   10000000     kernel32:KERNEL32.dll
 0000:fff41000       .debug$S                   10000000     kernel32:KERNEL32.dll
 0000:fff41000       .debug$S                   10000000     kernel32:KERNEL32.dll
 0000:fff41000       .debug$S                   10000000     kernel32:KERNEL32.dll
 0000:fff41000       .debug$S                   10000000     kernel32:KERNEL32.dll
 0000:fff41000       .debug$S                   10000000     kernel32:KERNEL32.dll
 0000:fff41000       .debug$S                   10000000     kernel32:KERNEL32.dll
 0000:fff41000       .debug$S                   10000000     kernel32:KERNEL32.dll
 0000:fff41000       .debug$S                   10000000     kernel32:KERNEL32.dll
 0000:fff41000       .debug$S                   10000000     kernel32:KERNEL32.dll
 0000:fff41000       .debug$S                   10000000     kernel32:KERNEL32.dll
 0000:fff41000       .debug$S                   10000000     kernel32:KERNEL32.dll
 0000:fff41000       .debug$S                   10000000     kernel32:KERNEL32.dll
 0000:fff41000       .debug$S                   10000000     kernel32:KERNEL32.dll
 0000:fff41000       .debug$S                   10000000     kernel32:KERNEL32.dll
 0000:fff41000       .debug$S                   10000000     kernel32:KERNEL32.dll
 0000:fff41000       .debug$S                   10000000     kernel32:KERNEL32.dll
 0002:fffce000       __ehhandler$?_Get_data@?$_Vector_alloc@U?$_Vec_base_types@UPTR@cMovementBase@Glumer@@V?$allocator@UPTR@cMovementBase@Glumer@@@std@@@std@@@std@@QAEAAV?$_Vector_val@U?$_Simple_types@UPTR@cMovementBase@Glumer@@@std@@@2@XZ 10000000 f   cGlumShape_RegularPolyhedron.obj
 0000:fff41000       .debug$S                   10000000     msvcprtd:MSVCP140D.dll
 0000:fff41000       .debug$S                   10000000     msvcprtd:MSVCP140D.dll
 0000:fff41000       .debug$S                   10000000     msvcprtd:MSVCP140D.dll
 0000:fff41000       .debug$S                   10000000     msvcprtd:MSVCP140D.dll
 0002:fffce000       __ehhandler$?_Getal@?$_Vector_alloc@U?$_Vec_base_types@UPTR@cMovementBase@Glumer@@V?$allocator@UPTR@cMovementBase@Glumer@@@std@@@std@@@std@@QBEABV?$allocator@UPTR@cMovementBase@Glumer@@@2@XZ 10000000 f   cGlumShape_RegularPolyhedron.obj
 0002:fffce000       __ehhandler$?_Getal@?$_Vector_alloc@U?$_Vec_base_types@UPTR@cMovementBase@Glumer@@V?$allocator@UPTR@cMovementBase@Glumer@@@std@@@std@@@std@@QAEAAV?$allocator@UPTR@cMovementBase@Glumer@@@2@XZ 10000000 f   cGlumShape_RegularPolyhedron.obj
 0002:fffce000       __ehhandler$?max_size@?$_Default_allocator_traits@V?$allocator@UPTR@cMovementBase@Glumer@@@std@@@std@@SAIABV?$allocator@UPTR@cMovementBase@Glumer@@@2@@Z 10000000 f   cGlumShape_RegularPolyhedron.obj
 0002:fffce000       __ehhandler$?_Orphan_me@_Iterator_base12@std@@QAEXXZ 10000000 f   cGlumShape_RegularPolyhedron.obj
 0002:fffce000       __ehhandler$?_Getpnext@_Iterator_base12@std@@QAEPAPAU12@XZ 10000000 f   cGlumShape_RegularPolyhedron.obj
 0002:fffce000       __ehhandler$?_Getcont@_Iterator_base12@std@@QBEPBU_Container_base12@2@XZ 10000000 f   cGlumShape_RegularPolyhedron.obj
 0002:fffce000       __ehhandler$?_Clrcont@_Iterator_base12@std@@QAEXXZ 10000000 f   cGlumShape_RegularPolyhedron.obj
 0002:fffce000       __ehhandler$?_Get_second@?$_Compressed_pair@V?$allocator@D@std@@V?$_String_val@U?$_Simple_types@D@std@@@2@$00@std@@QBEABV?$_String_val@U?$_Simple_types@D@std@@@2@XZ 10000000 f   Glumer.obj
 0002:fffce000       __ehhandler$?size@?$vector@UPTR@cGlumShape_RegularPolyhedron@Glumer@@V?$allocator@UPTR@cGlumShape_RegularPolyhedron@Glumer@@@std@@@std@@QBEIXZ 10000000 f   Glumer.obj
 0002:fffce000       __unwindfunclet$??0?$basic_string@DU?$char_traits@D@std@@V?$allocator@D@2@@std@@QAE@ABV01@@Z$0 10000000 f   Glumer.obj
 0002:fffce000       __ehhandler$??0?$basic_string@DU?$char_traits@D@std@@V?$allocator@D@2@@std@@QAE@$$QAV01@@Z 10000000 f   Glumer.obj
 0000:fff4a000       __guard_fids___guard_icall_checks_enforced 10000000     MSVCRTD:guard_support.obj
 0000:fff4a000       __guard_fids__             10000000     MSVCRTD:guard_support.obj
 0000:fff4a000       __guard_fids___except_handler4 10000000     MSVCRTD:_chandler4gs_.obj
 0000:fff4a000       __guard_fids____scrt_set_unhandled_exception_filter 10000000     MSVCRTD:utility_desktop.obj
 0000:fff4a000       __guard_fids__             10000000     MSVCRTD:throw_bad_alloc.obj
 0000:fff4a000       __guard_fids__             10000000     MSVCRTD:throw_bad_alloc.obj
 0000:fff4a000       __guard_fids__             10000000     MSVCRTD:throw_bad_alloc.obj
 0000:fff4a000       __guard_fids__             10000000     MSVCRTD:throw_bad_alloc.obj
 0000:fff4a000       __guard_fids__             10000000     MSVCRTD:throw_bad_alloc.obj
 0000:fff4a000       __guard_fids__             10000000     MSVCRTD:throw_bad_alloc.obj
 0000:fff4a000       __guard_fids__             10000000     MSVCRTD:throw_bad_alloc.obj
 0000:fff4a000       __guard_fids__             10000000     MSVCRTD:throw_bad_alloc.obj
 0002:fffce000       __ehhandler$?_Adopt@_Iterator_base12@std@@QAEXPBU_Container_base12@2@@Z 10000000 f   cGlumShape_RegularPolyhedron.obj
 0002:fffce000       __ehhandler$?max_size@?$vector@UPTR@cGlumShape_RegularPolyhedron@Glumer@@V?$allocator@UPTR@cGlumShape_RegularPolyhedron@Glumer@@@std@@@std@@QBEIXZ 10000000 f   Glumer.obj
 0002:fffce000       __ehhandler$?capacity@?$vector@UPTR@cGlumShape_RegularPolyhedron@Glumer@@V?$allocator@UPTR@cGlumShape_RegularPolyhedron@Glumer@@@std@@@std@@QBEIXZ 10000000 f   Glumer.obj
 0002:fffce000       __ehhandler$?_Has_unused_capacity@?$vector@UPTR@cGlumShape_RegularPolyhedron@Glumer@@V?$allocator@UPTR@cGlumShape_RegularPolyhedron@Glumer@@@std@@@std@@ABE_NXZ 10000000 f   Glumer.obj
 0002:fffce000       __ehhandler$??1_Iterator_base12@std@@QAE@XZ 10000000 f   cGlumShape_RegularPolyhedron.obj
 0002:fffce000       __ehhandler$?_Assign_rv_contents_with_alloc_always_equal@?$basic_string@DU?$char_traits@D@std@@V?$allocator@D@2@@std@@QAEX$$QAV12@U?$integral_constant@_N$00@2@@Z 10000000 f   Glumer.obj
 0002:fffce000       __ehhandler$??1?$basic_string@DU?$char_traits@D@std@@V?$allocator@D@2@@std@@QAE@XZ 10000000 f   Glumer.obj
 0003:fff61000       __ehfuncinfo$??4_Iterator_base12@std@@QAEAAU01@ABU01@@Z 10000000     cPolyLetter.obj
 0002:fffce000       __ehhandler$??4_Iterator_base12@std@@QAEAAU01@ABU01@@Z 10000000 f   cGlumShape_RegularPolyhedron.obj
 0002:fffce000       __ehhandler$??0_Iterator_base12@std@@QAE@ABU01@@Z 10000000 f   cGlumShape_RegularPolyhedron.obj
 0002:fffce000       __ehhandler$??0_Iterator_base12@std@@QAE@XZ 10000000 f   cGlumShape_RegularPolyhedron.obj
 0002:fffce000       __ehhandler$?max_size@?$basic_string@DU?$char_traits@D@std@@V?$allocator@D@2@@std@@QBEIXZ 10000000 f   Glumer.obj
 0003:fff61000       __ehfuncinfo$??0_Iterator_base12@std@@QAE@ABU01@@Z 10000000     cPolyLetter.obj
 0002:fffce000       __ehhandler$?size@?$vector@UPTR@cMovement_Camera@Glumer@@V?$allocator@UPTR@cMovement_Camera@Glumer@@@std@@@std@@QBEIXZ 10000000 f   Glumer.obj
 0002:fffce000       __ehhandler$?_Orphan_all@_Container_base12@std@@QAEXXZ 10000000 f   cGlumShape_RegularPolyhedron.obj
 0002:fffce000       __ehhandler$?_Getpfirst@_Container_base12@std@@QBEPAPAU_Iterator_base12@2@XZ 10000000 f   cGlumShape_RegularPolyhedron.obj
 0002:fffce000       __unwindfunclet$?_Orphan_range@?$vector@UPTR@cGlumShape_RegularPolyhedron@Glumer@@V?$allocator@UPTR@cGlumShape_RegularPolyhedron@Glumer@@@std@@@std@@ABEXPAUPTR@cGlumShape_RegularPolyhedron@Glumer@@0@Z$0 10000000 f   Glumer.obj
 0002:fffce000       __ehhandler$??0?$tuple@$$V@std@@QAE@XZ 10000000 f   Glumer.obj
 0002:fffce000       __ehhandler$??0?$tuple@$$V@std@@QAE@ABV01@@Z 10000000 f   Glumer.obj
 0002:fffce000       __ehhandler$?max@?$numeric_limits@H@std@@SAHXZ 10000000 f   cGlumShape_RegularPolyhedron.obj
 0002:fffce000       __ehhandler$??1Lock@cMutexWrapper@TimerWrapper@@QAE@XZ 10000000 f   cGlumShape_Console.obj
 0000:fff4a000       __guard_fids_?dllmain_dispatch@@YAHQAUHINSTANCE__@@KQAX@Z 10000000     MSVCRTD:dll_dllmain.obj
 0002:fffce000       __ehhandler$??1cMutexWrapper@TimerWrapper@@UAE@XZ 10000000 f   cGlumShape_Console.obj
 0002:fffce000       __ehhandler$??2@YAPAXIPAX@Z 10000000 f   cGlumShape_Console.obj
 0002:fffce000       __ehhandler$?max@?$numeric_limits@H@std@@SAHXZ 10000000 f   cGlumShape_Console.obj
 0002:fffce000       __ehhandler$??0?$allocator@V?$basic_string@DU?$char_traits@D@std@@V?$allocator@D@2@@std@@@std@@QAE@XZ 10000000 f   Glumer.obj
 0002:fffce000       __ehhandler$?_Get_second@?$_Compressed_pair@V?$allocator@UPTR@cMovement_Camera@Glumer@@@std@@V?$_Vector_val@U?$_Simple_types@UPTR@cMovement_Camera@Glumer@@@std@@@2@$00@std@@QBEABV?$_Vector_val@U?$_Simple_types@UPTR@cMovement_Camera@Glumer@@@std@@@2@XZ 10000000 f   Glumer.obj
 0002:fffce000       __ehhandler$??0_Container_proxy@std@@QAE@XZ 10000000 f   cGlumShape_Console.obj
 0002:fffce000       __ehhandler$?_Getpfirst@_Container_base12@std@@QBEPAPAU_Iterator_base12@2@XZ 10000000 f   cGlumShape_Console.obj
 0002:fffce000       __ehhandler$?_Orphan_all@_Container_base12@std@@QAEXXZ 10000000 f   cGlumShape_Console.obj
 0002:fffce000       __ehhandler$?max_size@?$_Default_allocator_traits@V?$allocator@V?$basic_string@DU?$char_traits@D@std@@V?$allocator@D@2@@std@@@std@@@std@@SAIABV?$allocator@V?$basic_string@DU?$char_traits@D@std@@V?$allocator@D@2@@std@@@2@@Z 10000000 f   Glumer.obj
 0002:fffce000       __ehhandler$??1?$_Vector_alloc@U?$_Vec_base_types@V?$basic_string@DU?$char_traits@D@std@@V?$allocator@D@2@@std@@V?$allocator@V?$basic_string@DU?$char_traits@D@std@@V?$allocator@D@2@@std@@@2@@std@@@std@@QAE@XZ 10000000 f   Glumer.obj
 0003:fff61000       __ehfuncinfo$?_Adopt@_Iterator_base12@std@@QAEXPBU_Container_base12@2@@Z 10000000     cPolyLetter.obj
 0002:fffce000       __ehhandler$??1cMutexWrapper@TimerWrapper@@UAE@XZ 10000000 f   cSelectableBase.obj
 0002:fffce000       __ehhandler$??1Lock@cMutexWrapper@TimerWrapper@@QAE@XZ 10000000 f   cSelectableBase.obj
 0000:fff4a000       __guard_fids_?__scrt_initialize_thread_safe_statics@@YAHXZ 10000000     MSVCRTD:thread_safe_statics.obj
 0002:fffce000       __ehhandler$?_Orphan_me@_Iterator_base12@std@@QAEXXZ 10000000 f   cSelectableBase.obj
 0002:fffce000       __ehhandler$?_Getcont@_Iterator_base12@std@@QBEPBU_Container_base12@2@XZ 10000000 f   cSelectableBase.obj
 0002:fffce000       __ehhandler$?_Get_second@?$_Compressed_pair@V?$allocator@UPTR@cMovementBase@Glumer@@@std@@V?$_Vector_val@U?$_Simple_types@UPTR@cMovementBase@Glumer@@@std@@@2@$00@std@@QAEAAV?$_Vector_val@U?$_Simple_types@UPTR@cMovementBase@Glumer@@@std@@@2@XZ 10000000 f   cObjectMoveableBase.obj
 0002:fffce000       __ehhandler$?_Get_second@?$_Compressed_pair@V?$allocator@UPTR@cMovementBase@Glumer@@@std@@V?$_Vector_val@U?$_Simple_types@UPTR@cMovementBase@Glumer@@@std@@@2@$00@std@@QBEABV?$_Vector_val@U?$_Simple_types@UPTR@cMovementBase@Glumer@@@std@@@2@XZ 10000000 f   cObjectMoveableBase.obj
 0002:fffce000       __ehhandler$?_Mylast@?$_Vector_alloc@U?$_Vec_base_types@UPTR@cMovement_Camera@Glumer@@V?$allocator@UPTR@cMovement_Camera@Glumer@@@std@@@std@@@std@@QBEABQAUPTR@cMovement_Camera@Glumer@@XZ 10000000 f   Glumer.obj
 0002:fffce000       __ehhandler$?_Myproxy@?$_Vector_alloc@U?$_Vec_base_types@V?$basic_string@DU?$char_traits@D@std@@V?$allocator@D@2@@std@@V?$allocator@V?$basic_string@DU?$char_traits@D@std@@V?$allocator@D@2@@std@@@2@@std@@@std@@QAEAAPAU_Container_proxy@2@XZ 10000000 f   Glumer.obj
 0000:fff4a000       __guard_fids__             10000000     MSVCRTD:thread_safe_statics.obj
 0002:fffce000       __ehhandler$?_Getal@?$_Vector_alloc@U?$_Vec_base_types@V?$basic_string@DU?$char_traits@D@std@@V?$allocator@D@2@@std@@V?$allocator@V?$basic_string@DU?$char_traits@D@std@@V?$allocator@D@2@@std@@@2@@std@@@std@@QAEAAV?$allocator@V?$basic_string@DU?$char_traits@D@std@@V?$allocator@D@2@@std@@@2@XZ 10000000 f   Glumer.obj
 0002:fffce000       __ehhandler$?_Getal@?$_Vector_alloc@U?$_Vec_base_types@V?$basic_string@DU?$char_traits@D@std@@V?$allocator@D@2@@std@@V?$allocator@V?$basic_string@DU?$char_traits@D@std@@V?$allocator@D@2@@std@@@2@@std@@@std@@QBEABV?$allocator@V?$basic_string@DU?$char_traits@D@std@@V?$allocator@D@2@@std@@@2@XZ 10000000 f   Glumer.obj
 0002:fffce000       __ehhandler$??0_Iterator_base12@std@@QAE@XZ 10000000 f   cGlumShape_Console.obj
 0002:fffce000       __ehhandler$??0_Iterator_base12@std@@QAE@ABU01@@Z 10000000 f   cGlumShape_Console.obj
 0002:fffce000       __ehhandler$??4_Iterator_base12@std@@QAEAAU01@ABU01@@Z 10000000 f   cGlumShape_Console.obj
 0002:fffce000       __ehhandler$?_Getcont@_Iterator_base12@std@@QBEPBU_Container_base12@2@XZ 10000000 f   cGluperCenter.obj
 0002:fffce000       __ehhandler$?_Get_data@?$_Vector_alloc@U?$_Vec_base_types@V?$basic_string@DU?$char_traits@D@std@@V?$allocator@D@2@@std@@V?$allocator@V?$basic_string@DU?$char_traits@D@std@@V?$allocator@D@2@@std@@@2@@std@@@std@@QAEAAV?$_Vector_val@U?$_Simple_types@V?$basic_string@DU?$char_traits@D@std@@V?$allocator@D@2@@std@@@std@@@2@XZ 10000000 f   Glumer.obj
 0002:fffce000       __ehhandler$?_Get_data@?$_Vector_alloc@U?$_Vec_base_types@V?$basic_string@DU?$char_traits@D@std@@V?$allocator@D@2@@std@@V?$allocator@V?$basic_string@DU?$char_traits@D@std@@V?$allocator@D@2@@std@@@2@@std@@@std@@QBEABV?$_Vector_val@U?$_Simple_types@V?$basic_string@DU?$char_traits@D@std@@V?$allocator@D@2@@std@@@std@@@2@XZ 10000000 f   Glumer.obj
 0002:fffce000       __ehhandler$??1_Iterator_base12@std@@QAE@XZ 10000000 f   cGlumShape_Console.obj
 0000:fff4a000       __guard_fids__             10000000     MSVCRTD:std_type_info_static.obj
 0002:fffce000       __ehhandler$?_Orphan_me@_Iterator_base12@std@@QAEXXZ 10000000 f   cGluperCenter.obj
 0000:fff4a000       __guard_fids___CRT_RTC_INITW 10000000     MSVCRTD:_init_.obj
 0000:fff4a000       __guard_fids___CRT_RTC_INIT 10000000     MSVCRTD:_init_.obj
 0002:fffce000       __ehhandler$?_Get_data@?$_Vector_alloc@U?$_Vec_base_types@UPTR@cMovementBase@Glumer@@V?$allocator@UPTR@cMovementBase@Glumer@@@std@@@std@@@std@@QAEAAV?$_Vector_val@U?$_Simple_types@UPTR@cMovementBase@Glumer@@@std@@@2@XZ 10000000 f   cGluperCenter.obj
 0000:fff41000       .debug$S                   10000000     GlU32:GLU32.dll
 0000:fff41000       .debug$S                   10000000     GlU32:GLU32.dll
 0000:fff41000       .debug$S                   10000000     GlU32:GLU32.dll
 0002:fffce000       __ehhandler$?_Myfirst@?$_Vector_alloc@U?$_Vec_base_types@UPTR@cMovementBase@Glumer@@V?$allocator@UPTR@cMovementBase@Glumer@@@std@@@std@@@std@@QAEAAPAUPTR@cMovementBase@Glumer@@XZ 10000000 f   cGluperCenter.obj
 0000:fff41000       .debug$S                   10000000     OpenGL32:OPENGL32.dll
 0000:fff41000       .debug$S                   10000000     OpenGL32:OPENGL32.dll
 0000:fff41000       .debug$S                   10000000     OpenGL32:OPENGL32.dll
 0000:fff41000       .debug$S                   10000000     OpenGL32:OPENGL32.dll
 0000:fff41000       .debug$S                   10000000     OpenGL32:OPENGL32.dll
 0000:fff41000       .debug$S                   10000000     OpenGL32:OPENGL32.dll
 0000:fff41000       .debug$S                   10000000     OpenGL32:OPENGL32.dll
 0000:fff41000       .debug$S                   10000000     OpenGL32:OPENGL32.dll
 0000:fff41000       .debug$S                   10000000     OpenGL32:OPENGL32.dll
 0000:fff41000       .debug$S                   10000000     OpenGL32:OPENGL32.dll
 0000:fff41000       .debug$S                   10000000     OpenGL32:OPENGL32.dll
 0000:fff41000       .debug$S                   10000000     OpenGL32:OPENGL32.dll
 0000:fff41000       .debug$S                   10000000     OpenGL32:OPENGL32.dll
 0000:fff41000       .debug$S                   10000000     OpenGL32:OPENGL32.dll
 0000:fff41000       .debug$S                   10000000     OpenGL32:OPENGL32.dll
 0000:fff41000       .debug$S                   10000000     OpenGL32:OPENGL32.dll
 0000:fff41000       .debug$S                   10000000     OpenGL32:OPENGL32.dll
 0000:fff41000       .debug$S                   10000000     OpenGL32:OPENGL32.dll
 0000:fff41000       .debug$S                   10000000     OpenGL32:OPENGL32.dll
 0000:fff41000       .debug$S                   10000000     OpenGL32:OPENGL32.dll
 0000:fff41000       .debug$S                   10000000     OpenGL32:OPENGL32.dll
 0000:fff41000       .debug$S                   10000000     OpenGL32:OPENGL32.dll
 0000:fff41000       .debug$S                   10000000     OpenGL32:OPENGL32.dll
 0000:fff41000       .debug$S                   10000000     OpenGL32:OPENGL32.dll
 0000:fff41000       .debug$S                   10000000     OpenGL32:OPENGL32.dll
 0000:fff41000       .debug$S                   10000000     OpenGL32:OPENGL32.dll
 0000:fff41000       .debug$S                   10000000     OpenGL32:OPENGL32.dll
 0000:fff41000       .debug$S                   10000000     OpenGL32:OPENGL32.dll
 0002:fffce000       __ehhandler$?_Adopt@_Iterator_base12@std@@QAEXPBU_Container_base12@2@@Z 10000000 f   cGlumShape_Console.obj
 0000:fff41000       .debug$S                   10000000     SDL2:SDL2.dll
 0000:fff41000       .debug$S                   10000000     SDL2:SDL2.dll
 0000:fff41000       .debug$S                   10000000     SDL2:SDL2.dll
 0000:fff41000       .debug$S                   10000000     SDL2:SDL2.dll
 0000:fff41000       .debug$S                   10000000     SDL2:SDL2.dll
 0000:fff41000       .debug$S                   10000000     SDL2:SDL2.dll
 0000:fff41000       .debug$S                   10000000     SDL2:SDL2.dll
 0000:fff41000       .debug$S                   10000000     SDL2:SDL2.dll
 0000:fff41000       .debug$S                   10000000     SDL2:SDL2.dll
 0000:fff41000       .debug$S                   10000000     SDL2:SDL2.dll
 0000:fff41000       .debug$S                   10000000     SDL2:SDL2.dll
 0002:fffce000       __ehhandler$??1?$vector@UPTR@cMovementBase@Glumer@@V?$allocator@UPTR@cMovementBase@Glumer@@@std@@@std@@QAE@XZ 10000000 f   cObjectMoveableBase.obj
 0002:fffce000       __ehhandler$?_Myfirst@?$_Vector_alloc@U?$_Vec_base_types@V?$basic_string@DU?$char_traits@D@std@@V?$allocator@D@2@@std@@V?$allocator@V?$basic_string@DU?$char_traits@D@std@@V?$allocator@D@2@@std@@@2@@std@@@std@@QAEAAPAV?$basic_string@DU?$char_traits@D@std@@V?$allocator@D@2@@2@XZ 10000000 f   Glumer.obj
 0002:fffce000       __ehhandler$?_Myfirst@?$_Vector_alloc@U?$_Vec_base_types@V?$basic_string@DU?$char_traits@D@std@@V?$allocator@D@2@@std@@V?$allocator@V?$basic_string@DU?$char_traits@D@std@@V?$allocator@D@2@@std@@@2@@std@@@std@@QBEABQAV?$basic_string@DU?$char_traits@D@std@@V?$allocator@D@2@@2@XZ 10000000 f   Glumer.obj
 0002:fffce000       __ehhandler$?_Mylast@?$_Vector_alloc@U?$_Vec_base_types@V?$basic_string@DU?$char_traits@D@std@@V?$allocator@D@2@@std@@V?$allocator@V?$basic_string@DU?$char_traits@D@std@@V?$allocator@D@2@@std@@@2@@std@@@std@@QAEAAPAV?$basic_string@DU?$char_traits@D@std@@V?$allocator@D@2@@2@XZ 10000000 f   Glumer.obj
 0002:fffce000       __ehhandler$?_Mylast@?$_Vector_alloc@U?$_Vec_base_types@V?$basic_string@DU?$char_traits@D@std@@V?$allocator@D@2@@std@@V?$allocator@V?$basic_string@DU?$char_traits@D@std@@V?$allocator@D@2@@std@@@2@@std@@@std@@QBEABQAV?$basic_string@DU?$char_traits@D@std@@V?$allocator@D@2@@2@XZ 10000000 f   Glumer.obj
 0002:fffce000       __ehhandler$?_Myend@?$_Vector_alloc@U?$_Vec_base_types@V?$basic_string@DU?$char_traits@D@std@@V?$allocator@D@2@@std@@V?$allocator@V?$basic_string@DU?$char_traits@D@std@@V?$allocator@D@2@@std@@@2@@std@@@std@@QAEAAPAV?$basic_string@DU?$char_traits@D@std@@V?$allocator@D@2@@2@XZ 10000000 f   Glumer.obj
 0003:fff61000       __ehfuncinfo$??$get@$0A@ABI@std@@YAABI$$QAV?$tuple@ABI@0@@Z 10000000     Glumer.obj
 0003:fff61000       __ehfuncinfo$??$move@AAV?$tuple@ABI@std@@@std@@YA$$QAV?$tuple@ABI@0@AAV10@@Z 10000000     Glumer.obj
 0003:fff61000       __ehfuncinfo$??$forward@AAV?$basic_string@DU?$char_traits@D@std@@V?$allocator@D@2@@std@@@std@@YAAAV?$basic_string@DU?$char_traits@D@std@@V?$allocator@D@2@@0@AAV10@@Z 10000000     Glumer.obj
 0003:fff61000       __ehfuncinfo$??$?0U_Exact_args_t@std@@$0A@@?$tuple@$$V@std@@QAE@U_Exact_args_t@1@@Z 10000000     Glumer.obj
 0003:fff61000       __ehfuncinfo$??$forward@V?$basic_string@DU?$char_traits@D@std@@V?$allocator@D@2@@std@@@std@@YA$$QAV?$basic_string@DU?$char_traits@D@std@@V?$allocator@D@2@@0@AAV10@@Z 10000000     Glumer.obj
 0003:fff61000       __catchsym$??$_Insert_nohint@AAU?$pair@$$CBIUPTR@cGlumShapeBase@Glumer@@@std@@PAU?$_Tree_node@U?$pair@$$CBIUPTR@cGlumShapeBase@Glumer@@@std@@PAX@2@@?$_Tree@V?$_Tmap_traits@IUPTR@cGlumShapeBase@Glumer@@U?$less@I@std@@V?$allocator@U?$pair@$$CBIUPTR@cGlumShapeBase@Glumer@@@std@@@5@$0A@@std@@@std@@IAE?AU?$pair@V?$_Tree_iterator@V?$_Tree_val@U?$_Tree_simple_types@U?$pair@$$CBIUPTR@cGlumShapeBase@Glumer@@@std@@@std@@@std@@@std@@_N@1@_NAAU?$pair@$$CBIUPTR@cGlumShapeBase@Glumer@@@1@PAU?$_Tree_node@U?$pair@$$CBIUPTR@cGlumShapeBase@Glumer@@@std@@PAX@1@@Z$8 10000000     Glumer.obj
 0002:fffce000       __ehhandler$?_Myfirst@?$_Vector_alloc@U?$_Vec_base_types@UPTR@cMovement_Camera@Glumer@@V?$allocator@UPTR@cMovement_Camera@Glumer@@@std@@@std@@@std@@QBEABQAUPTR@cMovement_Camera@Glumer@@XZ 10000000 f   Glumer.obj
 0002:fffce000       __ehhandler$?_Get_data@?$_Vector_alloc@U?$_Vec_base_types@UPTR@cMovement_Camera@Glumer@@V?$allocator@UPTR@cMovement_Camera@Glumer@@@std@@@std@@@std@@QBEABV?$_Vector_val@U?$_Simple_types@UPTR@cMovement_Camera@Glumer@@@std@@@2@XZ 10000000 f   Glumer.obj
 0003:fff61000       __ehfuncinfo$??0_Iterator_base12@std@@QAE@XZ 10000000     cPolyLetter.obj
 0003:fff61000       __ehfuncinfo$??$forward@AAU?$pair@$$CBIUPTR@cGlumShapeBase@Glumer@@@std@@@std@@YAAAU?$pair@$$CBIUPTR@cGlumShapeBase@Glumer@@@0@AAU10@@Z 10000000     Glumer.obj
 0003:fff61000       __unwindtable$??$_Uninitialized_copy_al_unchecked@PAV?$basic_string@DU?$char_traits@D@std@@V?$allocator@D@2@@std@@PAV12@V?$allocator@V?$basic_string@DU?$char_traits@D@std@@V?$allocator@D@2@@std@@@2@@std@@YAPAV?$basic_string@DU?$char_traits@D@std@@V?$allocator@D@2@@0@PAV10@QAV10@1AAV?$allocator@V?$basic_string@DU?$char_traits@D@std@@V?$allocator@D@2@@std@@@0@U_General_ptr_iterator_tag@0@U_Unused_parameter@0@@Z 10000000     Glumer.obj
 0003:fff61000       __ehfuncinfo$?_Orphan_all@_Container_base12@std@@QAEXXZ 10000000     cPolyLetter.obj
 0003:fff61000       __catchsym$??$_Buynode@ABUpiecewise_construct_t@std@@V?$tuple@ABI@2@V?$tuple@$$V@2@@?$_Tree_comp_alloc@V?$_Tmap_traits@IUPTR@cGlumShapeBase@Glumer@@U?$less@I@std@@V?$allocator@U?$pair@$$CBIUPTR@cGlumShapeBase@Glumer@@@std@@@5@$0A@@std@@@std@@QAEPAU?$_Tree_node@U?$pair@$$CBIUPTR@cGlumShapeBase@Glumer@@@std@@PAX@1@ABUpiecewise_construct_t@1@$$QAV?$tuple@ABI@1@$$QAV?$tuple@$$V@1@@Z$2 10000000     Glumer.obj
 0002:fffce000       __ehhandler$?_Mylast@?$_Vector_alloc@U?$_Vec_base_types@UPTR@cMovementBase@Glumer@@V?$allocator@UPTR@cMovementBase@Glumer@@@std@@@std@@@std@@QAEAAPAUPTR@cMovementBase@Glumer@@XZ 10000000 f   cGluperCenter.obj
 0002:fffce000       __ehhandler$?_Get_second@?$_Compressed_pair@V?$allocator@UPTR@cMovementBase@Glumer@@@std@@V?$_Vector_val@U?$_Simple_types@UPTR@cMovementBase@Glumer@@@std@@@2@$00@std@@QAEAAV?$_Vector_val@U?$_Simple_types@UPTR@cMovementBase@Glumer@@@std@@@2@XZ 10000000 f   cGluperCenter.obj
 0002:fffce000       __ehhandler$?begin@?$vector@UPTR@cMovementBase@Glumer@@V?$allocator@UPTR@cMovementBase@Glumer@@@std@@@std@@QAE?AV?$_Vector_iterator@V?$_Vector_val@U?$_Simple_types@UPTR@cMovementBase@Glumer@@@std@@@std@@@2@XZ 10000000 f   cGluperCenter.obj
 0003:fff61000       __ehfuncinfo$??$forward@V?$tuple@ABI@std@@@std@@YA$$QAV?$tuple@ABI@0@AAV10@@Z 10000000     Glumer.obj
 0003:fff61000       __ehfuncinfo$??$?0ABI$0A@@?$tuple@ABI@std@@QAE@ABI@Z 10000000     Glumer.obj
 0003:fff61000       __ehfuncinfo$??$forward@AAV?$_Tree_iterator@V?$_Tree_val@U?$_Tree_simple_types@U?$pair@$$CBIUPTR@cGlumShapeBase@Glumer@@@std@@@std@@@std@@@std@@@std@@YAAAV?$_Tree_iterator@V?$_Tree_val@U?$_Tree_simple_types@U?$pair@$$CBIUPTR@cGlumShapeBase@Glumer@@@std@@@std@@@std@@@0@AAV10@@Z 10000000     Glumer.obj
 0003:fff61000       __ehfuncinfo$??$forward@_N@std@@YA$$QA_NAA_N@Z 10000000     Glumer.obj
 0003:fff61000       __ehfuncinfo$??$forward@V?$_Tree_iterator@V?$_Tree_val@U?$_Tree_simple_types@U?$pair@$$CBIUPTR@cGlumShapeBase@Glumer@@@std@@@std@@@std@@@std@@@std@@YA$$QAV?$_Tree_iterator@V?$_Tree_val@U?$_Tree_simple_types@U?$pair@$$CBIUPTR@cGlumShapeBase@Glumer@@@std@@@std@@@std@@@0@AAV10@@Z 10000000     Glumer.obj
 0003:fff61000       __catchsym$??$_Insert_hint@AAU?$pair@$$CBIUPTR@cGlumShapeBase@Glumer@@@std@@PAU?$_Tree_node@U?$pair@$$CBIUPTR@cGlumShapeBase@Glumer@@@std@@PAX@2@@?$_Tree@V?$_Tmap_traits@IUPTR@cGlumShapeBase@Glumer@@U?$less@I@std@@V?$allocator@U?$pair@$$CBIUPTR@cGlumShapeBase@Glumer@@@std@@@5@$0A@@std@@@std@@IAE?AV?$_Tree_iterator@V?$_Tree_val@U?$_Tree_simple_types@U?$pair@$$CBIUPTR@cGlumShapeBase@Glumer@@@std@@@std@@@std@@@1@V?$_Tree_const_iterator@V?$_Tree_val@U?$_Tree_simple_types@U?$pair@$$CBIUPTR@cGlumShapeBase@Glumer@@@std@@@std@@@std@@@1@AAU?$pair@$$CBIUPTR@cGlumShapeBase@Glumer@@@1@PAU?$_Tree_node@U?$pair@$$CBIUPTR@cGlumShapeBase@Glumer@@@std@@PAX@1@@Z$12 10000000     Glumer.obj
 0002:fffce000       __ehhandler$?_Adopt@_Iterator_base12@std@@QAEXPBU_Container_base12@2@@Z 10000000 f   cSelectableBase.obj
 0002:fffce000       __ehhandler$??1_Iterator_base12@std@@QAE@XZ 10000000 f   cSelectableBase.obj
 0002:fffce000       __ehhandler$?_Get_data@?$_Vector_alloc@U?$_Vec_base_types@PAVcObjectBase@Glumer@@V?$allocator@PAVcObjectBase@Glumer@@@std@@@std@@@std@@QAEAAV?$_Vector_val@U?$_Simple_types@PAVcObjectBase@Glumer@@@std@@@2@XZ 10000000 f   cSelectableBase.obj
 0003:fff61000       __ehfuncinfo$??$forward@V?$tuple@$$V@std@@@std@@YA$$QAV?$tuple@$$V@0@AAV10@@Z 10000000     Glumer.obj
 0003:fff61000       __ehfuncinfo$??$forward@ABUpiecewise_construct_t@std@@@std@@YAABUpiecewise_construct_t@0@ABU10@@Z 10000000     Glumer.obj
 0003:fff61000       __unwindtable$??$_Uninitialized_move_al_unchecked@PAV?$basic_string@DU?$char_traits@D@std@@V?$allocator@D@2@@std@@PAV12@V?$allocator@V?$basic_string@DU?$char_traits@D@std@@V?$allocator@D@2@@std@@@2@@std@@YAPAV?$basic_string@DU?$char_traits@D@std@@V?$allocator@D@2@@0@PAV10@QAV10@1AAV?$allocator@V?$basic_string@DU?$char_traits@D@std@@V?$allocator@D@2@@std@@@0@U_General_ptr_iterator_tag@0@U_Unused_parameter@0@@Z 10000000     Glumer.obj
 0002:fffce000       __ehhandler$?_Adopt@_Iterator_base12@std@@QAEXPBU_Container_base12@2@@Z 10000000 f   cGluperCenter.obj
 0003:fff61000       __ehfuncinfo$??1?$_Uninitialized_backout_al@PAV?$basic_string@DU?$char_traits@D@std@@V?$allocator@D@2@@std@@V?$allocator@V?$basic_string@DU?$char_traits@D@std@@V?$allocator@D@2@@std@@@2@@std@@QAE@XZ 10000000     Glumer.obj
 0003:fff61000       __unwindtable$??$emplace_hint@ABUpiecewise_construct_t@std@@V?$tuple@ABI@2@V?$tuple@$$V@2@@?$_Tree@V?$_Tmap_traits@IUPTR@cGlumShapeBase@Glumer@@U?$less@I@std@@V?$allocator@U?$pair@$$CBIUPTR@cGlumShapeBase@Glumer@@@std@@@5@$0A@@std@@@std@@QAE?AV?$_Tree_iterator@V?$_Tree_val@U?$_Tree_simple_types@U?$pair@$$CBIUPTR@cGlumShapeBase@Glumer@@@std@@@std@@@std@@@1@V?$_Tree_const_iterator@V?$_Tree_val@U?$_Tree_simple_types@U?$pair@$$CBIUPTR@cGlumShapeBase@Glumer@@@std@@@std@@@std@@@1@ABUpiecewise_construct_t@1@$$QAV?$tuple@ABI@1@$$QAV?$tuple@$$V@1@@Z 10000000     Glumer.obj
 0002:fffce000       __ehhandler$??4_Iterator_base12@std@@QAEAAU01@ABU01@@Z 10000000 f   cSelectableBase.obj
 0003:fff61000       __ehfuncinfo$??0?$tuple@ABI@std@@QAE@$$QAV01@@Z 10000000     Glumer.obj
 0003:fff61000       __ehfuncinfo$??$forward_as_tuple@ABI@std@@YA?AV?$tuple@ABI@0@ABI@Z 10000000     Glumer.obj
 0003:fff61000       __ehfuncinfo$??$?0AAV?$_Tree_iterator@V?$_Tree_val@U?$_Tree_simple_types@U?$pair@$$CBIUPTR@cGlumShapeBase@Glumer@@@std@@@std@@@std@@@std@@_N$0A@@?$pair@V?$_Tree_iterator@V?$_Tree_val@U?$_Tree_simple_types@U?$pair@$$CBIUPTR@cGlumShapeBase@Glumer@@@std@@@std@@@std@@@std@@_N@std@@QAE@AAV?$_Tree_iterator@V?$_Tree_val@U?$_Tree_simple_types@U?$pair@$$CBIUPTR@cGlumShapeBase@Glumer@@@std@@@std@@@std@@@1@$$QA_N@Z 10000000     Glumer.obj
 0003:fff61000       __ehfuncinfo$??$?0V?$_Tree_iterator@V?$_Tree_val@U?$_Tree_simple_types@U?$pair@$$CBIUPTR@cGlumShapeBase@Glumer@@@std@@@std@@@std@@@std@@_N$0A@@?$pair@V?$_Tree_iterator@V?$_Tree_val@U?$_Tree_simple_types@U?$pair@$$CBIUPTR@cGlumShapeBase@Glumer@@@std@@@std@@@std@@@std@@_N@std@@QAE@$$QAV?$_Tree_iterator@V?$_Tree_val@U?$_Tree_simple_types@U?$pair@$$CBIUPTR@cGlumShapeBase@Glumer@@@std@@@std@@@std@@@1@$$QA_N@Z 10000000     Glumer.obj
 0003:fff61000       __ehfuncinfo$??$forward_as_tuple@$$V@std@@YA?AV?$tuple@$$V@0@XZ 10000000     Glumer.obj
 0002:fffce000       __ehhandler$?_Myend@?$_Vector_alloc@U?$_Vec_base_types@V?$basic_string@DU?$char_traits@D@std@@V?$allocator@D@2@@std@@V?$allocator@V?$basic_string@DU?$char_traits@D@std@@V?$allocator@D@2@@std@@@2@@std@@@std@@QBEABQAV?$basic_string@DU?$char_traits@D@std@@V?$allocator@D@2@@2@XZ 10000000 f   Glumer.obj
 0002:fffce000       __ehhandler$?_Get_first@?$_Compressed_pair@V?$allocator@V?$basic_string@DU?$char_traits@D@std@@V?$allocator@D@2@@std@@@std@@V?$_Vector_val@U?$_Simple_types@V?$basic_string@DU?$char_traits@D@std@@V?$allocator@D@2@@std@@@std@@@2@$00@std@@QAEAAV?$allocator@V?$basic_string@DU?$char_traits@D@std@@V?$allocator@D@2@@std@@@2@XZ 10000000 f   Glumer.obj
 0003:fff61000       __ehfuncinfo$??$forward@AAPAU?$_Tree_node@U?$pair@$$CBIUPTR@cGlumShapeBase@Glumer@@@std@@PAX@std@@@std@@YAAAPAU?$_Tree_node@U?$pair@$$CBIUPTR@cGlumShapeBase@Glumer@@@std@@PAX@0@AAPAU10@@Z 10000000     Glumer.obj
 0003:fff61000       __ehfuncinfo$??$move@AAD@std@@YA$$QADAAD@Z 10000000     Glumer.obj
 0003:fff61000       __ehfuncinfo$??$?0U?$integral_constant@_N$00@std@@@_Unused_parameter@std@@QAE@$$QAU?$integral_constant@_N$00@1@@Z 10000000     Glumer.obj
 0003:fff61000       __ehfuncinfo$??$_Pocca@V?$allocator@D@std@@@std@@YAXAAV?$allocator@D@0@ABV10@U?$integral_constant@_N$0A@@0@@Z 10000000     Glumer.obj
 0003:fff61000       __ehfuncinfo$??$forward@U_Container_proxy@std@@@std@@YA$$QAU_Container_proxy@0@AAU10@@Z 10000000     Glumer.obj
 0002:fffce000       __ehhandler$?_Clrcont@_Iterator_base12@std@@QAEXXZ 10000000 f   cGlumShape_Console.obj
 0003:fff61000       __ehfuncinfo$??$forward@ABQAD@std@@YAABQADABQAD@Z 10000000     Glumer.obj
 0002:fffce000       __ehhandler$?_Getcont@_Iterator_base12@std@@QBEPBU_Container_base12@2@XZ 10000000 f   cGlumShape_Console.obj
 0002:fffce000       __ehhandler$?_Getpnext@_Iterator_base12@std@@QAEPAPAU12@XZ 10000000 f   cGlumShape_Console.obj
 0003:fff61000       __ehfuncinfo$??$forward@V?$allocator@D@std@@@std@@YA$$QAV?$allocator@D@0@AAV10@@Z 10000000     Glumer.obj
 0003:fff61000       __unwindtable$??$_Try_emplace@ABI$$V@?$map@IUPTR@cGlumShapeBase@Glumer@@U?$less@I@std@@V?$allocator@U?$pair@$$CBIUPTR@cGlumShapeBase@Glumer@@@std@@@5@@std@@QAE?AU?$pair@V?$_Tree_iterator@V?$_Tree_val@U?$_Tree_simple_types@U?$pair@$$CBIUPTR@cGlumShapeBase@Glumer@@@std@@@std@@@std@@@std@@_N@1@ABI@Z 10000000     Glumer.obj
 0002:fffce000       __ehhandler$??0_Iterator_base12@std@@QAE@ABU01@@Z 10000000 f   cSelectableBase.obj
 0002:fffce000       __ehhandler$?_Orphan_me@_Iterator_base12@std@@QAEXXZ 10000000 f   cGlumShape_Console.obj
 0002:fffce000       __ehhandler$??0?$tuple@$$V@std@@QAE@XZ 10000000 f   cGlumShape_Console.obj
 0002:fffce000       __ehhandler$??0?$tuple@$$V@std@@QAE@ABV01@@Z 10000000 f   cGlumShape_Console.obj
 0002:fffce000       __ehhandler$?_Get_first@?$_Compressed_pair@V?$allocator@V?$basic_string@DU?$char_traits@D@std@@V?$allocator@D@2@@std@@@std@@V?$_Vector_val@U?$_Simple_types@V?$basic_string@DU?$char_traits@D@std@@V?$allocator@D@2@@std@@@std@@@2@$00@std@@QBEABV?$allocator@V?$basic_string@DU?$char_traits@D@std@@V?$allocator@D@2@@std@@@2@XZ 10000000 f   Glumer.obj
 0002:fffce000       __ehhandler$?_Get_second@?$_Compressed_pair@V?$allocator@V?$basic_string@DU?$char_traits@D@std@@V?$allocator@D@2@@std@@@std@@V?$_Vector_val@U?$_Simple_types@V?$basic_string@DU?$char_traits@D@std@@V?$allocator@D@2@@std@@@std@@@2@$00@std@@QAEAAV?$_Vector_val@U?$_Simple_types@V?$basic_string@DU?$char_traits@D@std@@V?$allocator@D@2@@std@@@std@@@2@XZ 10000000 f   Glumer.obj
 0002:fffce000       __ehhandler$?_Get_second@?$_Compressed_pair@V?$allocator@V?$basic_string@DU?$char_traits@D@std@@V?$allocator@D@2@@std@@@std@@V?$_Vector_val@U?$_Simple_types@V?$basic_string@DU?$char_traits@D@std@@V?$allocator@D@2@@std@@@std@@@2@$00@std@@QBEABV?$_Vector_val@U?$_Simple_types@V?$basic_string@DU?$char_traits@D@std@@V?$allocator@D@2@@std@@@std@@@2@XZ 10000000 f   Glumer.obj
 0002:fffce000       __ehhandler$??$_Min_value@I@std@@YAABIABI0@Z 10000000 f   cGlumShape_RegularPolyhedron.obj
 0003:fff61000       __ehfuncinfo$??2@YAPAXIPAX@Z 10000000     cGlumShape_RegularPolyhedron.obj
 0003:fff61000       __ehfuncinfo$?max@?$numeric_limits@H@std@@SAHXZ 10000000     cGlumShape_RegularPolyhedron.obj
 0003:fff61000       __ehfuncinfo$?_Getpfirst@_Container_base12@std@@QBEPAPAU_Iterator_base12@2@XZ 10000000     cGlumShape_RegularPolyhedron.obj
 0003:fff61000       __ehfuncinfo$?_Orphan_all@_Container_base12@std@@QAEXXZ 10000000     cGlumShape_RegularPolyhedron.obj
 0002:fffce000       __ehhandler$??0?$vector@V?$basic_string@DU?$char_traits@D@std@@V?$allocator@D@2@@std@@V?$allocator@V?$basic_string@DU?$char_traits@D@std@@V?$allocator@D@2@@std@@@2@@std@@QAE@XZ 10000000 f   Glumer.obj
 0003:fff61000       __ehfuncinfo$??0_Iterator_base12@std@@QAE@XZ 10000000     cGlumShape_RegularPolyhedron.obj
 0003:fff61000       __ehfuncinfo$??$addressof@PAU?$_Tree_node@U?$pair@$$CBIUPTR@cGlumShapeBase@Glumer@@@std@@PAX@std@@@std@@YAPAPAU?$_Tree_node@U?$pair@$$CBIUPTR@cGlumShapeBase@Glumer@@@std@@PAX@0@AAPAU10@@Z 10000000     Glumer.obj
 0003:fff61000       __ehfuncinfo$??$swap@DX@std@@YAXAAD0@Z 10000000     Glumer.obj
 0003:fff61000       __ehfuncinfo$??$_Pocca@V?$allocator@D@std@@@std@@YAXAAV?$allocator@D@0@ABV10@@Z 10000000     Glumer.obj
 0003:fff61000       __ehfuncinfo$??$?0D@?$allocator@U_Container_proxy@std@@@std@@QAE@ABV?$allocator@D@1@@Z 10000000     Glumer.obj
 0003:fff61000       __ehfuncinfo$??$?0V?$basic_string@DU?$char_traits@D@std@@V?$allocator@D@2@@std@@@?$allocator@U_Container_proxy@std@@@std@@QAE@ABV?$allocator@V?$basic_string@DU?$char_traits@D@std@@V?$allocator@D@2@@std@@@1@@Z 10000000     Glumer.obj
 0003:fff61000       __ehfuncinfo$??$?0U?$_Tree_node@U?$pair@$$CBIUPTR@cGlumShapeBase@Glumer@@@std@@PAX@std@@@?$allocator@U_Container_proxy@std@@@std@@QAE@ABV?$allocator@U?$_Tree_node@U?$pair@$$CBIUPTR@cGlumShapeBase@Glumer@@@std@@PAX@std@@@1@@Z 10000000     Glumer.obj
 0003:fff61000       __ehfuncinfo$??$_Freenode0@V?$allocator@U?$_Tree_node@U?$pair@$$CBIUPTR@cGlumShapeBase@Glumer@@@std@@PAX@std@@@std@@@?$_Tree_node@U?$pair@$$CBIUPTR@cGlumShapeBase@Glumer@@@std@@PAX@std@@SAXAAV?$allocator@U?$_Tree_node@U?$pair@$$CBIUPTR@cGlumShapeBase@Glumer@@@std@@PAX@std@@@1@PAU01@@Z 10000000     Glumer.obj
 0003:fff61000       __ehfuncinfo$??$?0I@?$allocator@U_Container_proxy@std@@@std@@QAE@ABV?$allocator@I@1@@Z 10000000     Glumer.obj
 0003:fff61000       __ehfuncinfo$??$?0UPTR@cObjectMoveableBase@Glumer@@@?$allocator@U_Container_proxy@std@@@std@@QAE@ABV?$allocator@UPTR@cObjectMoveableBase@Glumer@@@1@@Z 10000000     Glumer.obj
 0003:fff61000       __ehfuncinfo$??$?0PAVcObjectBase@Glumer@@@?$allocator@U_Container_proxy@std@@@std@@QAE@ABV?$allocator@PAVcObjectBase@Glumer@@@1@@Z 10000000     Glumer.obj
 0003:fff61000       __ehfuncinfo$??$addressof@U?$pair@$$CBIUPTR@cGlumShapeBase@Glumer@@@std@@@std@@YAPAU?$pair@$$CBIUPTR@cGlumShapeBase@Glumer@@@0@AAU10@@Z 10000000     Glumer.obj
 0002:fffce000       __ehhandler$??1?$vector@V?$basic_string@DU?$char_traits@D@std@@V?$allocator@D@2@@std@@V?$allocator@V?$basic_string@DU?$char_traits@D@std@@V?$allocator@D@2@@std@@@2@@std@@QAE@XZ 10000000 f   Glumer.obj
 0002:fffce000       __ehhandler$?begin@?$vector@V?$basic_string@DU?$char_traits@D@std@@V?$allocator@D@2@@std@@V?$allocator@V?$basic_string@DU?$char_traits@D@std@@V?$allocator@D@2@@std@@@2@@std@@QAE?AV?$_Vector_iterator@V?$_Vector_val@U?$_Simple_types@V?$basic_string@DU?$char_traits@D@std@@V?$allocator@D@2@@std@@@std@@@std@@@2@XZ 10000000 f   Glumer.obj
 0003:fff61000       __ehfuncinfo$??$addressof@$$CBV?$basic_string@DU?$char_traits@D@std@@V?$allocator@D@2@@std@@@std@@YAPBV?$basic_string@DU?$char_traits@D@std@@V?$allocator@D@2@@0@ABV10@@Z 10000000     Glumer.obj
 0003:fff61000       __ehfuncinfo$??$_Max_value@I@std@@YAABIABI0@Z 10000000     Glumer.obj
 0003:fff61000       __ehfuncinfo$??$addressof@PAD@std@@YAPAPADAAPAD@Z 10000000     Glumer.obj
 0003:fff61000       __catchsym$??$_Emplace_reallocate@ABUPTR@cGlumShape_Console@Glumer@@@?$vector@UPTR@cGlumShape_Console@Glumer@@V?$allocator@UPTR@cGlumShape_Console@Glumer@@@std@@@std@@QAEPAUPTR@cGlumShape_Console@Glumer@@QAU234@ABU234@@Z$2 10000000     Glumer.obj
 0002:fffce000       __ehhandler$??0_Iterator_base12@std@@QAE@XZ 10000000 f   cSelectableBase.obj
 0003:fff61000       __ehfuncinfo$?_Clrcont@_Iterator_base12@std@@QAEXXZ 10000000     cPolyLetter.obj
 0002:fffce000       __ehhandler$??$addressof@V?$_Vector_val@U?$_Simple_types@UPTR@cMovementBase@Glumer@@@std@@@std@@@std@@YAPAV?$_Vector_val@U?$_Simple_types@UPTR@cMovementBase@Glumer@@@std@@@0@AAV10@@Z 10000000 f   cGluperCenter.obj
 0003:fff61000       __ehfuncinfo$??$forward@ABUPTR@cGlumShape_Console@Glumer@@@std@@YAABUPTR@cGlumShape_Console@Glumer@@ABU123@@Z 10000000     Glumer.obj
 0003:fff61000       __ehfuncinfo$??$addressof@V?$_Vector_val@U?$_Simple_types@UPTR@cGlumShape_Console@Glumer@@@std@@@std@@@std@@YAPAV?$_Vector_val@U?$_Simple_types@UPTR@cGlumShape_Console@Glumer@@@std@@@0@AAV10@@Z 10000000     Glumer.obj
 0003:fff61000       __catchsym$??$_Emplace_reallocate@ABUPTR@cGlumShape_RegularPolyhedron@Glumer@@@?$vector@UPTR@cGlumShape_RegularPolyhedron@Glumer@@V?$allocator@UPTR@cGlumShape_RegularPolyhedron@Glumer@@@std@@@std@@QAEPAUPTR@cGlumShape_RegularPolyhedron@Glumer@@QAU234@ABU234@@Z$2 10000000     Glumer.obj
 0002:fffce000       __ehhandler$?_Myfirst@?$_Vector_alloc@U?$_Vec_base_types@PAVcObjectBase@Glumer@@V?$allocator@PAVcObjectBase@Glumer@@@std@@@std@@@std@@QAEAAPAPAVcObjectBase@Glumer@@XZ 10000000 f   cSelectableBase.obj
 0002:fffce000       __ehhandler$?_Mylast@?$_Vector_alloc@U?$_Vec_base_types@PAVcObjectBase@Glumer@@V?$allocator@PAVcObjectBase@Glumer@@@std@@@std@@@std@@QAEAAPAPAVcObjectBase@Glumer@@XZ 10000000 f   cSelectableBase.obj
 0002:fffce000       __ehhandler$?_Get_second@?$_Compressed_pair@V?$allocator@PAVcObjectBase@Glumer@@@std@@V?$_Vector_val@U?$_Simple_types@PAVcObjectBase@Glumer@@@std@@@2@$00@std@@QAEAAV?$_Vector_val@U?$_Simple_types@PAVcObjectBase@Glumer@@@std@@@2@XZ 10000000 f   cSelectableBase.obj
 0003:fff61000       __ehfuncinfo$??$forward@ABUPTR@cGlumShape_RegularPolyhedron@Glumer@@@std@@YAABUPTR@cGlumShape_RegularPolyhedron@Glumer@@ABU123@@Z 10000000     Glumer.obj
 0003:fff61000       __ehfuncinfo$??$addressof@V?$_Vector_val@U?$_Simple_types@UPTR@cGlumShape_RegularPolyhedron@Glumer@@@std@@@std@@@std@@YAPAV?$_Vector_val@U?$_Simple_types@UPTR@cGlumShape_RegularPolyhedron@Glumer@@@std@@@0@AAV10@@Z 10000000     Glumer.obj
 0003:fff61000       __ehfuncinfo$??$move@AAV?$basic_string@DU?$char_traits@D@std@@V?$allocator@D@2@@std@@@std@@YA$$QAV?$basic_string@DU?$char_traits@D@std@@V?$allocator@D@2@@0@AAV10@@Z 10000000     Glumer.obj
 0003:fff61000       __unwindtable$??$?0V?$allocator@D@std@@X@?$_String_alloc@U?$_String_base_types@DV?$allocator@D@std@@@std@@@std@@QAE@$$QAV?$allocator@D@1@@Z 10000000     Glumer.obj
 0003:fff61000       __ehfuncinfo$?_Getpfirst@_Container_base12@std@@QBEPAPAU_Iterator_base12@2@XZ 10000000     cPolyLetter.obj
 0003:fff61000       __ehfuncinfo$??$move@AAV?$allocator@D@std@@@std@@YA$$QAV?$allocator@D@0@AAV10@@Z 10000000     Glumer.obj
 0003:fff61000       __ehfuncinfo$??$addressof@V?$_String_val@U?$_Simple_types@D@std@@@std@@@std@@YAPAV?$_String_val@U?$_Simple_types@D@std@@@0@AAV10@@Z 10000000     Glumer.obj
 0003:fff61000       __ehfuncinfo$??$_Min_value@I@std@@YAABIABI0@Z 10000000     Glumer.obj
 0002:fffce000       __ehhandler$?end@?$vector@V?$basic_string@DU?$char_traits@D@std@@V?$allocator@D@2@@std@@V?$allocator@V?$basic_string@DU?$char_traits@D@std@@V?$allocator@D@2@@std@@@2@@std@@QAE?AV?$_Vector_iterator@V?$_Vector_val@U?$_Simple_types@V?$basic_string@DU?$char_traits@D@std@@V?$allocator@D@2@@std@@@std@@@std@@@2@XZ 10000000 f   Glumer.obj
 0003:fff61000       __ehfuncinfo$??$addressof@V?$_Vector_val@U?$_Simple_types@PAVcObjectBase@Glumer@@@std@@@std@@@std@@YAPAV?$_Vector_val@U?$_Simple_types@PAVcObjectBase@Glumer@@@std@@@0@AAV10@@Z 10000000     Glumer.obj
 0003:fff61000       __ehfuncinfo$??$forward@ABI@std@@YAABIABI@Z 10000000     Glumer.obj
 0003:fff61000       __ehfuncinfo$??$addressof@V?$_Vector_val@U?$_Simple_types@I@std@@@std@@@std@@YAPAV?$_Vector_val@U?$_Simple_types@I@std@@@0@AAV10@@Z 10000000     Glumer.obj
 0003:fff61000       __ehfuncinfo$??0_Iterator_base12@std@@QAE@ABU01@@Z 10000000     cGlumShape_RegularPolyhedron.obj
 0003:fff61000       __ehfuncinfo$??4_Iterator_base12@std@@QAEAAU01@ABU01@@Z 10000000     cGlumShape_RegularPolyhedron.obj
 0003:fff61000       __ehfuncinfo$??$forward@U_Container_proxy@std@@@std@@YA$$QAU_Container_proxy@0@AAU10@@Z 10000000     cPolyLetter.obj
 0003:fff61000       __ehfuncinfo$??1_Iterator_base12@std@@QAE@XZ 10000000     cGlumShape_RegularPolyhedron.obj
 0002:fffce000       __ehhandler$?_Getal@?$_Tree_comp_alloc@V?$_Tmap_traits@DIU?$less@D@std@@V?$allocator@U?$pair@$$CBDI@std@@@2@$0A@@std@@@std@@QAEAAV?$allocator@U?$_Tree_node@U?$pair@$$CBDI@std@@PAX@std@@@2@XZ 10000000 f   cGlumShape_Console.obj
 0003:fff61000       __ehfuncinfo$??$move@AAD@std@@YA$$QADAAD@Z 10000000     cPolyLetter.obj
 0002:fffce000       __ehhandler$?_Get_data@?$_Tree_comp_alloc@V?$_Tmap_traits@DIU?$less@D@std@@V?$allocator@U?$pair@$$CBDI@std@@@2@$0A@@std@@@std@@QAEAAV?$_Tree_val@U?$_Tree_simple_types@U?$pair@$$CBDI@std@@@std@@@2@XZ 10000000 f   cGlumShape_Console.obj
 0002:fffce000       __ehhandler$?_Get_data@?$_Tree_comp_alloc@V?$_Tmap_traits@DIU?$less@D@std@@V?$allocator@U?$pair@$$CBDI@std@@@2@$0A@@std@@@std@@QBEABV?$_Tree_val@U?$_Tree_simple_types@U?$pair@$$CBDI@std@@@std@@@2@XZ 10000000 f   cGlumShape_Console.obj
 0002:fffce000       __ehhandler$?_Get_first@?$_Compressed_pair@V?$allocator@U?$_Tree_node@U?$pair@$$CBDI@std@@PAX@std@@@std@@V?$_Tree_val@U?$_Tree_simple_types@U?$pair@$$CBDI@std@@@std@@@2@$00@std@@QAEAAV?$allocator@U?$_Tree_node@U?$pair@$$CBDI@std@@PAX@std@@@2@XZ 10000000 f   cGlumShape_Console.obj
 0003:fff61000       __ehfuncinfo$??$addressof@V?$_Vector_val@U?$_Simple_types@V?$basic_string@DU?$char_traits@D@std@@V?$allocator@D@2@@std@@@std@@@std@@@std@@YAPAV?$_Vector_val@U?$_Simple_types@V?$basic_string@DU?$char_traits@D@std@@V?$allocator@D@2@@std@@@std@@@0@AAV10@@Z 10000000     Glumer.obj
 0003:fff61000       __ehfuncinfo$??$move@AAI@std@@YA$$QAIAAI@Z 10000000     Glumer.obj
 0003:fff61000       __ehfuncinfo$??$addressof@V?$_Vector_val@U?$_Simple_types@UPTR@cObjectMoveableBase@Glumer@@@std@@@std@@@std@@YAPAV?$_Vector_val@U?$_Simple_types@UPTR@cObjectMoveableBase@Glumer@@@std@@@0@AAV10@@Z 10000000     Glumer.obj
 0003:fff61000       __ehfuncinfo$??$addressof@V?$_Tree_val@U?$_Tree_simple_types@U?$pair@$$CBIUPTR@cGlumShapeBase@Glumer@@@std@@@std@@@std@@@std@@YAPAV?$_Tree_val@U?$_Tree_simple_types@U?$pair@$$CBIUPTR@cGlumShapeBase@Glumer@@@std@@@std@@@0@AAV10@@Z 10000000     Glumer.obj
 0002:fffce000       __ehhandler$?size@?$vector@V?$basic_string@DU?$char_traits@D@std@@V?$allocator@D@2@@std@@V?$allocator@V?$basic_string@DU?$char_traits@D@std@@V?$allocator@D@2@@std@@@2@@std@@QBEIXZ 10000000 f   Glumer.obj
 0003:fff61000       __ehfuncinfo$??$forward@U_Zero_then_variadic_args_t@std@@@std@@YA$$QAU_Zero_then_variadic_args_t@0@AAU10@@Z 10000000     cPolyLetter.obj
 0002:fffce000       __ehhandler$?max_size@?$vector@V?$basic_string@DU?$char_traits@D@std@@V?$allocator@D@2@@std@@V?$allocator@V?$basic_string@DU?$char_traits@D@std@@V?$allocator@D@2@@std@@@2@@std@@QBEIXZ 10000000 f   Glumer.obj
 0002:fffce000       __ehhandler$?capacity@?$vector@V?$basic_string@DU?$char_traits@D@std@@V?$allocator@D@2@@std@@V?$allocator@V?$basic_string@DU?$char_traits@D@std@@V?$allocator@D@2@@std@@@2@@std@@QBEIXZ 10000000 f   Glumer.obj
 0003:fff61000       __ehfuncinfo$??0_Iterator_base12@std@@QAE@XZ 10000000     cGluperCenter.obj
 0002:fffce000       __unwindfunclet$??$assign@V?$_Vector_iterator@V?$_Vector_val@U?$_Simple_types@V?$basic_string@DU?$char_traits@D@std@@V?$allocator@D@2@@std@@@std@@@std@@@std@@X@?$vector@V?$basic_string@DU?$char_traits@D@std@@V?$allocator@D@2@@std@@V?$allocator@V?$basic_string@DU?$char_traits@D@std@@V?$allocator@D@2@@std@@@2@@std@@QAEXV?$_Vector_iterator@V?$_Vector_val@U?$_Simple_types@V?$basic_string@DU?$char_traits@D@std@@V?$allocator@D@2@@std@@@std@@@std@@@1@0@Z$0 10000000 f   Glumer.obj
 0003:fff61000       __ehfuncinfo$??1_Iterator_base12@std@@QAE@XZ 10000000     cGluperCenter.obj
 0002:fffce000       __ehhandler$??1_Iterator_base12@std@@QAE@XZ 10000000 f   cGluperCenter.obj
 0002:fffce000       __ehhandler$?_Get_second@?$_Compressed_pair@V?$allocator@U?$_Tree_node@U?$pair@$$CBDI@std@@PAX@std@@@std@@V?$_Tree_val@U?$_Tree_simple_types@U?$pair@$$CBDI@std@@@std@@@2@$00@std@@QAEAAV?$_Tree_val@U?$_Tree_simple_types@U?$pair@$$CBDI@std@@@std@@@2@XZ 10000000 f   cGlumShape_Console.obj
 0002:fffce000       __ehhandler$?_Get_second@?$_Compressed_pair@V?$allocator@U?$_Tree_node@U?$pair@$$CBDI@std@@PAX@std@@@std@@V?$_Tree_val@U?$_Tree_simple_types@U?$pair@$$CBDI@std@@@std@@@2@$00@std@@QBEABV?$_Tree_val@U?$_Tree_simple_types@U?$pair@$$CBDI@std@@@std@@@2@XZ 10000000 f   cGlumShape_Console.obj
 0002:fffce000       __ehhandler$?max_size@?$_Default_allocator_traits@V?$allocator@U?$_Tree_node@U?$pair@$$CBIUPTR@cGlumShapeBase@Glumer@@@std@@PAX@std@@@std@@@std@@SAIABV?$allocator@U?$_Tree_node@U?$pair@$$CBIUPTR@cGlumShapeBase@Glumer@@@std@@PAX@std@@@2@@Z 10000000 f   Glumer.obj
 0002:fffce000       __ehhandler$??1?$_Tree_comp_alloc@V?$_Tmap_traits@IUPTR@cGlumShapeBase@Glumer@@U?$less@I@std@@V?$allocator@U?$pair@$$CBIUPTR@cGlumShapeBase@Glumer@@@std@@@5@$0A@@std@@@std@@QAE@XZ 10000000 f   Glumer.obj
 0002:fffce000       __ehhandler$??0_Iterator_base12@std@@QAE@XZ 10000000 f   cGluperCenter.obj
 0003:fff61000       __ehfuncinfo$??0_Container_proxy@std@@QAE@XZ 10000000     cPolyLetter.obj
 0003:fff61000       __ehfuncinfo$?_Adopt@_Iterator_base12@std@@QAEXPBU_Container_base12@2@@Z 10000000     cGlumShape_RegularPolyhedron.obj
 0003:fff61000       __ehfuncinfo$??2@YAPAXIPAX@Z 10000000     cPolyLetter.obj
 0003:fff61000       __ehfuncinfo$?_Clrcont@_Iterator_base12@std@@QAEXXZ 10000000     cGlumShape_RegularPolyhedron.obj
 0002:fffce000       __ehhandler$?_Get_second@?$_Compressed_pair@U?$less@D@std@@V?$_Compressed_pair@V?$allocator@U?$_Tree_node@U?$pair@$$CBDI@std@@PAX@std@@@std@@V?$_Tree_val@U?$_Tree_simple_types@U?$pair@$$CBDI@std@@@std@@@2@$00@2@$00@std@@QAEAAV?$_Compressed_pair@V?$allocator@U?$_Tree_node@U?$pair@$$CBDI@std@@PAX@std@@@std@@V?$_Tree_val@U?$_Tree_simple_types@U?$pair@$$CBDI@std@@@std@@@2@$00@2@XZ 10000000 f   cGlumShape_Console.obj
 0002:fffce000       __ehhandler$?_Get_second@?$_Compressed_pair@U?$less@D@std@@V?$_Compressed_pair@V?$allocator@U?$_Tree_node@U?$pair@$$CBDI@std@@PAX@std@@@std@@V?$_Tree_val@U?$_Tree_simple_types@U?$pair@$$CBDI@std@@@std@@@2@$00@2@$00@std@@QBEABV?$_Compressed_pair@V?$allocator@U?$_Tree_node@U?$pair@$$CBDI@std@@PAX@std@@@std@@V?$_Tree_val@U?$_Tree_simple_types@U?$pair@$$CBDI@std@@@std@@@2@$00@2@XZ 10000000 f   cGlumShape_Console.obj
 0002:fffce000       __ehhandler$?begin@?$_Tree@V?$_Tmap_traits@DIU?$less@D@std@@V?$allocator@U?$pair@$$CBDI@std@@@2@$0A@@std@@@std@@QAE?AV?$_Tree_iterator@V?$_Tree_val@U?$_Tree_simple_types@U?$pair@$$CBDI@std@@@std@@@std@@@2@XZ 10000000 f   cGlumShape_Console.obj
 0002:fffce000       __ehhandler$?end@?$_Tree@V?$_Tmap_traits@DIU?$less@D@std@@V?$allocator@U?$pair@$$CBDI@std@@@2@$0A@@std@@@std@@QAE?AV?$_Tree_iterator@V?$_Tree_val@U?$_Tree_simple_types@U?$pair@$$CBDI@std@@@std@@@std@@@2@XZ 10000000 f   cGlumShape_Console.obj
 0003:fff61000       __ehfuncinfo$??$swap@DX@std@@YAXAAD0@Z 10000000     cPolyLetter.obj
 0003:fff61000       __ehfuncinfo$?_Getcont@_Iterator_base12@std@@QBEPBU_Container_base12@2@XZ 10000000     cGlumShape_RegularPolyhedron.obj
 0003:fff61000       __ehfuncinfo$?_Getpnext@_Iterator_base12@std@@QAEPAPAU12@XZ 10000000     cGlumShape_RegularPolyhedron.obj
 0003:fff61000       __ehfuncinfo$?_Orphan_me@_Iterator_base12@std@@QAEXXZ 10000000     cGlumShape_RegularPolyhedron.obj
 0003:fff61000       __ehfuncinfo$?max_size@?$_Default_allocator_traits@V?$allocator@UPTR@cMovementBase@Glumer@@@std@@@std@@SAIABV?$allocator@UPTR@cMovementBase@Glumer@@@2@@Z 10000000     cGlumShape_RegularPolyhedron.obj
 0002:fffce000       __ehhandler$??1cObjectBase@Glumer@@UAE@XZ 10000000 f   cGlumShape_Console.obj
 0002:fffce000       __ehhandler$??1cMovementBase@Glumer@@UAE@XZ 10000000 f   cGlumShape_Console.obj
 0002:fffce000       __ehhandler$?max_size@?$_Default_allocator_traits@V?$allocator@UPTR@cMovementBase@Glumer@@@std@@@std@@SAIABV?$allocator@UPTR@cMovementBase@Glumer@@@2@@Z 10000000 f   cGlumShape_Console.obj
 0002:fffce000       __ehhandler$??1?$_Vector_alloc@U?$_Vec_base_types@UPTR@cMovementBase@Glumer@@V?$allocator@UPTR@cMovementBase@Glumer@@@std@@@std@@@std@@QAE@XZ 10000000 f   cGlumShape_Console.obj
 0003:fff61000       __ehfuncinfo$?_Adopt@_Iterator_base12@std@@QAEXPBU_Container_base12@2@@Z 10000000     cGluperCenter.obj
 0003:fff61000       __ehfuncinfo$?_Getcont@_Iterator_base12@std@@QBEPBU_Container_base12@2@XZ 10000000     cGluperCenter.obj
 0002:fffce000       __ehhandler$??$forward@U_Container_proxy@std@@@std@@YA$$QAU_Container_proxy@0@AAU10@@Z 10000000 f   cPolyLetter.obj
 0002:fffce000       __ehhandler$?_Myproxy@?$_Vector_alloc@U?$_Vec_base_types@UPTR@cMovementBase@Glumer@@V?$allocator@UPTR@cMovementBase@Glumer@@@std@@@std@@@std@@QAEAAPAU_Container_proxy@2@XZ 10000000 f   cGlumShape_Console.obj
 0002:fffce000       __ehhandler$?_Getal@?$_Vector_alloc@U?$_Vec_base_types@UPTR@cMovementBase@Glumer@@V?$allocator@UPTR@cMovementBase@Glumer@@@std@@@std@@@std@@QAEAAV?$allocator@UPTR@cMovementBase@Glumer@@@2@XZ 10000000 f   cGlumShape_Console.obj
 0002:fffce000       __ehhandler$?_Getal@?$_Vector_alloc@U?$_Vec_base_types@UPTR@cMovementBase@Glumer@@V?$allocator@UPTR@cMovementBase@Glumer@@@std@@@std@@@std@@QBEABV?$allocator@UPTR@cMovementBase@Glumer@@@2@XZ 10000000 f   cGlumShape_Console.obj
 0002:fffce000       __ehhandler$?_Get_data@?$_Vector_alloc@U?$_Vec_base_types@UPTR@cMovementBase@Glumer@@V?$allocator@UPTR@cMovementBase@Glumer@@@std@@@std@@@std@@QAEAAV?$_Vector_val@U?$_Simple_types@UPTR@cMovementBase@Glumer@@@std@@@2@XZ 10000000 f   cGlumShape_Console.obj
 0002:fffce000       __ehhandler$?_Get_data@?$_Vector_alloc@U?$_Vec_base_types@UPTR@cMovementBase@Glumer@@V?$allocator@UPTR@cMovementBase@Glumer@@@std@@@std@@@std@@QBEABV?$_Vector_val@U?$_Simple_types@UPTR@cMovementBase@Glumer@@@std@@@2@XZ 10000000 f   cGlumShape_Console.obj
 0002:fffce000       __ehhandler$?_Myproxy@?$_Tree_comp_alloc@V?$_Tmap_traits@IUPTR@cGlumShapeBase@Glumer@@U?$less@I@std@@V?$allocator@U?$pair@$$CBIUPTR@cGlumShapeBase@Glumer@@@std@@@5@$0A@@std@@@std@@QAEAAPAU_Container_proxy@2@XZ 10000000 f   Glumer.obj
 0002:fffce000       __ehhandler$?_Buynode0@?$_Tree_comp_alloc@V?$_Tmap_traits@IUPTR@cGlumShapeBase@Glumer@@U?$less@I@std@@V?$allocator@U?$pair@$$CBIUPTR@cGlumShapeBase@Glumer@@@std@@@5@$0A@@std@@@std@@QAEPAU?$_Tree_node@U?$pair@$$CBIUPTR@cGlumShapeBase@Glumer@@@std@@PAX@2@XZ 10000000 f   Glumer.obj
 0002:fffce000       __ehhandler$?_Getcomp@?$_Tree_comp_alloc@V?$_Tmap_traits@IUPTR@cGlumShapeBase@Glumer@@U?$less@I@std@@V?$allocator@U?$pair@$$CBIUPTR@cGlumShapeBase@Glumer@@@std@@@5@$0A@@std@@@std@@QAEAAU?$less@I@2@XZ 10000000 f   Glumer.obj
 0002:fffce000       __ehhandler$?_Make_iterator@?$_Vector_alloc@U?$_Vec_base_types@UPTR@cMovementBase@Glumer@@V?$allocator@UPTR@cMovementBase@Glumer@@@std@@@std@@@std@@QAE?AV?$_Vector_iterator@V?$_Vector_val@U?$_Simple_types@UPTR@cMovementBase@Glumer@@@std@@@std@@@2@QAUPTR@cMovementBase@Glumer@@@Z 10000000 f   cGlumShape_Console.obj
 0002:fffce000       __ehhandler$?_Myfirst@?$_Vector_alloc@U?$_Vec_base_types@UPTR@cMovementBase@Glumer@@V?$allocator@UPTR@cMovementBase@Glumer@@@std@@@std@@@std@@QAEAAPAUPTR@cMovementBase@Glumer@@XZ 10000000 f   cGlumShape_Console.obj
 0002:fffce000       __ehhandler$?_Myfirst@?$_Vector_alloc@U?$_Vec_base_types@UPTR@cMovementBase@Glumer@@V?$allocator@UPTR@cMovementBase@Glumer@@@std@@@std@@@std@@QBEABQAUPTR@cMovementBase@Glumer@@XZ 10000000 f   cGlumShape_Console.obj
 0002:fffce000       __ehhandler$?_Mylast@?$_Vector_alloc@U?$_Vec_base_types@UPTR@cMovementBase@Glumer@@V?$allocator@UPTR@cMovementBase@Glumer@@@std@@@std@@@std@@QAEAAPAUPTR@cMovementBase@Glumer@@XZ 10000000 f   cGlumShape_Console.obj
 0002:fffce000       __ehhandler$?_Mylast@?$_Vector_alloc@U?$_Vec_base_types@UPTR@cMovementBase@Glumer@@V?$allocator@UPTR@cMovementBase@Glumer@@@std@@@std@@@std@@QBEABQAUPTR@cMovementBase@Glumer@@XZ 10000000 f   cGlumShape_Console.obj
 0002:fffce000       __ehhandler$?_Myend@?$_Vector_alloc@U?$_Vec_base_types@UPTR@cMovementBase@Glumer@@V?$allocator@UPTR@cMovementBase@Glumer@@@std@@@std@@@std@@QAEAAPAUPTR@cMovementBase@Glumer@@XZ 10000000 f   cGlumShape_Console.obj
 0002:fffce000       __ehhandler$?_Myend@?$_Vector_alloc@U?$_Vec_base_types@UPTR@cMovementBase@Glumer@@V?$allocator@UPTR@cMovementBase@Glumer@@@std@@@std@@@std@@QBEABQAUPTR@cMovementBase@Glumer@@XZ 10000000 f   cGlumShape_Console.obj
 0002:fffce000       __ehhandler$?_Get_first@?$_Compressed_pair@V?$allocator@UPTR@cMovementBase@Glumer@@@std@@V?$_Vector_val@U?$_Simple_types@UPTR@cMovementBase@Glumer@@@std@@@2@$00@std@@QAEAAV?$allocator@UPTR@cMovementBase@Glumer@@@2@XZ 10000000 f   cGlumShape_Console.obj
 0002:fffce000       __ehhandler$?_Get_first@?$_Compressed_pair@V?$allocator@UPTR@cMovementBase@Glumer@@@std@@V?$_Vector_val@U?$_Simple_types@UPTR@cMovementBase@Glumer@@@std@@@2@$00@std@@QBEABV?$allocator@UPTR@cMovementBase@Glumer@@@2@XZ 10000000 f   cGlumShape_Console.obj
 0002:fffce000       __ehhandler$?_Getcomp@?$_Tree_comp_alloc@V?$_Tmap_traits@IUPTR@cGlumShapeBase@Glumer@@U?$less@I@std@@V?$allocator@U?$pair@$$CBIUPTR@cGlumShapeBase@Glumer@@@std@@@5@$0A@@std@@@std@@QBEABU?$less@I@2@XZ 10000000 f   Glumer.obj
 0002:fffce000       __ehhandler$?_Getal@?$_Tree_comp_alloc@V?$_Tmap_traits@IUPTR@cGlumShapeBase@Glumer@@U?$less@I@std@@V?$allocator@U?$pair@$$CBIUPTR@cGlumShapeBase@Glumer@@@std@@@5@$0A@@std@@@std@@QAEAAV?$allocator@U?$_Tree_node@U?$pair@$$CBIUPTR@cGlumShapeBase@Glumer@@@std@@PAX@std@@@2@XZ 10000000 f   Glumer.obj
 0002:fffce000       __ehhandler$?_Getal@?$_Tree_comp_alloc@V?$_Tmap_traits@IUPTR@cGlumShapeBase@Glumer@@U?$less@I@std@@V?$allocator@U?$pair@$$CBIUPTR@cGlumShapeBase@Glumer@@@std@@@5@$0A@@std@@@std@@QBEABV?$allocator@U?$_Tree_node@U?$pair@$$CBIUPTR@cGlumShapeBase@Glumer@@@std@@PAX@std@@@2@XZ 10000000 f   Glumer.obj
 0002:fffce000       __ehhandler$?_Get_second@?$_Compressed_pair@V?$allocator@UPTR@cMovementBase@Glumer@@@std@@V?$_Vector_val@U?$_Simple_types@UPTR@cMovementBase@Glumer@@@std@@@2@$00@std@@QAEAAV?$_Vector_val@U?$_Simple_types@UPTR@cMovementBase@Glumer@@@std@@@2@XZ 10000000 f   cGlumShape_Console.obj
 0002:fffce000       __ehhandler$?_Get_second@?$_Compressed_pair@V?$allocator@UPTR@cMovementBase@Glumer@@@std@@V?$_Vector_val@U?$_Simple_types@UPTR@cMovementBase@Glumer@@@std@@@2@$00@std@@QBEABV?$_Vector_val@U?$_Simple_types@UPTR@cMovementBase@Glumer@@@std@@@2@XZ 10000000 f   cGlumShape_Console.obj
 0002:fffce000       __ehhandler$??1?$vector@UPTR@cMovementBase@Glumer@@V?$allocator@UPTR@cMovementBase@Glumer@@@std@@@std@@QAE@XZ 10000000 f   cGlumShape_Console.obj
 0002:fffce000       __ehhandler$??$move@AAD@std@@YA$$QADAAD@Z 10000000 f   cPolyLetter.obj
 0002:fffce000       __unwindfunclet$?insert@?$vector@UPTR@cMovementBase@Glumer@@V?$allocator@UPTR@cMovementBase@Glumer@@@std@@@std@@QAE?AV?$_Vector_iterator@V?$_Vector_val@U?$_Simple_types@UPTR@cMovementBase@Glumer@@@std@@@std@@@2@V?$_Vector_const_iterator@V?$_Vector_val@U?$_Simple_types@UPTR@cMovementBase@Glumer@@@std@@@std@@@2@ABUPTR@cMovementBase@Glumer@@@Z$0 10000000 f   cGlumShape_Console.obj
 0002:fffce000       __ehhandler$?begin@?$vector@UPTR@cMovementBase@Glumer@@V?$allocator@UPTR@cMovementBase@Glumer@@@std@@@std@@QAE?AV?$_Vector_iterator@V?$_Vector_val@U?$_Simple_types@UPTR@cMovementBase@Glumer@@@std@@@std@@@2@XZ 10000000 f   cGlumShape_Console.obj
 0002:fffce000       __ehhandler$?size@?$vector@UPTR@cMovementBase@Glumer@@V?$allocator@UPTR@cMovementBase@Glumer@@@std@@@std@@QBEIXZ 10000000 f   cGlumShape_Console.obj
 0002:fffce000       __ehhandler$?max_size@?$vector@UPTR@cMovementBase@Glumer@@V?$allocator@UPTR@cMovementBase@Glumer@@@std@@@std@@QBEIXZ 10000000 f   cGlumShape_Console.obj
 0002:fffce000       __ehhandler$?capacity@?$vector@UPTR@cMovementBase@Glumer@@V?$allocator@UPTR@cMovementBase@Glumer@@@std@@@std@@QBEIXZ 10000000 f   cGlumShape_Console.obj
 0002:fffce000       __ehhandler$?_Has_unused_capacity@?$vector@UPTR@cMovementBase@Glumer@@V?$allocator@UPTR@cMovementBase@Glumer@@@std@@@std@@ABE_NXZ 10000000 f   cGlumShape_Console.obj
 0002:fffce000       __ehhandler$??$forward@U_Zero_then_variadic_args_t@std@@@std@@YA$$QAU_Zero_then_variadic_args_t@0@AAU10@@Z 10000000 f   cPolyLetter.obj
 0002:fffce000       __ehhandler$?_Get_data@?$_Tree_comp_alloc@V?$_Tmap_traits@IUPTR@cGlumShapeBase@Glumer@@U?$less@I@std@@V?$allocator@U?$pair@$$CBIUPTR@cGlumShapeBase@Glumer@@@std@@@5@$0A@@std@@@std@@QAEAAV?$_Tree_val@U?$_Tree_simple_types@U?$pair@$$CBIUPTR@cGlumShapeBase@Glumer@@@std@@@std@@@2@XZ 10000000 f   Glumer.obj
 0002:fffce000       __ehhandler$?_Get_data@?$_Tree_comp_alloc@V?$_Tmap_traits@IUPTR@cGlumShapeBase@Glumer@@U?$less@I@std@@V?$allocator@U?$pair@$$CBIUPTR@cGlumShapeBase@Glumer@@@std@@@5@$0A@@std@@@std@@QBEABV?$_Tree_val@U?$_Tree_simple_types@U?$pair@$$CBIUPTR@cGlumShapeBase@Glumer@@@std@@@std@@@2@XZ 10000000 f   Glumer.obj
 0002:fffce000       __unwindfunclet$?_Orphan_range@?$vector@UPTR@cGlumShape_Console@Glumer@@V?$allocator@UPTR@cGlumShape_Console@Glumer@@@std@@@std@@ABEXPAUPTR@cGlumShape_Console@Glumer@@0@Z$0 10000000 f   Glumer.obj
 0002:fffce000       __unwindfunclet$?_Extract@?$_Tree_val@U?$_Tree_simple_types@U?$pair@$$CBIUPTR@cGlumShapeBase@Glumer@@@std@@@std@@@std@@QAEPAU?$_Tree_node@U?$pair@$$CBIUPTR@cGlumShapeBase@Glumer@@@std@@PAX@2@V?$_Tree_const_iterator@V?$_Tree_val@U?$_Tree_simple_types@U?$pair@$$CBIUPTR@cGlumShapeBase@Glumer@@@std@@@std@@@std@@@2@@Z$0 10000000 f   Glumer.obj
 0002:fffce000       __ehhandler$?_Get_first@?$_Compressed_pair@V?$allocator@U?$_Tree_node@U?$pair@$$CBIUPTR@cGlumShapeBase@Glumer@@@std@@PAX@std@@@std@@V?$_Tree_val@U?$_Tree_simple_types@U?$pair@$$CBIUPTR@cGlumShapeBase@Glumer@@@std@@@std@@@2@$00@std@@QAEAAV?$allocator@U?$_Tree_node@U?$pair@$$CBIUPTR@cGlumShapeBase@Glumer@@@std@@PAX@std@@@2@XZ 10000000 f   Glumer.obj
 0002:fffce000       __ehhandler$?_Get_first@?$_Compressed_pair@V?$allocator@U?$_Tree_node@U?$pair@$$CBIUPTR@cGlumShapeBase@Glumer@@@std@@PAX@std@@@std@@V?$_Tree_val@U?$_Tree_simple_types@U?$pair@$$CBIUPTR@cGlumShapeBase@Glumer@@@std@@@std@@@2@$00@std@@QBEABV?$allocator@U?$_Tree_node@U?$pair@$$CBIUPTR@cGlumShapeBase@Glumer@@@std@@PAX@std@@@2@XZ 10000000 f   Glumer.obj
 0002:fffce000       __ehhandler$?_Get_second@?$_Compressed_pair@V?$allocator@U?$_Tree_node@U?$pair@$$CBIUPTR@cGlumShapeBase@Glumer@@@std@@PAX@std@@@std@@V?$_Tree_val@U?$_Tree_simple_types@U?$pair@$$CBIUPTR@cGlumShapeBase@Glumer@@@std@@@std@@@2@$00@std@@QAEAAV?$_Tree_val@U?$_Tree_simple_types@U?$pair@$$CBIUPTR@cGlumShapeBase@Glumer@@@std@@@std@@@2@XZ 10000000 f   Glumer.obj
 0002:fffce000       __ehhandler$?_Get_second@?$_Compressed_pair@V?$allocator@U?$_Tree_node@U?$pair@$$CBIUPTR@cGlumShapeBase@Glumer@@@std@@PAX@std@@@std@@V?$_Tree_val@U?$_Tree_simple_types@U?$pair@$$CBIUPTR@cGlumShapeBase@Glumer@@@std@@@std@@@2@$00@std@@QBEABV?$_Tree_val@U?$_Tree_simple_types@U?$pair@$$CBIUPTR@cGlumShapeBase@Glumer@@@std@@@std@@@2@XZ 10000000 f   Glumer.obj
 0002:fffce000       __ehhandler$?_Get_first@?$_Compressed_pair@U?$less@I@std@@V?$_Compressed_pair@V?$allocator@U?$_Tree_node@U?$pair@$$CBIUPTR@cGlumShapeBase@Glumer@@@std@@PAX@std@@@std@@V?$_Tree_val@U?$_Tree_simple_types@U?$pair@$$CBIUPTR@cGlumShapeBase@Glumer@@@std@@@std@@@2@$00@2@$00@std@@QAEAAU?$less@I@2@XZ 10000000 f   Glumer.obj
 0002:fffce000       __unwindfunclet$?_Orphan_range@?$vector@UPTR@cMovementBase@Glumer@@V?$allocator@UPTR@cMovementBase@Glumer@@@std@@@std@@ABEXPAUPTR@cMovementBase@Glumer@@0@Z$0 10000000 f   cGlumShape_Console.obj
 0002:fffce000       __ehhandler$??1cObjectMoveableBase@Glumer@@UAE@XZ 10000000 f   cGlumShape_Console.obj
 0002:fffce000       __ehhandler$??1cGluperDirection@Glumer@@UAE@XZ 10000000 f   cGlumShape_Console.obj
 0002:fffce000       __ehhandler$??1cGluperCenter@Glumer@@UAE@XZ 10000000 f   cGlumShape_Console.obj
 0002:fffce000       __ehhandler$??1cGluperOrientation@Glumer@@UAE@XZ 10000000 f   cGlumShape_Console.obj
 0003:fff61000       __ehfuncinfo$?_Orphan_me@_Iterator_base12@std@@QAEXXZ 10000000     cGluperCenter.obj
 0002:fffce000       __unwindfunclet$??0cGlumShapeBase@Glumer@@QAE@I@Z$0 10000000 f   cGlumShape_Console.obj
 0003:fff61000       __ehfuncinfo$?_Get_data@?$_Vector_alloc@U?$_Vec_base_types@UPTR@cMovementBase@Glumer@@V?$allocator@UPTR@cMovementBase@Glumer@@@std@@@std@@@std@@QAEAAV?$_Vector_val@U?$_Simple_types@UPTR@cMovementBase@Glumer@@@std@@@2@XZ 10000000     cGluperCenter.obj
 0002:fffce000       __ehhandler$?_Has_unused_capacity@?$vector@UPTR@cGlumShape_Console@Glumer@@V?$allocator@UPTR@cGlumShape_Console@Glumer@@@std@@@std@@ABE_NXZ 10000000 f   Glumer.obj
 0002:fffce000       __ehhandler$?capacity@?$vector@UPTR@cGlumShape_Console@Glumer@@V?$allocator@UPTR@cGlumShape_Console@Glumer@@@std@@@std@@QBEIXZ 10000000 f   Glumer.obj
 0002:fffce000       __ehhandler$?max_size@?$vector@UPTR@cGlumShape_Console@Glumer@@V?$allocator@UPTR@cGlumShape_Console@Glumer@@@std@@@std@@QBEIXZ 10000000 f   Glumer.obj
 0002:fffce000       __ehhandler$??1cGlumShapeBase@Glumer@@UAE@XZ 10000000 f   cGlumShape_Console.obj
 0002:fffce000       __ehhandler$?size@?$vector@UPTR@cGlumShape_Console@Glumer@@V?$allocator@UPTR@cGlumShape_Console@Glumer@@@std@@@std@@QBEIXZ 10000000 f   Glumer.obj
 0002:fffce000       __unwindfunclet$??0cTimer_RockMotion@Glumer@@QAE@PAVcGlumShapeBase@1@I@Z$0 10000000 f   cGlumShape_Console.obj
 0002:fffce000       __ehhandler$??1cTimer_RockMotion@Glumer@@UAE@XZ 10000000 f   cGlumShape_Console.obj
 0002:fffce000       __ehhandler$?_Get_first@?$_Compressed_pair@U?$less@I@std@@V?$_Compressed_pair@V?$allocator@U?$_Tree_node@U?$pair@$$CBIUPTR@cGlumShapeBase@Glumer@@@std@@PAX@std@@@std@@V?$_Tree_val@U?$_Tree_simple_types@U?$pair@$$CBIUPTR@cGlumShapeBase@Glumer@@@std@@@std@@@2@$00@2@$00@std@@QBEABU?$less@I@2@XZ 10000000 f   Glumer.obj
 0003:fff61000       __ehfuncinfo$?_Getal@?$_Vector_alloc@U?$_Vec_base_types@UPTR@cMovementBase@Glumer@@V?$allocator@UPTR@cMovementBase@Glumer@@@std@@@std@@@std@@QAEAAV?$allocator@UPTR@cMovementBase@Glumer@@@2@XZ 10000000     cGlumShape_RegularPolyhedron.obj
 0003:fff61000       __ehfuncinfo$?_Getal@?$_Vector_alloc@U?$_Vec_base_types@UPTR@cMovementBase@Glumer@@V?$allocator@UPTR@cMovementBase@Glumer@@@std@@@std@@@std@@QBEABV?$allocator@UPTR@cMovementBase@Glumer@@@2@XZ 10000000     cGlumShape_RegularPolyhedron.obj
 0003:fff61000       __ehfuncinfo$?_Get_data@?$_Vector_alloc@U?$_Vec_base_types@UPTR@cMovementBase@Glumer@@V?$allocator@UPTR@cMovementBase@Glumer@@@std@@@std@@@std@@QAEAAV?$_Vector_val@U?$_Simple_types@UPTR@cMovementBase@Glumer@@@std@@@2@XZ 10000000     cGlumShape_RegularPolyhedron.obj
